
nivela_bidirectionala.elf:     file format elf32-littlenios2
nivela_bidirectionala.elf
architecture: nios2:r1, flags 0x00000112:
EXEC_P, HAS_SYMS, D_PAGED
start address 0x0002023c

Program Header:
    LOAD off    0x00001000 vaddr 0x00020000 paddr 0x00020000 align 2**12
         filesz 0x00000020 memsz 0x00000020 flags r-x
    LOAD off    0x00001020 vaddr 0x00020020 paddr 0x00020020 align 2**12
         filesz 0x00010cd0 memsz 0x00010cd0 flags r-x
    LOAD off    0x00011cf0 vaddr 0x00030cf0 paddr 0x00032920 align 2**12
         filesz 0x00001c30 memsz 0x00001c30 flags rw-
    LOAD off    0x00000550 vaddr 0x00034550 paddr 0x00034550 align 2**12
         filesz 0x00000000 memsz 0x00000164 flags rw-

Sections:
Idx Name          Size      VMA       LMA       File off  Algn
  0 .entry        00000020  00020000  00020000  00001000  2**5
                  CONTENTS, ALLOC, LOAD, READONLY, CODE
  1 .exceptions   0000021c  00020020  00020020  00001020  2**2
                  CONTENTS, ALLOC, LOAD, READONLY, CODE
  2 .text         0001038c  0002023c  0002023c  0000123c  2**2
                  CONTENTS, ALLOC, LOAD, READONLY, CODE
  3 .rodata       00000728  000305c8  000305c8  000115c8  2**2
                  CONTENTS, ALLOC, LOAD, READONLY, DATA
  4 .rwdata       00001c30  00030cf0  00032920  00011cf0  2**2
                  CONTENTS, ALLOC, LOAD, DATA, SMALL_DATA
  5 .bss          00000164  00034550  00034550  00014550  2**2
                  ALLOC, SMALL_DATA
  6 .onchip_memory2_0 00000000  000346b4  000346b4  00013920  2**0
                  CONTENTS
  7 .comment      0000002d  00000000  00000000  00013920  2**0
                  CONTENTS, READONLY
  8 .debug_aranges 00001148  00000000  00000000  00013950  2**3
                  CONTENTS, READONLY, DEBUGGING, OCTETS
  9 .debug_info   0002e653  00000000  00000000  00014a98  2**0
                  CONTENTS, READONLY, DEBUGGING, OCTETS
 10 .debug_abbrev 0000c2a2  00000000  00000000  000430eb  2**0
                  CONTENTS, READONLY, DEBUGGING, OCTETS
 11 .debug_line   00011309  00000000  00000000  0004f38d  2**0
                  CONTENTS, READONLY, DEBUGGING, OCTETS
 12 .debug_frame  00002634  00000000  00000000  00060698  2**2
                  CONTENTS, READONLY, DEBUGGING, OCTETS
 13 .debug_str    000028fd  00000000  00000000  00062ccc  2**0
                  CONTENTS, READONLY, DEBUGGING, OCTETS
 14 .debug_alt_sim_info 00000040  00000000  00000000  000655cc  2**2
                  CONTENTS, READONLY, DEBUGGING, OCTETS
 15 .debug_ranges 00000070  00000000  00000000  00065610  2**3
                  CONTENTS, READONLY, DEBUGGING, OCTETS
 16 .debug_line_str 000021d1  00000000  00000000  00065680  2**0
                  CONTENTS, READONLY, DEBUGGING, OCTETS
 17 .debug_loclists 0001505d  00000000  00000000  00067851  2**0
                  CONTENTS, READONLY, DEBUGGING, OCTETS
 18 .debug_rnglists 0000178b  00000000  00000000  0007c8ae  2**0
                  CONTENTS, READONLY, DEBUGGING, OCTETS
 19 .thread_model 00000003  00000000  00000000  00081742  2**0
                  CONTENTS, READONLY
 20 .cpu          0000000c  00000000  00000000  00081745  2**0
                  CONTENTS, READONLY
 21 .qsys         00000001  00000000  00000000  00081751  2**0
                  CONTENTS, READONLY
 22 .simulation_enabled 00000001  00000000  00000000  00081752  2**0
                  CONTENTS, READONLY
 23 .sysid_hash   00000004  00000000  00000000  00081753  2**0
                  CONTENTS, READONLY
 24 .sysid_base   00000004  00000000  00000000  00081757  2**0
                  CONTENTS, READONLY
 25 .sysid_time   00000004  00000000  00000000  0008175b  2**0
                  CONTENTS, READONLY
 26 .stderr_dev   0000000b  00000000  00000000  0008175f  2**0
                  CONTENTS, READONLY
 27 .stdin_dev    0000000b  00000000  00000000  0008176a  2**0
                  CONTENTS, READONLY
 28 .stdout_dev   0000000b  00000000  00000000  00081775  2**0
                  CONTENTS, READONLY
 29 .sopc_system_name 00000010  00000000  00000000  00081780  2**0
                  CONTENTS, READONLY
 30 .quartus_project_dir 0000003c  00000000  00000000  00081790  2**0
                  CONTENTS, READONLY
 31 .jdi          00005780  00000000  00000000  000817cc  2**0
                  CONTENTS, READONLY
 32 .sopcinfo     0006791f  00000000  00000000  00086f4c  2**0
                  CONTENTS, READONLY
SYMBOL TABLE:
00020000 l    d  .entry	00000000 .entry
00020020 l    d  .exceptions	00000000 .exceptions
0002023c l    d  .text	00000000 .text
000305c8 l    d  .rodata	00000000 .rodata
00030cf0 l    d  .rwdata	00000000 .rwdata
00034550 l    d  .bss	00000000 .bss
000346b4 l    d  .onchip_memory2_0	00000000 .onchip_memory2_0
00000000 l    d  .comment	00000000 .comment
00000000 l    d  .debug_aranges	00000000 .debug_aranges
00000000 l    d  .debug_info	00000000 .debug_info
00000000 l    d  .debug_abbrev	00000000 .debug_abbrev
00000000 l    d  .debug_line	00000000 .debug_line
00000000 l    d  .debug_frame	00000000 .debug_frame
00000000 l    d  .debug_str	00000000 .debug_str
00000000 l    d  .debug_alt_sim_info	00000000 .debug_alt_sim_info
00000000 l    d  .debug_ranges	00000000 .debug_ranges
00000000 l    d  .debug_line_str	00000000 .debug_line_str
00000000 l    d  .debug_loclists	00000000 .debug_loclists
00000000 l    d  .debug_rnglists	00000000 .debug_rnglists
00000000 l    df *ABS*	00000000 crt0.o
00020274 l       .text	00000000 alt_after_alt_main
00000000 l    df *ABS*	00000000 alt_irq_handler.c
00000000 l    df *ABS*	00000000 alt_instruction_exception_entry.c
00000000 l    df *ABS*	00000000 accelerometer.c
00000000 l    df *ABS*	00000000 adc.c
00000000 l    df *ABS*	00000000 global.c
00000000 l    df *ABS*	00000000 hello_world.c
00000000 l    df *ABS*	00000000 hex_displays.c
00000000 l    df *ABS*	00000000 tests.c
00000000 l    df *ABS*	00000000 lib2-divmod.c
00000000 l    df *ABS*	00000000 printf.c
00000000 l    df *ABS*	00000000 puts.c
00000000 l    df *ABS*	00000000 strlen.c
00000000 l    df *ABS*	00000000 vfprintf.c
000306c0 l     O .rodata	00000010 zeroes.0
00022fe0 l     F .text	000000c4 __sbprintf
000306d0 l     O .rodata	00000010 blanks.1
00000000 l    df *ABS*	00000000 wsetup.c
00000000 l    df *ABS*	00000000 dtoa.c
000231f0 l     F .text	000001fc quorem
00000000 l    df *ABS*	00000000 fflush.c
00000000 l    df *ABS*	00000000 findfp.c
00024ec0 l     F .text	00000008 __fp_lock
00024ed4 l     F .text	00000008 __fp_unlock
00024edc l     F .text	00000168 __sinit.part.0
00000000 l    df *ABS*	00000000 mallocr.c
00000000 l    df *ABS*	00000000 fvwrite.c
00000000 l    df *ABS*	00000000 fwalk.c
00000000 l    df *ABS*	00000000 impure.c
00030cf0 l     O .rwdata	00000424 impure_data
00000000 l    df *ABS*	00000000 localeconv.c
00000000 l    df *ABS*	00000000 makebuf.c
00000000 l    df *ABS*	00000000 mallocr.c
00000000 l    df *ABS*	00000000 memchr.c
00000000 l    df *ABS*	00000000 memcpy.c
00000000 l    df *ABS*	00000000 memmove.c
00000000 l    df *ABS*	00000000 memset.c
00000000 l    df *ABS*	00000000 mprec.c
0003077c l     O .rodata	0000000c p05.0
00000000 l    df *ABS*	00000000 mallocr.c
00000000 l    df *ABS*	00000000 sbrkr.c
00000000 l    df *ABS*	00000000 stdio.c
00000000 l    df *ABS*	00000000 vfprintf.c
0002831c l     F .text	000000f4 __sprint_r.part.0
000308a0 l     O .rodata	00000010 zeroes.0
000296b4 l     F .text	000000c4 __sbprintf
000308b0 l     O .rodata	00000010 blanks.1
00000000 l    df *ABS*	00000000 writer.c
00000000 l    df *ABS*	00000000 closer.c
00000000 l    df *ABS*	00000000 assert.c
00000000 l    df *ABS*	00000000 mallocr.c
00000000 l    df *ABS*	00000000 errno.c
00000000 l    df *ABS*	00000000 fclose.c
00000000 l    df *ABS*	00000000 fiprintf.c
00000000 l    df *ABS*	00000000 fputwc.c
00000000 l    df *ABS*	00000000 fstatr.c
00000000 l    df *ABS*	00000000 int_errno.c
00000000 l    df *ABS*	00000000 isattyr.c
00000000 l    df *ABS*	00000000 locale.c
00000000 l    df *ABS*	00000000 lseekr.c
00000000 l    df *ABS*	00000000 mbtowc_r.c
00000000 l    df *ABS*	00000000 readr.c
00000000 l    df *ABS*	00000000 strcmp.c
00000000 l    df *ABS*	00000000 vfiprintfr_1.c
00000000 l    df *ABS*	00000000 wbuf.c
00000000 l    df *ABS*	00000000 wcrtomb.c
00000000 l    df *ABS*	00000000 wctomb_r.c
00000000 l    df *ABS*	00000000 abort.c
00000000 l    df *ABS*	00000000 ctype_.c
00000000 l    df *ABS*	00000000 signal.c
00000000 l    df *ABS*	00000000 signalr.c
00000000 l    df *ABS*	00000000 libgcc2.c
00000000 l    df *ABS*	00000000 libgcc2.c
00000000 l    df *ABS*	00000000 adddf3.c
00000000 l    df *ABS*	00000000 divdf3.c
00000000 l    df *ABS*	00000000 eqdf2.c
00000000 l    df *ABS*	00000000 gedf2.c
00000000 l    df *ABS*	00000000 ledf2.c
00000000 l    df *ABS*	00000000 muldf3.c
00000000 l    df *ABS*	00000000 subdf3.c
00000000 l    df *ABS*	00000000 unorddf2.c
00000000 l    df *ABS*	00000000 fixdfsi.c
00000000 l    df *ABS*	00000000 floatsidf.c
00000000 l    df *ABS*	00000000 floatunsidf.c
00000000 l    df *ABS*	00000000 libgcc2.c
00000000 l    df *ABS*	00000000 libgcc2.c
00000000 l    df *ABS*	00000000 alt_close.c
0002d9bc l     F .text	0000003c alt_get_errno
00000000 l    df *ABS*	00000000 alt_dev.c
0002dac8 l     F .text	0000002c alt_dev_null_write
00000000 l    df *ABS*	00000000 alt_errno.c
00000000 l    df *ABS*	00000000 alt_exit.c
00000000 l    df *ABS*	00000000 alt_fstat.c
0002db30 l     F .text	0000003c alt_get_errno
00000000 l    df *ABS*	00000000 alt_getpid.c
00000000 l    df *ABS*	00000000 alt_isatty.c
0002dc3c l     F .text	0000003c alt_get_errno
00000000 l    df *ABS*	00000000 alt_kill.c
0002dd1c l     F .text	0000003c alt_get_errno
00000000 l    df *ABS*	00000000 alt_load.c
0002de48 l     F .text	00000068 alt_load_section
00000000 l    df *ABS*	00000000 alt_lseek.c
0002df34 l     F .text	0000003c alt_get_errno
00000000 l    df *ABS*	00000000 alt_main.c
00000000 l    df *ABS*	00000000 alt_malloc_lock.c
00000000 l    df *ABS*	00000000 alt_read.c
0002e108 l     F .text	0000003c alt_get_errno
00000000 l    df *ABS*	00000000 alt_release_fd.c
00000000 l    df *ABS*	00000000 alt_sbrk.c
00032910 l     O .rwdata	00000004 heap_end
00000000 l    df *ABS*	00000000 alt_usleep.c
00000000 l    df *ABS*	00000000 alt_write.c
0002e380 l     F .text	0000003c alt_get_errno
00000000 l    df *ABS*	00000000 alt_sys_init.c
0002e4b4 l     F .text	00000034 alt_dev_reg
00031830 l     O .rwdata	00001060 jtag_uart_0
00032890 l     O .rwdata	0000002c accelerometer_spi_0
000328bc l     O .rwdata	0000002c adc_0
00000000 l    df *ABS*	00000000 altera_avalon_jtag_uart_fd.c
00000000 l    df *ABS*	00000000 altera_avalon_jtag_uart_init.c
0002e7a0 l     F .text	00000218 altera_avalon_jtag_uart_irq
0002e9b8 l     F .text	000000a8 altera_avalon_jtag_uart_timeout
00000000 l    df *ABS*	00000000 altera_avalon_jtag_uart_ioctl.c
00000000 l    df *ABS*	00000000 altera_avalon_jtag_uart_read.c
00000000 l    df *ABS*	00000000 altera_avalon_jtag_uart_write.c
00000000 l    df *ABS*	00000000 altera_up_avalon_accelerometer_spi.c
00000000 l    df *ABS*	00000000 altera_up_avalon_adc.c
00000000 l    df *ABS*	00000000 alt_alarm_start.c
00000000 l    df *ABS*	00000000 alt_busy_sleep.c
00000000 l    df *ABS*	00000000 alt_dcache_flush_all.c
00000000 l    df *ABS*	00000000 alt_dev_llist_insert.c
0002f7f8 l     F .text	0000003c alt_get_errno
00000000 l    df *ABS*	00000000 alt_do_ctors.c
00000000 l    df *ABS*	00000000 alt_do_dtors.c
00000000 l    df *ABS*	00000000 alt_find_dev.c
00000000 l    df *ABS*	00000000 alt_icache_flush_all.c
00000000 l    df *ABS*	00000000 alt_io_redirect.c
0002fa54 l     F .text	000000b0 alt_open_fd
00000000 l    df *ABS*	00000000 alt_irq_register.c
00000000 l    df *ABS*	00000000 alt_irq_vars.c
00000000 l    df *ABS*	00000000 alt_open.c
0002fd00 l     F .text	0000003c alt_get_errno
0002fd3c l     F .text	000000b8 alt_file_locked
00000000 l    df *ABS*	00000000 alt_tick.c
00000000 l    df *ABS*	00000000 altera_nios2_gen2_irq.c
00000000 l    df *ABS*	00000000 alt_find_file.c
00000000 l    df *ABS*	00000000 alt_get_fd.c
00000000 l    df *ABS*	00000000 atexit.c
00000000 l    df *ABS*	00000000 exit.c
00000000 l    df *ABS*	00000000 memcmp.c
00000000 l    df *ABS*	00000000 __atexit.c
00000000 l    df *ABS*	00000000 __call_atexit.c
00034588 g     O .bss	00000004 alt_instruction_exception_handler
00027a44 g     F .text	00000070 _mprec_log10
00027b30 g     F .text	00000060 __any_on
00029dbc g     F .text	00000058 _isatty_r
00030788 g     O .rodata	00000028 __mprec_tinytens
0002e044 g     F .text	0000007c alt_main
00020aa4 g     F .text	000000d0 _puts_r
000345b4 g     O .bss	00000100 alt_irq
00029f08 g     F .text	00000064 _lseek_r
00032920 g       *ABS*	00000000 __flash_rwdata_start
0002c454 g     F .text	00000094 .hidden __eqdf2
000346b4 g       *ABS*	00000000 __alt_heap_start
0002a844 g     F .text	00000060 _kill_r
00020a6c g     F .text	00000038 printf
0002a23c g     F .text	0000006c _wcrtomb_r
0002a3e0 g     F .text	00000090 _signal_r
000282b8 g     F .text	0000005c __sseek
000251f4 g     F .text	00000010 __sinit
0002a0dc g     F .text	00000148 __swbuf_r
00029e14 g     F .text	00000074 _setlocale_r
00025044 g     F .text	00000068 __sfmoreglue
000207ac g     F .text	000000dc test_hex_displays
0002e0e4 g     F .text	00000024 __malloc_unlock
0002681c g     F .text	00000128 memmove
000251e0 g     F .text	00000014 _cleanup
00026a3c g     F .text	000000a4 _Balloc
0002c4e8 g     F .text	000000fc .hidden __gtdf2
00030118 g     F .text	00000024 altera_nios2_gen2_irq_init
000299f0 g     F .text	0000000c __errno
00020000 g     F .entry	0000000c __reset
00025c4c g     F .text	00000008 __localeconv_l
0002f154 g     F .text	000000d4 alt_up_accelerometer_spi_read_x_axis
00020020 g       *ABS*	00000000 __flash_exceptions_start
00029d5c g     F .text	00000060 _fstat_r
00034564 g     O .bss	00000004 errno
00028230 g     F .text	00000008 __seofread
00034570 g     O .bss	00000004 alt_argv
0003a8e8 g       *ABS*	00000000 _gp
0002e350 g     F .text	00000030 usleep
0002dc1c g     F .text	00000020 getpid
0002067c g     F .text	00000064 hex_init
000316b0 g     O .rwdata	00000180 alt_fd_list
00020650 g     F .text	0000002c get_hex_address
0002f9a4 g     F .text	00000090 alt_find_dev
0002671c g     F .text	00000100 memcpy
00024ec8 g     F .text	0000000c _cleanup_r
0002d824 g     F .text	000000b8 .hidden __floatsidf
0002fb04 g     F .text	0000007c alt_io_redirect
0002c5e4 g     F .text	000000f8 .hidden __ltdf2
000305c8 g       *ABS*	00000000 __DTOR_END__
00020b74 g     F .text	00000010 puts
000302e4 g     F .text	00000074 alt_exception_cause_generated_bad_addr
0002799c g     F .text	000000a8 __ratio
00029698 g     F .text	0000001c __vfiprintf_internal
0002ebbc g     F .text	00000220 altera_avalon_jtag_uart_read
00020a3c g     F .text	00000030 _printf_r
00020000 g       *ABS*	00000000 __alt_mem_onchip_memory2_0
0002097c g     F .text	00000064 .hidden __udivsi3
0002dc78 g     F .text	000000a4 isatty
0002a470 g     F .text	000000b0 _raise_r
00029834 g     F .text	00000064 __assert_func
000307d8 g     O .rodata	000000c8 __mprec_tens
00034560 g     O .bss	00000004 __malloc_top_pad
0002a8a4 g     F .text	00000004 _getpid_r
00025c54 g     F .text	0000000c _localeconv_r
00026e90 g     F .text	000000b0 __i2b
00025668 g     F .text	000004a4 __sfvwrite_r
0002a520 g     F .text	000000bc __sigtramp_r
00028184 g     F .text	00000058 _sbrk_r
00029fbc g     F .text	00000064 _read_r
00032908 g     O .rwdata	00000004 alt_max_fd
000299fc g     F .text	000000f8 _fclose_r
00024e3c g     F .text	00000084 fflush
0003455c g     O .bss	00000004 __malloc_max_sbrked_mem
0002fb80 g     F .text	00000180 alt_irq_register
0002b308 g     F .text	00000904 .hidden __adddf3
00020388 g     F .text	000000c8 hysteresis
00027744 g     F .text	00000100 __b2d
0002adf8 g     F .text	00000510 .hidden __umoddi3
0002df70 g     F .text	000000d4 lseek
000328e8 g     O .rwdata	00000004 _global_impure_ptr
00027b90 g     F .text	000005f4 _realloc_r
000346b4 g       *ABS*	00000000 __bss_end
0002f3d0 g     F .text	0000003c alt_up_adc_open_dev
0002ffec g     F .text	0000012c alt_tick
0002a8a8 g     F .text	00000550 .hidden __udivdi3
00029cc0 g     F .text	00000024 _fputwc_r
000307b0 g     O .rodata	00000028 __mprec_bigtens
00026c34 g     F .text	00000138 __s2b
0002a36c g     F .text	00000018 abort
0002d8dc g     F .text	00000090 .hidden __floatunsidf
0002745c g     F .text	00000058 __mcmp
00025214 g     F .text	00000014 __fp_lock_all
0002ff48 g     F .text	000000a4 alt_alarm_stop
00034578 g     O .bss	00000004 alt_irq_active
000200fc g     F .exceptions	000000cc alt_irq_handler
00031688 g     O .rwdata	00000028 alt_dev_null
00034554 g     O .bss	00000004 adc_device
0002f7d8 g     F .text	00000020 alt_dcache_flush_all
00026d6c g     F .text	00000074 __hi0bits
0002d7a4 g     F .text	00000080 .hidden __fixdfsi
00032920 g       *ABS*	00000000 __ram_rwdata_end
00032900 g     O .rwdata	00000008 alt_dev_list
0002e3bc g     F .text	000000f8 write
00030cf0 g       *ABS*	00000000 __ram_rodata_end
0002db6c g     F .text	000000b0 fstat
0002dd58 g     F .text	000000f0 kill
0002c5e4 g     F .text	000000f8 .hidden __ledf2
00027194 g     F .text	00000140 __pow5mult
00028428 g     F .text	00001270 ___vfiprintf_internal_r
000209e0 g     F .text	0000005c .hidden __umodsi3
000346b4 g       *ABS*	00000000 end
0002e6ec g     F .text	000000b4 altera_avalon_jtag_uart_init
000201c8 g     F .exceptions	00000074 alt_instruction_exception_entry
000305c8 g       *ABS*	00000000 __CTOR_LIST__
00040000 g       *ABS*	00000000 __alt_stack_pointer
0002d96c g     F .text	00000050 .hidden __clzsi2
00020734 g     F .text	00000078 set_hex_state
0002eddc g     F .text	00000228 altera_avalon_jtag_uart_write
00025204 g     F .text	00000004 __sfp_lock_acquire
0002664c g     F .text	000000d0 memchr
00020c1c g     F .text	000023a8 ___vfprintf_internal_r
00025360 g     F .text	00000308 _free_r
00030a14 g     O .rodata	00000180 _ctype_b
00029e88 g     F .text	0000000c __locale_mb_cur_max
000304a8 g     F .text	00000120 __call_exitprocs
000328f0 g     O .rwdata	00000004 __malloc_sbrk_base
0002023c g     F .text	0000003c _start
0003457c g     O .bss	00000004 _alt_tick_rate
000272d4 g     F .text	00000188 __lshift
00034580 g     O .bss	00000008 _alt_nticks
0002a690 g     F .text	00000098 signal
0002e144 g     F .text	000000fc read
0002e524 g     F .text	00000064 alt_sys_init
0002f040 g     F .text	00000044 alt_up_accelerometer_spi_read_address_register
00030418 g     F .text	00000090 __register_exitproc
00026f40 g     F .text	00000254 __multiply
0002ea60 g     F .text	00000068 altera_avalon_jtag_uart_close
00030cf0 g       *ABS*	00000000 __ram_rwdata_start
000305c8 g       *ABS*	00000000 __ram_rodata_start
0003458c g     O .bss	00000028 __malloc_current_mallinfo
00027844 g     F .text	00000158 __d2b
0002e588 g     F .text	00000060 altera_avalon_jtag_uart_read_fd
00030244 g     F .text	000000a0 alt_get_fd
0002f680 g     F .text	00000158 alt_busy_sleep
0002f228 g     F .text	000000d4 alt_up_accelerometer_spi_read_y_axis
000297dc g     F .text	00000058 _close_r
000303a0 g     F .text	00000078 memcmp
0002e648 g     F .text	00000050 altera_avalon_jtag_uart_close_fd
000346b4 g       *ABS*	00000000 __alt_stack_base
0002e698 g     F .text	00000054 altera_avalon_jtag_uart_ioctl_fd
000202fc g     F .text	0000008c print_accelerometer_axis
000230a4 g     F .text	0000014c __swsetup_r
0002bc0c g     F .text	00000848 .hidden __divdf3
000250ac g     F .text	00000134 __sfp
00027ab4 g     F .text	0000007c __copybits
00031114 g     O .rwdata	00000408 __malloc_av_
00025210 g     F .text	00000004 __sinit_lock_release
0002c6dc g     F .text	000006d8 .hidden __muldf3
000281dc g     F .text	00000054 __sread
0003013c g     F .text	00000108 alt_find_file
0002f834 g     F .text	000000a8 alt_dev_llist_insert
0002e0c0 g     F .text	00000024 __malloc_lock
0002e298 g     F .text	000000b8 sbrk
00024ddc g     F .text	00000060 _fflush_r
000298ac g     F .text	00000144 _calloc_r
00034550 g       *ABS*	00000000 __bss_start
00026944 g     F .text	000000f8 memset
00020494 g     F .text	000001bc main
00034574 g     O .bss	00000004 alt_envp
00034558 g     O .bss	00000004 __malloc_max_total_mem
0002e5e8 g     F .text	00000060 altera_avalon_jtag_uart_write_fd
0002a224 g     F .text	00000018 __swbuf
00028314 g     F .text	00000008 __sclose
00040000 g       *ABS*	00000000 __alt_heap_limit
00029af4 g     F .text	00000010 fclose
000233ec g     F .text	000017e8 _dtoa_r
00025e98 g     F .text	000007b4 _malloc_r
0002a33c g     F .text	00000030 __ascii_wctomb
0003290c g     O .rwdata	00000004 alt_errno
00029b04 g     F .text	00000020 _fiprintf_r
0002a728 g     F .text	00000060 _init_signal
0002f40c g     F .text	00000114 alt_up_adc_read
00025b0c g     F .text	00000098 _fwalk
00020450 g     F .text	00000044 getAdcValue
00029f6c g     F .text	0000000c _mbtowc_r
000206e0 g     F .text	00000054 set_hex_value
00020888 g     F .text	00000080 .hidden __divsi3
0002523c g     F .text	00000124 _malloc_trim_r
000305c8 g       *ABS*	00000000 __CTOR_END__
0002a020 g     F .text	000000b8 strcmp
000305c8 g       *ABS*	00000000 __flash_rodata_start
000305c8 g       *ABS*	00000000 __DTOR_LIST__
0002c454 g     F .text	00000094 .hidden __nedf2
0002e4e8 g     F .text	0000003c alt_irq_init
0002e240 g     F .text	00000058 alt_release_fd
00030b94 g     O .rodata	00000100 .hidden __clz_tab
00034568 g     O .bss	00000004 _PathLocale
00030358 g     F .text	00000014 atexit
00029778 g     F .text	00000064 _write_r
00029e94 g     F .text	00000074 setlocale
000328ec g     O .rwdata	00000004 _impure_ptr
0003456c g     O .bss	00000004 alt_argc
00024bd4 g     F .text	00000208 __sflush_r
0002f940 g     F .text	00000064 _do_dtors
00020020 g       .exceptions	00000000 alt_irq_entry
00029f78 g     F .text	00000044 __ascii_mbtowc
000276e4 g     F .text	00000060 __ulp
00025228 g     F .text	00000014 __fp_unlock_all
000328f8 g     O .rwdata	00000008 alt_fs_list
00020020 g       *ABS*	00000000 __ram_exceptions_start
0002f004 g     F .text	0000003c alt_up_accelerometer_spi_open_dev
00025c60 g     F .text	0000000c localeconv
00025e0c g     F .text	0000008c __swhatbuf_r
00034550 g     O .bss	00000004 accelerometer_device
00032920 g       *ABS*	00000000 _edata
000346b4 g       *ABS*	00000000 _end
00029b5c g     F .text	00000164 __fputwc
0002023c g       *ABS*	00000000 __ram_exceptions_end
0002eac8 g     F .text	000000f4 altera_avalon_jtag_uart_ioctl
00028238 g     F .text	00000080 __swrite
000328f4 g     O .rwdata	00000004 __malloc_trim_threshold
0003036c g     F .text	00000034 exit
00029b24 g     F .text	00000038 fiprintf
0002a0d8 g     F .text	00000004 _vfiprintf_r
00025ba4 g     F .text	000000a8 _fwalk_reent
000274b4 g     F .text	00000230 __mdiff
00020908 g     F .text	00000074 .hidden __modsi3
0002f2fc g     F .text	000000d4 alt_up_accelerometer_spi_read_z_axis
00040000 g       *ABS*	00000000 __alt_data_end
00020020 g     F .exceptions	00000000 alt_exception
00025208 g     F .text	00000004 __sfp_lock_release
00030910 g     O .rodata	00000101 _ctype_
0002d750 g     F .text	00000054 .hidden __unorddf2
0002daf4 g     F .text	0000003c _exit
0002f520 g     F .text	00000160 alt_alarm_start
0002f084 g     F .text	00000068 alt_up_accelerometer_spi_read
0002f0ec g     F .text	00000068 alt_up_accelerometer_spi_write
00025c6c g     F .text	000001a0 __smakebuf_r
00020b84 g     F .text	00000098 strlen
0002a384 g     F .text	0000005c _init_signal_r
0002fdf4 g     F .text	00000154 open
0002c4e8 g     F .text	000000fc .hidden __gedf2
00029898 g     F .text	00000014 __assert
00020278 g     F .text	00000084 read_ADXL345_deviceID
00028410 g     F .text	00000018 __sprint_r
0002fa34 g     F .text	00000020 alt_icache_flush_all
00032914 g     O .rwdata	00000004 alt_priority_mask
00022fc4 g     F .text	0000001c __vfprintf_internal
0002a330 g     F .text	0000000c _wctomb_r
0002cdb4 g     F .text	0000099c .hidden __subdf3
00026de0 g     F .text	000000b0 __lo0bits
00032918 g     O .rwdata	00000008 alt_alarm_list
0002f8dc g     F .text	00000064 _do_ctors
0002a788 g     F .text	000000bc __sigtramp
0002a2a8 g     F .text	00000088 wcrtomb
0002d9f8 g     F .text	000000d0 close
0003151c g     O .rwdata	0000016c __global_locale
0002deb0 g     F .text	00000084 alt_load
00029ce4 g     F .text	00000078 fputwc
0002a5dc g     F .text	000000b4 raise
0002520c g     F .text	00000004 __sinit_lock_acquire
00026b04 g     F .text	00000130 __multadd
00026ae0 g     F .text	00000024 _Bfree



Disassembly of section .entry:

00020000 <__reset>:
 * Jump to the _start entry point in the .text section if reset code
 * is allowed or if optimizing for RTL simulation.
 */
#if defined(ALT_ALLOW_CODE_AT_RESET) || defined(ALT_SIM_OPTIMIZE)
    /* Jump to the _start entry point in the .text section. */
    movhi r1, %hi(_start)
   20000:	004000b4 	movhi	at,2
    ori r1, r1, %lo(_start)
   20004:	08408f14 	ori	at,at,572
    jmp r1
   20008:	0800683a 	jmp	at
	...

Disassembly of section .exceptions:

00020020 <alt_exception>:

#else /* ALT_EXCEPTION_STACK disabled */
        /* 
         * Reserve space on normal stack for registers about to be pushed.
         */
        addi  sp, sp, -76
   20020:	deffed04 	addi	sp,sp,-76
         * documentation for details).
         *
         * Leave a gap in the stack frame at 4(sp) for the muldiv handler to
         * store zero into.
         */
        stw   ra,  0(sp)
   20024:	dfc00015 	stw	ra,0(sp)
        stw   r1,   8(sp)
   20028:	d8400215 	stw	at,8(sp)
        stw   r2,  12(sp)
   2002c:	d8800315 	stw	r2,12(sp)
        stw   r3,  16(sp)
   20030:	d8c00415 	stw	r3,16(sp)
        stw   r4,  20(sp)
   20034:	d9000515 	stw	r4,20(sp)
        stw   r5,  24(sp)
   20038:	d9400615 	stw	r5,24(sp)
        stw   r6,  28(sp)
   2003c:	d9800715 	stw	r6,28(sp)
        stw   r7,  32(sp)
   20040:	d9c00815 	stw	r7,32(sp)
        rdctl r5, estatus   /* Read early to avoid usage stall */
   20044:	000b307a 	rdctl	r5,estatus
        stw   r8,  36(sp)
   20048:	da000915 	stw	r8,36(sp)
        stw   r9,  40(sp)
   2004c:	da400a15 	stw	r9,40(sp)
        stw   r10, 44(sp)
   20050:	da800b15 	stw	r10,44(sp)
        stw   r11, 48(sp)
   20054:	dac00c15 	stw	r11,48(sp)
        stw   r12, 52(sp)
   20058:	db000d15 	stw	r12,52(sp)
        stw   r13, 56(sp)
   2005c:	db400e15 	stw	r13,56(sp)
        stw   r14, 60(sp)
   20060:	db800f15 	stw	r14,60(sp)
        stw   r15, 64(sp)
   20064:	dbc01015 	stw	r15,64(sp)
        /*
         * ea-4 contains the address of the instruction being executed
         * when the exception occured. For interrupt exceptions, we will
         * will be re-issue the isntruction. Store it in 72(sp)
         */
        stw   r5,  68(sp)  /* estatus */
   20068:	d9401115 	stw	r5,68(sp)
        addi  r15, ea, -4  /* instruction that caused exception */
   2006c:	ebffff04 	addi	r15,ea,-4
        stw   r15,  72(sp)
   20070:	dbc01215 	stw	r15,72(sp)
#else
        /*
         * Test to see if the exception was a software exception or caused 
         * by an external interrupt, and vector accordingly.
         */
        rdctl r4, ipending
   20074:	0009313a 	rdctl	r4,ipending
        andi  r2, r5, 1
   20078:	2880004c 	andi	r2,r5,1
        beq   r2, zero, .Lnot_irq
   2007c:	10000326 	beq	r2,zero,2008c <alt_exception+0x6c>
        beq   r4, zero, .Lnot_irq
   20080:	20000226 	beq	r4,zero,2008c <alt_exception+0x6c>
        /*
         * Now that all necessary registers have been preserved, call 
         * alt_irq_handler() to process the interrupts.
         */

        call alt_irq_handler
   20084:	00200fc0 	call	200fc <alt_irq_handler>

        .section .exceptions.irqreturn, "xa"

        br    .Lexception_exit
   20088:	00000706 	br	200a8 <alt_exception+0x88>
         * upon completion, so we write ea (address of instruction *after*
         * the one where the exception occured) into 72(sp). The actual
         * instruction that caused the exception is written in r2, which these
         * handlers will utilize.
         */
        stw ea, 72(sp) /* EA is PC+4 so will skip over instruction causing exception */
   2008c:	df401215 	stw	ea,72(sp)
.Lunknown_16bit:
        addi.n r4, r4, 2 /* Need PC+2 to skip over instruction causing exception */
        stw r4, 72(sp)

#else /* CDX is not Enabled and all instructions are 32bits */
        ldw r2, -4(ea) /* Instruction value that caused exception */
   20090:	e8bfff17 	ldw	r2,-4(ea)
   20094:	e93fff04 	addi	r4,ea,-4
   20098:	00201c80 	call	201c8 <alt_instruction_exception_entry>
   2009c:	1000021e 	bne	r2,zero,200a8 <alt_exception+0x88>
   200a0:	ebffff04 	addi	r15,ea,-4
   200a4:	dbc01215 	stw	r15,72(sp)
        /* 
         * Restore the saved registers, so that all general purpose registers 
         * have been restored to their state at the time the interrupt occured.
         */

        ldw   r5,  68(sp)
   200a8:	d9401117 	ldw	r5,68(sp)
        ldw   ea,  72(sp)  /* This becomes the PC once eret is executed */
   200ac:	df401217 	ldw	ea,72(sp)
        ldw   ra,   0(sp)
   200b0:	dfc00017 	ldw	ra,0(sp)

        wrctl estatus, r5
   200b4:	2801707a 	wrctl	estatus,r5

        ldw   r1,   8(sp)
   200b8:	d8400217 	ldw	at,8(sp)
        ldw   r2,  12(sp)
   200bc:	d8800317 	ldw	r2,12(sp)
        ldw   r3,  16(sp)
   200c0:	d8c00417 	ldw	r3,16(sp)
        ldw   r4,  20(sp)
   200c4:	d9000517 	ldw	r4,20(sp)
        ldw   r5,  24(sp)
   200c8:	d9400617 	ldw	r5,24(sp)
        ldw   r6,  28(sp)
   200cc:	d9800717 	ldw	r6,28(sp)
        ldw   r7,  32(sp)
   200d0:	d9c00817 	ldw	r7,32(sp)

#if defined(ALT_EXCEPTION_STACK) && defined(ALT_STACK_CHECK)
        ldw   et, %gprel(alt_exception_old_stack_limit)(gp)
#endif

        ldw   r8,  36(sp)
   200d4:	da000917 	ldw	r8,36(sp)
        ldw   r9,  40(sp)
   200d8:	da400a17 	ldw	r9,40(sp)
        ldw   r10, 44(sp)
   200dc:	da800b17 	ldw	r10,44(sp)
        ldw   r11, 48(sp)
   200e0:	dac00c17 	ldw	r11,48(sp)
        ldw   r12, 52(sp)
   200e4:	db000d17 	ldw	r12,52(sp)
        ldw   r13, 56(sp)
   200e8:	db400e17 	ldw	r13,56(sp)
        ldw   r14, 60(sp)
   200ec:	db800f17 	ldw	r14,60(sp)
        ldw   r15, 64(sp)
   200f0:	dbc01017 	ldw	r15,64(sp)
        stw   et, %gprel(alt_stack_limit_value)(gp)
        stw   zero, %gprel(alt_exception_old_stack_limit)(gp)
#endif /* ALT_STACK_CHECK */
        ldw   sp,  76(sp)
#else /* ALT_EXCEPTION_STACK disabled */
        addi  sp, sp, 76
   200f4:	dec01304 	addi	sp,sp,76

        /*
         * Return to the interrupted instruction.
         */

        eret
   200f8:	ef80083a 	eret

000200fc <alt_irq_handler>:
 * instruction is present if the macro ALT_CI_INTERRUPT_VECTOR defined.
 */

void alt_irq_handler (void) __attribute__ ((section (".exceptions")));
void alt_irq_handler (void)
{
   200fc:	defff904 	addi	sp,sp,-28
   20100:	dfc00615 	stw	ra,24(sp)
   20104:	df000515 	stw	fp,20(sp)
   20108:	df000504 	addi	fp,sp,20
  
  /*
   * Notify the operating system that we are at interrupt level.
   */ 
  
  ALT_OS_INT_ENTER();
   2010c:	0001883a 	nop
#ifndef NIOS2_EIC_PRESENT
static ALT_INLINE alt_u32 ALT_ALWAYS_INLINE alt_irq_pending (void)
{
  alt_u32 active;

  NIOS2_READ_IPENDING (active);
   20110:	0005313a 	rdctl	r2,ipending
   20114:	e0bffc15 	stw	r2,-16(fp)

  return active;
   20118:	e0bffc17 	ldw	r2,-16(fp)
   * Consider the case where the high priority interupt is asserted during
   * the interrupt entry sequence for a lower priority interrupt to see why
   * this is the case.
   */

  active = alt_irq_pending ();
   2011c:	e0bfff15 	stw	r2,-4(fp)

  do
  {
    i = 0;
   20120:	e03ffd15 	stw	zero,-12(fp)
    mask = 1;
   20124:	00800044 	movi	r2,1
   20128:	e0bffe15 	stw	r2,-8(fp)
     * called to clear the interrupt condition.
     */

    do
    {
      if (active & mask)
   2012c:	e0ffff17 	ldw	r3,-4(fp)
   20130:	e0bffe17 	ldw	r2,-8(fp)
   20134:	1884703a 	and	r2,r3,r2
   20138:	10001226 	beq	r2,zero,20184 <alt_irq_handler+0x88>
      { 
#ifdef ALT_ENHANCED_INTERRUPT_API_PRESENT
        alt_irq[i].handler(alt_irq[i].context); 
#else
        alt_irq[i].handler(alt_irq[i].context, i); 
   2013c:	e0bffd17 	ldw	r2,-12(fp)
   20140:	100690fa 	slli	r3,r2,3
   20144:	008000f4 	movhi	r2,3
   20148:	1885883a 	add	r2,r3,r2
   2014c:	10d16d17 	ldw	r3,17844(r2)
   20150:	e0bffd17 	ldw	r2,-12(fp)
   20154:	100890fa 	slli	r4,r2,3
   20158:	008000f4 	movhi	r2,3
   2015c:	2085883a 	add	r2,r4,r2
   20160:	10916e17 	ldw	r2,17848(r2)
   20164:	e17ffd17 	ldw	r5,-12(fp)
   20168:	1009883a 	mov	r4,r2
   2016c:	183ee83a 	callr	r3
#endif
        break;
   20170:	0001883a 	nop
  NIOS2_READ_IPENDING (active);
   20174:	0005313a 	rdctl	r2,ipending
   20178:	e0bffb15 	stw	r2,-20(fp)
  return active;
   2017c:	e0bffb17 	ldw	r2,-20(fp)
   20180:	00000706 	br	201a0 <alt_irq_handler+0xa4>
      }
      mask <<= 1;
   20184:	e0bffe17 	ldw	r2,-8(fp)
   20188:	1085883a 	add	r2,r2,r2
   2018c:	e0bffe15 	stw	r2,-8(fp)
      i++;
   20190:	e0bffd17 	ldw	r2,-12(fp)
   20194:	10800044 	addi	r2,r2,1
   20198:	e0bffd15 	stw	r2,-12(fp)
      if (active & mask)
   2019c:	003fe306 	br	2012c <alt_irq_handler+0x30>

    } while (1);

    active = alt_irq_pending ();
   201a0:	e0bfff15 	stw	r2,-4(fp)
    
  } while (active);
   201a4:	e0bfff17 	ldw	r2,-4(fp)
   201a8:	103fdd1e 	bne	r2,zero,20120 <alt_irq_handler+0x24>

  /*
   * Notify the operating system that interrupt processing is complete.
   */ 

  ALT_OS_INT_EXIT();
   201ac:	0001883a 	nop
}
   201b0:	0001883a 	nop
   201b4:	e037883a 	mov	sp,fp
   201b8:	dfc00117 	ldw	ra,4(sp)
   201bc:	df000017 	ldw	fp,0(sp)
   201c0:	dec00204 	addi	sp,sp,8
   201c4:	f800283a 	ret

000201c8 <alt_instruction_exception_entry>:
 * that handler if it has been registered. Absent a handler, it will
 * break break or hang as discussed below.
 */
int 
alt_instruction_exception_entry (alt_u32 exception_pc)
{
   201c8:	defffb04 	addi	sp,sp,-20
   201cc:	dfc00415 	stw	ra,16(sp)
   201d0:	df000315 	stw	fp,12(sp)
   201d4:	df000304 	addi	fp,sp,12
   201d8:	e13ffd15 	stw	r4,-12(fp)
 * NIOS2_EXCEPTION_CAUSE_NOT_PRESENT. Your handling routine should
 * check the validity of the cause argument before proceeding.
 */
#ifdef NIOS2_HAS_EXTRA_EXCEPTION_INFO
  /* Get exception cause & "badaddr" */
  NIOS2_READ_EXCEPTION(cause);
   201dc:	000531fa 	rdctl	r2,exception
   201e0:	e0bfff15 	stw	r2,-4(fp)
  cause = ( (cause & NIOS2_EXCEPTION_REG_CAUSE_MASK) >>
   201e4:	e0bfff17 	ldw	r2,-4(fp)
   201e8:	1004d0ba 	srli	r2,r2,2
   201ec:	108007cc 	andi	r2,r2,31
   201f0:	e0bfff15 	stw	r2,-4(fp)
              NIOS2_EXCEPTION_REG_CAUSE_OFST );

  NIOS2_READ_BADADDR(badaddr);
   201f4:	0005333a 	rdctl	r2,badaddr
   201f8:	e0bffe15 	stw	r2,-8(fp)
#else
  cause = NIOS2_EXCEPTION_CAUSE_NOT_PRESENT;
  badaddr = 0;
#endif /* NIOS2_HAS_EXTRA_EXCEPTION_INFO */

  if(alt_instruction_exception_handler) {
   201fc:	d0a72817 	ldw	r2,-25440(gp)
   20200:	10000726 	beq	r2,zero,20220 <alt_instruction_exception_entry+0x58>
     * Call handler. Its return value indicates whether the exception-causing
     * instruction should be re-issued. The code that called us,
     * alt_eceptions_entry.S, will look at this value and adjust the ea
     * register as necessary
     */
    return alt_instruction_exception_handler(cause, exception_pc, badaddr);
   20204:	d0a72817 	ldw	r2,-25440(gp)
   20208:	e0ffff17 	ldw	r3,-4(fp)
   2020c:	e1bffe17 	ldw	r6,-8(fp)
   20210:	e17ffd17 	ldw	r5,-12(fp)
   20214:	1809883a 	mov	r4,r3
   20218:	103ee83a 	callr	r2
   2021c:	00000206 	br	20228 <alt_instruction_exception_entry+0x60>
   *    (a peripheral which negates its interrupt output before its
   *    interrupt handler has been executed will cause spurious interrupts)
   */
  else {
#ifdef NIOS2_HAS_DEBUG_STUB
    NIOS2_BREAK();
   20220:	003da03a 	break	0
      ;
#endif /* NIOS2_HAS_DEBUG_STUB */
  }

  /* We should not get here. Remove compiler warning. */
  return NIOS2_EXCEPTION_RETURN_REISSUE_INST;
   20224:	0005883a 	mov	r2,zero
}
   20228:	e037883a 	mov	sp,fp
   2022c:	dfc00117 	ldw	ra,4(sp)
   20230:	df000017 	ldw	fp,0(sp)
   20234:	dec00204 	addi	sp,sp,8
   20238:	f800283a 	ret

Disassembly of section .text:

0002023c <_start>:

    /*
     * Now that the caches are initialized, set up the stack pointer and global pointer.
     * The values provided by the linker are assumed to be correctly aligned.
     */
    movhi sp, %hi(__alt_stack_pointer)
   2023c:	06c00134 	movhi	sp,4
    ori sp, sp, %lo(__alt_stack_pointer)
   20240:	dec00014 	ori	sp,sp,0
    movhi gp, %hi(_gp)
   20244:	068000f4 	movhi	gp,3
    ori gp, gp, %lo(_gp)
   20248:	d6aa3a14 	ori	gp,gp,43240
 */
#ifndef ALT_SIM_OPTIMIZE
    /* Log that the BSS is about to be cleared. */
    ALT_LOG_PUTS(alt_log_msg_bss)

    movhi r2, %hi(__bss_start)
   2024c:	008000f4 	movhi	r2,3
    ori r2, r2, %lo(__bss_start)
   20250:	10915414 	ori	r2,r2,17744

    movhi r3, %hi(__bss_end)
   20254:	00c000f4 	movhi	r3,3
    ori r3, r3, %lo(__bss_end)
   20258:	18d1ad14 	ori	r3,r3,18100

    beq r2, r3, 1f
   2025c:	10c00326 	beq	r2,r3,2026c <_start+0x30>

0:
    stw zero, (r2)
   20260:	10000015 	stw	zero,0(r2)
    addi r2, r2, 4
   20264:	10800104 	addi	r2,r2,4
    bltu r2, r3, 0b
   20268:	10fffd36 	bltu	r2,r3,20260 <_start+0x24>
     * section aren't defined until alt_load() has been called).
     */
    mov   et, zero
#endif

    call alt_load
   2026c:	002deb00 	call	2deb0 <alt_load>

    /* Log that alt_main is about to be called. */
    ALT_LOG_PUTS(alt_log_msg_alt_main)

    /* Call the C entry point. It should never return. */
    call alt_main
   20270:	002e0440 	call	2e044 <alt_main>

00020274 <alt_after_alt_main>:

    /* Wait in infinite loop in case alt_main does return. */
alt_after_alt_main:
    br alt_after_alt_main
   20274:	003fff06 	br	20274 <alt_after_alt_main>

00020278 <read_ADXL345_deviceID>:
 *      Author: razva
 */
#include "accelerometer.h"

void read_ADXL345_deviceID (alt_up_accelerometer_spi_dev *accelerometer_dev)
{
   20278:	defffa04 	addi	sp,sp,-24
   2027c:	dfc00515 	stw	ra,20(sp)
   20280:	df000415 	stw	fp,16(sp)
   20284:	df000404 	addi	fp,sp,16
   20288:	e13ffc15 	stw	r4,-16(fp)
    alt_u32 device_id_address = 0x00;	// Accelerometer ID address
   2028c:	e03fff15 	stw	zero,-4(fp)
    alt_u8 data = 0;
   20290:	e03ffdc5 	stb	zero,-9(fp)

    int error = alt_up_accelerometer_spi_read(accelerometer_dev, device_id_address, &data);
   20294:	e0bfff17 	ldw	r2,-4(fp)
   20298:	10803fcc 	andi	r2,r2,255
   2029c:	e0fffdc4 	addi	r3,fp,-9
   202a0:	180d883a 	mov	r6,r3
   202a4:	100b883a 	mov	r5,r2
   202a8:	e13ffc17 	ldw	r4,-16(fp)
   202ac:	002f0840 	call	2f084 <alt_up_accelerometer_spi_read>
   202b0:	e0bffe15 	stw	r2,-8(fp)

    if (!error)
   202b4:	e0bffe17 	ldw	r2,-8(fp)
   202b8:	1000071e 	bne	r2,zero,202d8 <read_ADXL345_deviceID+0x60>
    {
        printf("Accelerometer ID: 0x%X", data);
   202bc:	e0bffdc3 	ldbu	r2,-9(fp)
   202c0:	10803fcc 	andi	r2,r2,255
   202c4:	100b883a 	mov	r5,r2
   202c8:	010000f4 	movhi	r4,3
   202cc:	21017204 	addi	r4,r4,1480
   202d0:	0020a6c0 	call	20a6c <printf>
    }
    else
    	printf("Wrong Accelerometer ID\r\n");
}
   202d4:	00000306 	br	202e4 <read_ADXL345_deviceID+0x6c>
    	printf("Wrong Accelerometer ID\r\n");
   202d8:	010000f4 	movhi	r4,3
   202dc:	21017804 	addi	r4,r4,1504
   202e0:	0020b740 	call	20b74 <puts>
}
   202e4:	0001883a 	nop
   202e8:	e037883a 	mov	sp,fp
   202ec:	dfc00117 	ldw	ra,4(sp)
   202f0:	df000017 	ldw	fp,0(sp)
   202f4:	dec00204 	addi	sp,sp,8
   202f8:	f800283a 	ret

000202fc <print_accelerometer_axis>:

void print_accelerometer_axis(alt_up_accelerometer_spi_dev *accelerometer_dev)
{
   202fc:	defffa04 	addi	sp,sp,-24
   20300:	dfc00515 	stw	ra,20(sp)
   20304:	df000415 	stw	fp,16(sp)
   20308:	df000404 	addi	fp,sp,16
   2030c:	e13ffc15 	stw	r4,-16(fp)
	alt_32 x = 0;
   20310:	e03fff15 	stw	zero,-4(fp)
	alt_32 y = 0;
   20314:	e03ffe15 	stw	zero,-8(fp)
	alt_32 z = 0;
   20318:	e03ffd15 	stw	zero,-12(fp)
	alt_up_accelerometer_spi_read_x_axis(accelerometer_dev, &x);
   2031c:	e0bfff04 	addi	r2,fp,-4
   20320:	100b883a 	mov	r5,r2
   20324:	e13ffc17 	ldw	r4,-16(fp)
   20328:	002f1540 	call	2f154 <alt_up_accelerometer_spi_read_x_axis>
	alt_up_accelerometer_spi_read_y_axis(accelerometer_dev, &y);
   2032c:	e0bffe04 	addi	r2,fp,-8
   20330:	100b883a 	mov	r5,r2
   20334:	e13ffc17 	ldw	r4,-16(fp)
   20338:	002f2280 	call	2f228 <alt_up_accelerometer_spi_read_y_axis>
	alt_up_accelerometer_spi_read_z_axis(accelerometer_dev, &z);
   2033c:	e0bffd04 	addi	r2,fp,-12
   20340:	100b883a 	mov	r5,r2
   20344:	e13ffc17 	ldw	r4,-16(fp)
   20348:	002f2fc0 	call	2f2fc <alt_up_accelerometer_spi_read_z_axis>
	printf("x: %d, y: %d, z: %d \r\n", x, y, z);
   2034c:	e0bfff17 	ldw	r2,-4(fp)
   20350:	e0fffe17 	ldw	r3,-8(fp)
   20354:	e13ffd17 	ldw	r4,-12(fp)
   20358:	200f883a 	mov	r7,r4
   2035c:	180d883a 	mov	r6,r3
   20360:	100b883a 	mov	r5,r2
   20364:	010000f4 	movhi	r4,3
   20368:	21017e04 	addi	r4,r4,1528
   2036c:	0020a6c0 	call	20a6c <printf>
}
   20370:	0001883a 	nop
   20374:	e037883a 	mov	sp,fp
   20378:	dfc00117 	ldw	ra,4(sp)
   2037c:	df000017 	ldw	fp,0(sp)
   20380:	dec00204 	addi	sp,sp,8
   20384:	f800283a 	ret

00020388 <hysteresis>:

int hysteresis(int current_value, int *state) {
   20388:	defffd04 	addi	sp,sp,-12
   2038c:	df000215 	stw	fp,8(sp)
   20390:	df000204 	addi	fp,sp,8
   20394:	e13fff15 	stw	r4,-4(fp)
   20398:	e17ffe15 	stw	r5,-8(fp)
    if (*state == 0 && current_value > UPPER_THRESHOLD) {
   2039c:	e0bffe17 	ldw	r2,-8(fp)
   203a0:	10800017 	ldw	r2,0(r2)
   203a4:	1000071e 	bne	r2,zero,203c4 <hysteresis+0x3c>
   203a8:	e0bfff17 	ldw	r2,-4(fp)
   203ac:	10801e50 	cmplti	r2,r2,121
   203b0:	1000041e 	bne	r2,zero,203c4 <hysteresis+0x3c>
        *state = 1;
   203b4:	e0bffe17 	ldw	r2,-8(fp)
   203b8:	00c00044 	movi	r3,1
   203bc:	10c00015 	stw	r3,0(r2)
   203c0:	00001d06 	br	20438 <hysteresis+0xb0>
    } else if (*state == 1 && current_value < LOWER_THRESHOLD) {
   203c4:	e0bffe17 	ldw	r2,-8(fp)
   203c8:	10800017 	ldw	r2,0(r2)
   203cc:	10800058 	cmpnei	r2,r2,1
   203d0:	1000061e 	bne	r2,zero,203ec <hysteresis+0x64>
   203d4:	e0bfff17 	ldw	r2,-4(fp)
   203d8:	10801b88 	cmpgei	r2,r2,110
   203dc:	1000031e 	bne	r2,zero,203ec <hysteresis+0x64>
        *state = 0;
   203e0:	e0bffe17 	ldw	r2,-8(fp)
   203e4:	10000015 	stw	zero,0(r2)
   203e8:	00001306 	br	20438 <hysteresis+0xb0>
    } else if (*state == 0 && current_value < NEG_LOWER_THRESHOLD) {
   203ec:	e0bffe17 	ldw	r2,-8(fp)
   203f0:	10800017 	ldw	r2,0(r2)
   203f4:	1000071e 	bne	r2,zero,20414 <hysteresis+0x8c>
   203f8:	e0bfff17 	ldw	r2,-4(fp)
   203fc:	10bfe208 	cmpgei	r2,r2,-120
   20400:	1000041e 	bne	r2,zero,20414 <hysteresis+0x8c>
        *state = -1;
   20404:	e0bffe17 	ldw	r2,-8(fp)
   20408:	00ffffc4 	movi	r3,-1
   2040c:	10c00015 	stw	r3,0(r2)
   20410:	00000906 	br	20438 <hysteresis+0xb0>
    } else if (*state == -1 && current_value > NEG_UPPER_THRESHOLD) {
   20414:	e0bffe17 	ldw	r2,-8(fp)
   20418:	10800017 	ldw	r2,0(r2)
   2041c:	10bfffd8 	cmpnei	r2,r2,-1
   20420:	1000051e 	bne	r2,zero,20438 <hysteresis+0xb0>
   20424:	e0bfff17 	ldw	r2,-4(fp)
   20428:	10bfe4d0 	cmplti	r2,r2,-109
   2042c:	1000021e 	bne	r2,zero,20438 <hysteresis+0xb0>
        *state = 0;
   20430:	e0bffe17 	ldw	r2,-8(fp)
   20434:	10000015 	stw	zero,0(r2)
    }
    return *state;
   20438:	e0bffe17 	ldw	r2,-8(fp)
   2043c:	10800017 	ldw	r2,0(r2)
}
   20440:	e037883a 	mov	sp,fp
   20444:	df000017 	ldw	fp,0(sp)
   20448:	dec00104 	addi	sp,sp,4
   2044c:	f800283a 	ret

00020450 <getAdcValue>:


#include "adc.h"

unsigned int getAdcValue(alt_up_adc_dev * adc)
{
   20450:	defffd04 	addi	sp,sp,-12
   20454:	dfc00215 	stw	ra,8(sp)
   20458:	df000115 	stw	fp,4(sp)
   2045c:	df000104 	addi	fp,sp,4
   20460:	e13fff15 	stw	r4,-4(fp)
	alt_up_adc_update (adc);
   20464:	e0bfff17 	ldw	r2,-4(fp)
   20468:	10800a17 	ldw	r2,40(r2)
   2046c:	0007883a 	mov	r3,zero
   20470:	10c00035 	stwio	r3,0(r2)
	return alt_up_adc_read(adc, 0);
   20474:	000b883a 	mov	r5,zero
   20478:	e13fff17 	ldw	r4,-4(fp)
   2047c:	002f40c0 	call	2f40c <alt_up_adc_read>
}
   20480:	e037883a 	mov	sp,fp
   20484:	dfc00117 	ldw	ra,4(sp)
   20488:	df000017 	ldw	fp,0(sp)
   2048c:	dec00204 	addi	sp,sp,8
   20490:	f800283a 	ret

00020494 <main>:
alt_up_accelerometer_spi_dev* accelerometer_device = NULL;

alt_up_adc_dev* adc_device = NULL;

int main()
{
   20494:	defff704 	addi	sp,sp,-36
   20498:	dfc00815 	stw	ra,32(sp)
   2049c:	df000715 	stw	fp,28(sp)
   204a0:	df000704 	addi	fp,sp,28
	printf("Program start\r\n");
   204a4:	010000f4 	movhi	r4,3
   204a8:	21018404 	addi	r4,r4,1552
   204ac:	0020b740 	call	20b74 <puts>
	hex_init(TURN_OFF);
   204b0:	01003fc4 	movi	r4,255
   204b4:	002067c0 	call	2067c <hex_init>
	accelerometer_device = alt_up_accelerometer_spi_open_dev(ACCELEROMETER_SPI_0_NAME);
   204b8:	010000f4 	movhi	r4,3
   204bc:	21018804 	addi	r4,r4,1568
   204c0:	002f0040 	call	2f004 <alt_up_accelerometer_spi_open_dev>
   204c4:	d0a71a15 	stw	r2,-25496(gp)
	adc_device = alt_up_adc_open_dev(ADC_0_NAME);
   204c8:	010000f4 	movhi	r4,3
   204cc:	21018f04 	addi	r4,r4,1596
   204d0:	002f3d00 	call	2f3d0 <alt_up_adc_open_dev>
   204d4:	d0a71b15 	stw	r2,-25492(gp)
	if (adc_device != NULL)
   204d8:	d0a71b17 	ldw	r2,-25492(gp)
   204dc:	10000326 	beq	r2,zero,204ec <main+0x58>
		printf("ADC Device is initialised \r\n");
   204e0:	010000f4 	movhi	r4,3
   204e4:	21019204 	addi	r4,r4,1608
   204e8:	0020b740 	call	20b74 <puts>
	read_ADXL345_deviceID(accelerometer_device);
   204ec:	d0a71a17 	ldw	r2,-25496(gp)
   204f0:	1009883a 	mov	r4,r2
   204f4:	00202780 	call	20278 <read_ADXL345_deviceID>

	alt_32 y = 512, x = 512;
   204f8:	00808004 	movi	r2,512
   204fc:	e0bffb15 	stw	r2,-20(fp)
   20500:	00808004 	movi	r2,512
   20504:	e0bffa15 	stw	r2,-24(fp)
	int state = 0;
   20508:	e03ff915 	stw	zero,-28(fp)
	while(1)
	{
		alt_up_accelerometer_spi_read_x_axis(accelerometer_device, &x);
   2050c:	d0a71a17 	ldw	r2,-25496(gp)
   20510:	e0fffa04 	addi	r3,fp,-24
   20514:	180b883a 	mov	r5,r3
   20518:	1009883a 	mov	r4,r2
   2051c:	002f1540 	call	2f154 <alt_up_accelerometer_spi_read_x_axis>
		alt_up_accelerometer_spi_read_y_axis(accelerometer_device, &y);
   20520:	d0a71a17 	ldw	r2,-25496(gp)
   20524:	e0fffb04 	addi	r3,fp,-20
   20528:	180b883a 	mov	r5,r3
   2052c:	1009883a 	mov	r4,r2
   20530:	002f2280 	call	2f228 <alt_up_accelerometer_spi_read_y_axis>
		int index = (x + 255) / 86;
   20534:	e0bffa17 	ldw	r2,-24(fp)
   20538:	10803fc4 	addi	r2,r2,255
   2053c:	01401584 	movi	r5,86
   20540:	1009883a 	mov	r4,r2
   20544:	00208880 	call	20888 <__divsi3>
   20548:	e0bffe15 	stw	r2,-8(fp)
		x = (index < 0) ? 0 : (index >= 6) ? 5 : index;
   2054c:	e0bffe17 	ldw	r2,-8(fp)
   20550:	10000516 	blt	r2,zero,20568 <main+0xd4>
   20554:	e0bffe17 	ldw	r2,-8(fp)
   20558:	10c00190 	cmplti	r3,r2,6
   2055c:	1800031e 	bne	r3,zero,2056c <main+0xd8>
   20560:	00800144 	movi	r2,5
   20564:	00000106 	br	2056c <main+0xd8>
   20568:	0005883a 	mov	r2,zero
   2056c:	e0bffa15 	stw	r2,-24(fp)
		int current_state = hysteresis(y, &state);
   20570:	e0bffb17 	ldw	r2,-20(fp)
   20574:	e0fff904 	addi	r3,fp,-28
   20578:	180b883a 	mov	r5,r3
   2057c:	1009883a 	mov	r4,r2
   20580:	00203880 	call	20388 <hysteresis>
   20584:	e0bffd15 	stw	r2,-12(fp)

		if (current_state == 1)
   20588:	e0bffd17 	ldw	r2,-12(fp)
   2058c:	10800058 	cmpnei	r2,r2,1
   20590:	1000061e 	bne	r2,zero,205ac <main+0x118>
			set_hex_value(TURN_ON_DOWN_LEDS, x);
   20594:	e0bffa17 	ldw	r2,-24(fp)
   20598:	10803fcc 	andi	r2,r2,255
   2059c:	100b883a 	mov	r5,r2
   205a0:	010028c4 	movi	r4,163
   205a4:	00206e00 	call	206e0 <set_hex_value>
   205a8:	00000e06 	br	205e4 <main+0x150>
		else if (current_state == -1)
   205ac:	e0bffd17 	ldw	r2,-12(fp)
   205b0:	10bfffd8 	cmpnei	r2,r2,-1
   205b4:	1000061e 	bne	r2,zero,205d0 <main+0x13c>
			set_hex_value(TURN_ON_UP_LEDS, x);
   205b8:	e0bffa17 	ldw	r2,-24(fp)
   205bc:	10803fcc 	andi	r2,r2,255
   205c0:	100b883a 	mov	r5,r2
   205c4:	01002704 	movi	r4,156
   205c8:	00206e00 	call	206e0 <set_hex_value>
   205cc:	00000506 	br	205e4 <main+0x150>
		else
			set_hex_value(TURN_ON_MIDDLE_LINE, x);
   205d0:	e0bffa17 	ldw	r2,-24(fp)
   205d4:	10803fcc 	andi	r2,r2,255
   205d8:	100b883a 	mov	r5,r2
   205dc:	01002fc4 	movi	r4,191
   205e0:	00206e00 	call	206e0 <set_hex_value>

		for (int i = 0; i < 6; i++) { if (i != x) { set_hex_value(0xFF, i); } };
   205e4:	e03fff15 	stw	zero,-4(fp)
   205e8:	00000b06 	br	20618 <main+0x184>
   205ec:	e0bffa17 	ldw	r2,-24(fp)
   205f0:	e0ffff17 	ldw	r3,-4(fp)
   205f4:	18800526 	beq	r3,r2,2060c <main+0x178>
   205f8:	e0bfff17 	ldw	r2,-4(fp)
   205fc:	10803fcc 	andi	r2,r2,255
   20600:	100b883a 	mov	r5,r2
   20604:	01003fc4 	movi	r4,255
   20608:	00206e00 	call	206e0 <set_hex_value>
   2060c:	e0bfff17 	ldw	r2,-4(fp)
   20610:	10800044 	addi	r2,r2,1
   20614:	e0bfff15 	stw	r2,-4(fp)
   20618:	e0bfff17 	ldw	r2,-4(fp)
   2061c:	10800190 	cmplti	r2,r2,6
   20620:	103ff21e 	bne	r2,zero,205ec <main+0x158>
		int x = getAdcValue(adc_device);
   20624:	d0a71b17 	ldw	r2,-25492(gp)
   20628:	1009883a 	mov	r4,r2
   2062c:	00204500 	call	20450 <getAdcValue>
   20630:	e0bffc15 	stw	r2,-16(fp)
		printf("adc value: %d \r\n", x);
   20634:	e17ffc17 	ldw	r5,-16(fp)
   20638:	010000f4 	movhi	r4,3
   2063c:	21019904 	addi	r4,r4,1636
   20640:	0020a6c0 	call	20a6c <printf>
		usleep(10000);
   20644:	0109c404 	movi	r4,10000
   20648:	002e3500 	call	2e350 <usleep>
	{
   2064c:	003faf06 	br	2050c <main+0x78>

00020650 <get_hex_address>:
#include "hex_displays.h"

volatile uint32_t* get_hex_address(int hex_index)
{
   20650:	defffe04 	addi	sp,sp,-8
   20654:	df000115 	stw	fp,4(sp)
   20658:	df000104 	addi	fp,sp,4
   2065c:	e13fff15 	stw	r4,-4(fp)
    return (volatile uint32_t*)(HEX_BASE_ADDR + hex_index * HEX_OFFSET);
   20660:	e0bfff17 	ldw	r2,-4(fp)
   20664:	10904044 	addi	r2,r2,16641
   20668:	1004913a 	slli	r2,r2,4
}
   2066c:	e037883a 	mov	sp,fp
   20670:	df000017 	ldw	fp,0(sp)
   20674:	dec00104 	addi	sp,sp,4
   20678:	f800283a 	ret

0002067c <hex_init>:

void hex_init (uint32_t hexState)
{
   2067c:	defffc04 	addi	sp,sp,-16
   20680:	dfc00315 	stw	ra,12(sp)
   20684:	df000215 	stw	fp,8(sp)
   20688:	df000204 	addi	fp,sp,8
   2068c:	e13ffe15 	stw	r4,-8(fp)
	for(int i = 0; i < 6; i++)
   20690:	e03fff15 	stw	zero,-4(fp)
   20694:	00000806 	br	206b8 <hex_init+0x3c>
	{
		IOWR_ALTERA_AVALON_PIO_DATA(get_hex_address(i), hexState);
   20698:	e13fff17 	ldw	r4,-4(fp)
   2069c:	00206500 	call	20650 <get_hex_address>
   206a0:	1007883a 	mov	r3,r2
   206a4:	e0bffe17 	ldw	r2,-8(fp)
   206a8:	18800035 	stwio	r2,0(r3)
	for(int i = 0; i < 6; i++)
   206ac:	e0bfff17 	ldw	r2,-4(fp)
   206b0:	10800044 	addi	r2,r2,1
   206b4:	e0bfff15 	stw	r2,-4(fp)
   206b8:	e0bfff17 	ldw	r2,-4(fp)
   206bc:	10800190 	cmplti	r2,r2,6
   206c0:	103ff51e 	bne	r2,zero,20698 <hex_init+0x1c>
	}
}
   206c4:	0001883a 	nop
   206c8:	0001883a 	nop
   206cc:	e037883a 	mov	sp,fp
   206d0:	dfc00117 	ldw	ra,4(sp)
   206d4:	df000017 	ldw	fp,0(sp)
   206d8:	dec00204 	addi	sp,sp,8
   206dc:	f800283a 	ret

000206e0 <set_hex_value>:

void set_hex_value (alt_u8 value, alt_u8 hex_index) {
   206e0:	defffc04 	addi	sp,sp,-16
   206e4:	dfc00315 	stw	ra,12(sp)
   206e8:	df000215 	stw	fp,8(sp)
   206ec:	df000204 	addi	fp,sp,8
   206f0:	2005883a 	mov	r2,r4
   206f4:	2807883a 	mov	r3,r5
   206f8:	e0bfff05 	stb	r2,-4(fp)
   206fc:	1805883a 	mov	r2,r3
   20700:	e0bffe05 	stb	r2,-8(fp)
	IOWR_ALTERA_AVALON_PIO_DATA(get_hex_address(hex_index), value);
   20704:	e0bffe03 	ldbu	r2,-8(fp)
   20708:	1009883a 	mov	r4,r2
   2070c:	00206500 	call	20650 <get_hex_address>
   20710:	1007883a 	mov	r3,r2
   20714:	e0bfff03 	ldbu	r2,-4(fp)
   20718:	18800035 	stwio	r2,0(r3)
}
   2071c:	0001883a 	nop
   20720:	e037883a 	mov	sp,fp
   20724:	dfc00117 	ldw	ra,4(sp)
   20728:	df000017 	ldw	fp,0(sp)
   2072c:	dec00204 	addi	sp,sp,8
   20730:	f800283a 	ret

00020734 <set_hex_state>:

void set_hex_state (alt_u8 state, alt_u8 hex_index)
{
   20734:	defffc04 	addi	sp,sp,-16
   20738:	dfc00315 	stw	ra,12(sp)
   2073c:	df000215 	stw	fp,8(sp)
   20740:	df000204 	addi	fp,sp,8
   20744:	2005883a 	mov	r2,r4
   20748:	2807883a 	mov	r3,r5
   2074c:	e0bfff05 	stb	r2,-4(fp)
   20750:	1805883a 	mov	r2,r3
   20754:	e0bffe05 	stb	r2,-8(fp)
	if(state)
   20758:	e0bfff03 	ldbu	r2,-4(fp)
   2075c:	10000726 	beq	r2,zero,2077c <set_hex_state+0x48>
		IOWR_ALTERA_AVALON_PIO_DATA(get_hex_address(hex_index), TURN_ON);	// Turn on 7Segment Display
   20760:	e0bffe03 	ldbu	r2,-8(fp)
   20764:	1009883a 	mov	r4,r2
   20768:	00206500 	call	20650 <get_hex_address>
   2076c:	1007883a 	mov	r3,r2
   20770:	00802004 	movi	r2,128
   20774:	18800035 	stwio	r2,0(r3)
	else
		IOWR_ALTERA_AVALON_PIO_DATA(get_hex_address(hex_index), TURN_OFF);	// Turn off 7Segment Display
}
   20778:	00000606 	br	20794 <set_hex_state+0x60>
		IOWR_ALTERA_AVALON_PIO_DATA(get_hex_address(hex_index), TURN_OFF);	// Turn off 7Segment Display
   2077c:	e0bffe03 	ldbu	r2,-8(fp)
   20780:	1009883a 	mov	r4,r2
   20784:	00206500 	call	20650 <get_hex_address>
   20788:	1007883a 	mov	r3,r2
   2078c:	00803fc4 	movi	r2,255
   20790:	18800035 	stwio	r2,0(r3)
}
   20794:	0001883a 	nop
   20798:	e037883a 	mov	sp,fp
   2079c:	dfc00117 	ldw	ra,4(sp)
   207a0:	df000017 	ldw	fp,0(sp)
   207a4:	dec00204 	addi	sp,sp,8
   207a8:	f800283a 	ret

000207ac <test_hex_displays>:
 */

#include "hex_displays.h"

void test_hex_displays()
{
   207ac:	defffa04 	addi	sp,sp,-24
   207b0:	dfc00515 	stw	ra,20(sp)
   207b4:	df000415 	stw	fp,16(sp)
   207b8:	df000404 	addi	fp,sp,16
	for(int i = 0; i < 6; i++)
   207bc:	e03fff15 	stw	zero,-4(fp)
   207c0:	00001106 	br	20808 <test_hex_displays+0x5c>
	{
		set_hex_value(1, i);
   207c4:	e0bfff17 	ldw	r2,-4(fp)
   207c8:	10803fcc 	andi	r2,r2,255
   207cc:	100b883a 	mov	r5,r2
   207d0:	01000044 	movi	r4,1
   207d4:	00206e00 	call	206e0 <set_hex_value>
		for(int j = 0; j < 1000000; j++)
   207d8:	e03ffe15 	stw	zero,-8(fp)
   207dc:	00000306 	br	207ec <test_hex_displays+0x40>
   207e0:	e0bffe17 	ldw	r2,-8(fp)
   207e4:	10800044 	addi	r2,r2,1
   207e8:	e0bffe15 	stw	r2,-8(fp)
   207ec:	e0fffe17 	ldw	r3,-8(fp)
   207f0:	008003f4 	movhi	r2,15
   207f4:	10908fc4 	addi	r2,r2,16959
   207f8:	10fff90e 	bge	r2,r3,207e0 <test_hex_displays+0x34>
	for(int i = 0; i < 6; i++)
   207fc:	e0bfff17 	ldw	r2,-4(fp)
   20800:	10800044 	addi	r2,r2,1
   20804:	e0bfff15 	stw	r2,-4(fp)
   20808:	e0bfff17 	ldw	r2,-4(fp)
   2080c:	10800190 	cmplti	r2,r2,6
   20810:	103fec1e 	bne	r2,zero,207c4 <test_hex_displays+0x18>
			;
	}
	for(int i = 0; i < 6; i++)
   20814:	e03ffd15 	stw	zero,-12(fp)
   20818:	00001106 	br	20860 <test_hex_displays+0xb4>
		{
			set_hex_value(0, i);
   2081c:	e0bffd17 	ldw	r2,-12(fp)
   20820:	10803fcc 	andi	r2,r2,255
   20824:	100b883a 	mov	r5,r2
   20828:	0009883a 	mov	r4,zero
   2082c:	00206e00 	call	206e0 <set_hex_value>
			for(int j = 0; j < 1000000; j++)
   20830:	e03ffc15 	stw	zero,-16(fp)
   20834:	00000306 	br	20844 <test_hex_displays+0x98>
   20838:	e0bffc17 	ldw	r2,-16(fp)
   2083c:	10800044 	addi	r2,r2,1
   20840:	e0bffc15 	stw	r2,-16(fp)
   20844:	e0fffc17 	ldw	r3,-16(fp)
   20848:	008003f4 	movhi	r2,15
   2084c:	10908fc4 	addi	r2,r2,16959
   20850:	10fff90e 	bge	r2,r3,20838 <test_hex_displays+0x8c>
	for(int i = 0; i < 6; i++)
   20854:	e0bffd17 	ldw	r2,-12(fp)
   20858:	10800044 	addi	r2,r2,1
   2085c:	e0bffd15 	stw	r2,-12(fp)
   20860:	e0bffd17 	ldw	r2,-12(fp)
   20864:	10800190 	cmplti	r2,r2,6
   20868:	103fec1e 	bne	r2,zero,2081c <test_hex_displays+0x70>
				;
		}
}
   2086c:	0001883a 	nop
   20870:	0001883a 	nop
   20874:	e037883a 	mov	sp,fp
   20878:	dfc00117 	ldw	ra,4(sp)
   2087c:	df000017 	ldw	fp,0(sp)
   20880:	dec00204 	addi	sp,sp,8
   20884:	f800283a 	ret

00020888 <__divsi3>:
   20888:	20001a16 	blt	r4,zero,208f4 <__divsi3+0x6c>
   2088c:	000f883a 	mov	r7,zero
   20890:	2800020e 	bge	r5,zero,2089c <__divsi3+0x14>
   20894:	014bc83a 	sub	r5,zero,r5
   20898:	39c0005c 	xori	r7,r7,1
   2089c:	200d883a 	mov	r6,r4
   208a0:	00c00044 	movi	r3,1
   208a4:	2900092e 	bgeu	r5,r4,208cc <__divsi3+0x44>
   208a8:	00800804 	movi	r2,32
   208ac:	00c00044 	movi	r3,1
   208b0:	00000106 	br	208b8 <__divsi3+0x30>
   208b4:	10001226 	beq	r2,zero,20900 <__divsi3+0x78>
   208b8:	294b883a 	add	r5,r5,r5
   208bc:	10bfffc4 	addi	r2,r2,-1
   208c0:	18c7883a 	add	r3,r3,r3
   208c4:	293ffb36 	bltu	r5,r4,208b4 <__divsi3+0x2c>
   208c8:	18000d26 	beq	r3,zero,20900 <__divsi3+0x78>
   208cc:	0005883a 	mov	r2,zero
   208d0:	31400236 	bltu	r6,r5,208dc <__divsi3+0x54>
   208d4:	314dc83a 	sub	r6,r6,r5
   208d8:	10c4b03a 	or	r2,r2,r3
   208dc:	1806d07a 	srli	r3,r3,1
   208e0:	280ad07a 	srli	r5,r5,1
   208e4:	183ffa1e 	bne	r3,zero,208d0 <__divsi3+0x48>
   208e8:	38000126 	beq	r7,zero,208f0 <__divsi3+0x68>
   208ec:	0085c83a 	sub	r2,zero,r2
   208f0:	f800283a 	ret
   208f4:	0109c83a 	sub	r4,zero,r4
   208f8:	01c00044 	movi	r7,1
   208fc:	003fe406 	br	20890 <__divsi3+0x8>
   20900:	0005883a 	mov	r2,zero
   20904:	003ff806 	br	208e8 <__divsi3+0x60>

00020908 <__modsi3>:
   20908:	20001716 	blt	r4,zero,20968 <__modsi3+0x60>
   2090c:	000f883a 	mov	r7,zero
   20910:	2005883a 	mov	r2,r4
   20914:	2800010e 	bge	r5,zero,2091c <__modsi3+0x14>
   20918:	014bc83a 	sub	r5,zero,r5
   2091c:	00c00044 	movi	r3,1
   20920:	2900092e 	bgeu	r5,r4,20948 <__modsi3+0x40>
   20924:	01800804 	movi	r6,32
   20928:	00c00044 	movi	r3,1
   2092c:	00000106 	br	20934 <__modsi3+0x2c>
   20930:	30001026 	beq	r6,zero,20974 <__modsi3+0x6c>
   20934:	294b883a 	add	r5,r5,r5
   20938:	31bfffc4 	addi	r6,r6,-1
   2093c:	18c7883a 	add	r3,r3,r3
   20940:	293ffb36 	bltu	r5,r4,20930 <__modsi3+0x28>
   20944:	18000b26 	beq	r3,zero,20974 <__modsi3+0x6c>
   20948:	1806d07a 	srli	r3,r3,1
   2094c:	11400136 	bltu	r2,r5,20954 <__modsi3+0x4c>
   20950:	1145c83a 	sub	r2,r2,r5
   20954:	280ad07a 	srli	r5,r5,1
   20958:	183ffb1e 	bne	r3,zero,20948 <__modsi3+0x40>
   2095c:	38000126 	beq	r7,zero,20964 <__modsi3+0x5c>
   20960:	0085c83a 	sub	r2,zero,r2
   20964:	f800283a 	ret
   20968:	0109c83a 	sub	r4,zero,r4
   2096c:	01c00044 	movi	r7,1
   20970:	003fe706 	br	20910 <__modsi3+0x8>
   20974:	2005883a 	mov	r2,r4
   20978:	003ff806 	br	2095c <__modsi3+0x54>

0002097c <__udivsi3>:
   2097c:	200d883a 	mov	r6,r4
   20980:	2900152e 	bgeu	r5,r4,209d8 <__udivsi3+0x5c>
   20984:	28001416 	blt	r5,zero,209d8 <__udivsi3+0x5c>
   20988:	00800804 	movi	r2,32
   2098c:	00c00044 	movi	r3,1
   20990:	00000206 	br	2099c <__udivsi3+0x20>
   20994:	10000e26 	beq	r2,zero,209d0 <__udivsi3+0x54>
   20998:	28000416 	blt	r5,zero,209ac <__udivsi3+0x30>
   2099c:	294b883a 	add	r5,r5,r5
   209a0:	10bfffc4 	addi	r2,r2,-1
   209a4:	18c7883a 	add	r3,r3,r3
   209a8:	293ffa36 	bltu	r5,r4,20994 <__udivsi3+0x18>
   209ac:	18000826 	beq	r3,zero,209d0 <__udivsi3+0x54>
   209b0:	0005883a 	mov	r2,zero
   209b4:	31400236 	bltu	r6,r5,209c0 <__udivsi3+0x44>
   209b8:	314dc83a 	sub	r6,r6,r5
   209bc:	10c4b03a 	or	r2,r2,r3
   209c0:	1806d07a 	srli	r3,r3,1
   209c4:	280ad07a 	srli	r5,r5,1
   209c8:	183ffa1e 	bne	r3,zero,209b4 <__udivsi3+0x38>
   209cc:	f800283a 	ret
   209d0:	0005883a 	mov	r2,zero
   209d4:	f800283a 	ret
   209d8:	00c00044 	movi	r3,1
   209dc:	003ff406 	br	209b0 <__udivsi3+0x34>

000209e0 <__umodsi3>:
   209e0:	2005883a 	mov	r2,r4
   209e4:	2900132e 	bgeu	r5,r4,20a34 <__umodsi3+0x54>
   209e8:	28001216 	blt	r5,zero,20a34 <__umodsi3+0x54>
   209ec:	01800804 	movi	r6,32
   209f0:	00c00044 	movi	r3,1
   209f4:	00000206 	br	20a00 <__umodsi3+0x20>
   209f8:	30000c26 	beq	r6,zero,20a2c <__umodsi3+0x4c>
   209fc:	28000416 	blt	r5,zero,20a10 <__umodsi3+0x30>
   20a00:	294b883a 	add	r5,r5,r5
   20a04:	31bfffc4 	addi	r6,r6,-1
   20a08:	18c7883a 	add	r3,r3,r3
   20a0c:	293ffa36 	bltu	r5,r4,209f8 <__umodsi3+0x18>
   20a10:	18000626 	beq	r3,zero,20a2c <__umodsi3+0x4c>
   20a14:	1806d07a 	srli	r3,r3,1
   20a18:	11400136 	bltu	r2,r5,20a20 <__umodsi3+0x40>
   20a1c:	1145c83a 	sub	r2,r2,r5
   20a20:	280ad07a 	srli	r5,r5,1
   20a24:	183ffb1e 	bne	r3,zero,20a14 <__umodsi3+0x34>
   20a28:	f800283a 	ret
   20a2c:	2005883a 	mov	r2,r4
   20a30:	f800283a 	ret
   20a34:	00c00044 	movi	r3,1
   20a38:	003ff606 	br	20a14 <__umodsi3+0x34>

00020a3c <_printf_r>:
   20a3c:	defffd04 	addi	sp,sp,-12
   20a40:	2805883a 	mov	r2,r5
   20a44:	dfc00015 	stw	ra,0(sp)
   20a48:	d9800115 	stw	r6,4(sp)
   20a4c:	d9c00215 	stw	r7,8(sp)
   20a50:	21400217 	ldw	r5,8(r4)
   20a54:	d9c00104 	addi	r7,sp,4
   20a58:	100d883a 	mov	r6,r2
   20a5c:	0020c1c0 	call	20c1c <___vfprintf_internal_r>
   20a60:	dfc00017 	ldw	ra,0(sp)
   20a64:	dec00304 	addi	sp,sp,12
   20a68:	f800283a 	ret

00020a6c <printf>:
   20a6c:	defffc04 	addi	sp,sp,-16
   20a70:	dfc00015 	stw	ra,0(sp)
   20a74:	d9400115 	stw	r5,4(sp)
   20a78:	d9800215 	stw	r6,8(sp)
   20a7c:	d9c00315 	stw	r7,12(sp)
   20a80:	008000f4 	movhi	r2,3
   20a84:	108a3b17 	ldw	r2,10476(r2)
   20a88:	200b883a 	mov	r5,r4
   20a8c:	d9800104 	addi	r6,sp,4
   20a90:	11000217 	ldw	r4,8(r2)
   20a94:	0022fc40 	call	22fc4 <__vfprintf_internal>
   20a98:	dfc00017 	ldw	ra,0(sp)
   20a9c:	dec00404 	addi	sp,sp,16
   20aa0:	f800283a 	ret

00020aa4 <_puts_r>:
   20aa4:	defff504 	addi	sp,sp,-44
   20aa8:	dc000815 	stw	r16,32(sp)
   20aac:	2021883a 	mov	r16,r4
   20ab0:	2809883a 	mov	r4,r5
   20ab4:	dc400915 	stw	r17,36(sp)
   20ab8:	dfc00a15 	stw	ra,40(sp)
   20abc:	2823883a 	mov	r17,r5
   20ac0:	0020b840 	call	20b84 <strlen>
   20ac4:	11000044 	addi	r4,r2,1
   20ac8:	d8800515 	stw	r2,20(sp)
   20acc:	00800044 	movi	r2,1
   20ad0:	00c000f4 	movhi	r3,3
   20ad4:	d8800715 	stw	r2,28(sp)
   20ad8:	d8800404 	addi	r2,sp,16
   20adc:	18c19e04 	addi	r3,r3,1656
   20ae0:	d8800115 	stw	r2,4(sp)
   20ae4:	00800084 	movi	r2,2
   20ae8:	dc400415 	stw	r17,16(sp)
   20aec:	d8c00615 	stw	r3,24(sp)
   20af0:	d9000315 	stw	r4,12(sp)
   20af4:	d8800215 	stw	r2,8(sp)
   20af8:	81400217 	ldw	r5,8(r16)
   20afc:	80000226 	beq	r16,zero,20b08 <_puts_r+0x64>
   20b00:	80800e17 	ldw	r2,56(r16)
   20b04:	10001426 	beq	r2,zero,20b58 <_puts_r+0xb4>
   20b08:	2880030b 	ldhu	r2,12(r5)
   20b0c:	10c8000c 	andi	r3,r2,8192
   20b10:	1800061e 	bne	r3,zero,20b2c <_puts_r+0x88>
   20b14:	28c01917 	ldw	r3,100(r5)
   20b18:	0137ffc4 	movi	r4,-8193
   20b1c:	10880014 	ori	r2,r2,8192
   20b20:	1906703a 	and	r3,r3,r4
   20b24:	2880030d 	sth	r2,12(r5)
   20b28:	28c01915 	stw	r3,100(r5)
   20b2c:	d9800104 	addi	r6,sp,4
   20b30:	8009883a 	mov	r4,r16
   20b34:	00256680 	call	25668 <__sfvwrite_r>
   20b38:	1007883a 	mov	r3,r2
   20b3c:	00800284 	movi	r2,10
   20b40:	18000a1e 	bne	r3,zero,20b6c <_puts_r+0xc8>
   20b44:	dfc00a17 	ldw	ra,40(sp)
   20b48:	dc400917 	ldw	r17,36(sp)
   20b4c:	dc000817 	ldw	r16,32(sp)
   20b50:	dec00b04 	addi	sp,sp,44
   20b54:	f800283a 	ret
   20b58:	8009883a 	mov	r4,r16
   20b5c:	d9400015 	stw	r5,0(sp)
   20b60:	00251f40 	call	251f4 <__sinit>
   20b64:	d9400017 	ldw	r5,0(sp)
   20b68:	003fe706 	br	20b08 <_puts_r+0x64>
   20b6c:	00bfffc4 	movi	r2,-1
   20b70:	003ff406 	br	20b44 <_puts_r+0xa0>

00020b74 <puts>:
   20b74:	008000f4 	movhi	r2,3
   20b78:	200b883a 	mov	r5,r4
   20b7c:	110a3b17 	ldw	r4,10476(r2)
   20b80:	0020aa41 	jmpi	20aa4 <_puts_r>

00020b84 <strlen>:
   20b84:	208000cc 	andi	r2,r4,3
   20b88:	10000926 	beq	r2,zero,20bb0 <strlen+0x2c>
   20b8c:	2005883a 	mov	r2,r4
   20b90:	00000306 	br	20ba0 <strlen+0x1c>
   20b94:	10800044 	addi	r2,r2,1
   20b98:	10c000cc 	andi	r3,r2,3
   20b9c:	18000526 	beq	r3,zero,20bb4 <strlen+0x30>
   20ba0:	10c00007 	ldb	r3,0(r2)
   20ba4:	183ffb1e 	bne	r3,zero,20b94 <strlen+0x10>
   20ba8:	1105c83a 	sub	r2,r2,r4
   20bac:	f800283a 	ret
   20bb0:	2005883a 	mov	r2,r4
   20bb4:	11400017 	ldw	r5,0(r2)
   20bb8:	01ffbff4 	movhi	r7,65279
   20bbc:	39ffbfc4 	addi	r7,r7,-257
   20bc0:	29c7883a 	add	r3,r5,r7
   20bc4:	01a02074 	movhi	r6,32897
   20bc8:	014a303a 	nor	r5,zero,r5
   20bcc:	1946703a 	and	r3,r3,r5
   20bd0:	31a02004 	addi	r6,r6,-32640
   20bd4:	1986703a 	and	r3,r3,r6
   20bd8:	1800071e 	bne	r3,zero,20bf8 <strlen+0x74>
   20bdc:	11400117 	ldw	r5,4(r2)
   20be0:	10800104 	addi	r2,r2,4
   20be4:	29c7883a 	add	r3,r5,r7
   20be8:	014a303a 	nor	r5,zero,r5
   20bec:	1946703a 	and	r3,r3,r5
   20bf0:	1986703a 	and	r3,r3,r6
   20bf4:	183ff926 	beq	r3,zero,20bdc <strlen+0x58>
   20bf8:	10c00007 	ldb	r3,0(r2)
   20bfc:	183fea26 	beq	r3,zero,20ba8 <strlen+0x24>
   20c00:	10c00047 	ldb	r3,1(r2)
   20c04:	10800044 	addi	r2,r2,1
   20c08:	183fe726 	beq	r3,zero,20ba8 <strlen+0x24>
   20c0c:	10c00047 	ldb	r3,1(r2)
   20c10:	10800044 	addi	r2,r2,1
   20c14:	183ffa1e 	bne	r3,zero,20c00 <strlen+0x7c>
   20c18:	003fe306 	br	20ba8 <strlen+0x24>

00020c1c <___vfprintf_internal_r>:
   20c1c:	deffbc04 	addi	sp,sp,-272
   20c20:	dfc04315 	stw	ra,268(sp)
   20c24:	dc803c15 	stw	r18,240(sp)
   20c28:	dc003a15 	stw	r16,232(sp)
   20c2c:	d9000515 	stw	r4,20(sp)
   20c30:	2021883a 	mov	r16,r4
   20c34:	d9400415 	stw	r5,16(sp)
   20c38:	3025883a 	mov	r18,r6
   20c3c:	d9c00715 	stw	r7,28(sp)
   20c40:	df004215 	stw	fp,264(sp)
   20c44:	ddc04115 	stw	r23,260(sp)
   20c48:	dd804015 	stw	r22,256(sp)
   20c4c:	dd403f15 	stw	r21,252(sp)
   20c50:	dd003e15 	stw	r20,248(sp)
   20c54:	dcc03d15 	stw	r19,244(sp)
   20c58:	dc403b15 	stw	r17,236(sp)
   20c5c:	0025c540 	call	25c54 <_localeconv_r>
   20c60:	10800017 	ldw	r2,0(r2)
   20c64:	1009883a 	mov	r4,r2
   20c68:	d8800d15 	stw	r2,52(sp)
   20c6c:	0020b840 	call	20b84 <strlen>
   20c70:	d8800c15 	stw	r2,48(sp)
   20c74:	80000226 	beq	r16,zero,20c80 <___vfprintf_internal_r+0x64>
   20c78:	80800e17 	ldw	r2,56(r16)
   20c7c:	10022b26 	beq	r2,zero,2152c <___vfprintf_internal_r+0x910>
   20c80:	d9400417 	ldw	r5,16(sp)
   20c84:	2880030b 	ldhu	r2,12(r5)
   20c88:	10c8000c 	andi	r3,r2,8192
   20c8c:	1800071e 	bne	r3,zero,20cac <___vfprintf_internal_r+0x90>
   20c90:	28c01917 	ldw	r3,100(r5)
   20c94:	11080014 	ori	r4,r2,8192
   20c98:	00b7ffc4 	movi	r2,-8193
   20c9c:	1886703a 	and	r3,r3,r2
   20ca0:	2900030d 	sth	r4,12(r5)
   20ca4:	2005883a 	mov	r2,r4
   20ca8:	28c01915 	stw	r3,100(r5)
   20cac:	10c0020c 	andi	r3,r2,8
   20cb0:	1800f626 	beq	r3,zero,2108c <___vfprintf_internal_r+0x470>
   20cb4:	d8c00417 	ldw	r3,16(sp)
   20cb8:	18c00417 	ldw	r3,16(r3)
   20cbc:	1800f326 	beq	r3,zero,2108c <___vfprintf_internal_r+0x470>
   20cc0:	1080068c 	andi	r2,r2,26
   20cc4:	10800298 	cmpnei	r2,r2,10
   20cc8:	1000f926 	beq	r2,zero,210b0 <___vfprintf_internal_r+0x494>
   20ccc:	dc402a04 	addi	r17,sp,168
   20cd0:	04c000f4 	movhi	r19,3
   20cd4:	9029883a 	mov	r20,r18
   20cd8:	dc401d15 	stw	r17,116(sp)
   20cdc:	d8001f15 	stw	zero,124(sp)
   20ce0:	d8001e15 	stw	zero,120(sp)
   20ce4:	d8000915 	stw	zero,36(sp)
   20ce8:	d8000a15 	stw	zero,40(sp)
   20cec:	d8000b15 	stw	zero,44(sp)
   20cf0:	d8000e15 	stw	zero,56(sp)
   20cf4:	d8001115 	stw	zero,68(sp)
   20cf8:	d8000615 	stw	zero,24(sp)
   20cfc:	9cc1b004 	addi	r19,r19,1728
   20d00:	8825883a 	mov	r18,r17
   20d04:	a0800007 	ldb	r2,0(r20)
   20d08:	1000cd26 	beq	r2,zero,21040 <___vfprintf_internal_r+0x424>
   20d0c:	a021883a 	mov	r16,r20
   20d10:	00000306 	br	20d20 <___vfprintf_internal_r+0x104>
   20d14:	80800047 	ldb	r2,1(r16)
   20d18:	84000044 	addi	r16,r16,1
   20d1c:	10015126 	beq	r2,zero,21264 <___vfprintf_internal_r+0x648>
   20d20:	10800958 	cmpnei	r2,r2,37
   20d24:	103ffb1e 	bne	r2,zero,20d14 <___vfprintf_internal_r+0xf8>
   20d28:	852fc83a 	sub	r23,r16,r20
   20d2c:	85014f1e 	bne	r16,r20,2126c <___vfprintf_internal_r+0x650>
   20d30:	80800003 	ldbu	r2,0(r16)
   20d34:	10803fcc 	andi	r2,r2,255
   20d38:	1080201c 	xori	r2,r2,128
   20d3c:	10bfe004 	addi	r2,r2,-128
   20d40:	1000bf26 	beq	r2,zero,21040 <___vfprintf_internal_r+0x424>
   20d44:	82c00047 	ldb	r11,1(r16)
   20d48:	85000044 	addi	r20,r16,1
   20d4c:	d8001645 	stb	zero,89(sp)
   20d50:	023fffc4 	movi	r8,-1
   20d54:	0021883a 	mov	r16,zero
   20d58:	001b883a 	mov	r13,zero
   20d5c:	a5000044 	addi	r20,r20,1
   20d60:	5839883a 	mov	fp,r11
   20d64:	e0bff804 	addi	r2,fp,-32
   20d68:	10c01668 	cmpgeui	r3,r2,89
   20d6c:	18006a1e 	bne	r3,zero,20f18 <___vfprintf_internal_r+0x2fc>
   20d70:	100490ba 	slli	r2,r2,2
   20d74:	00c000b4 	movhi	r3,2
   20d78:	10c7883a 	add	r3,r2,r3
   20d7c:	18836117 	ldw	r2,3460(r3)
   20d80:	1000683a 	jmp	r2
   20d84:	000215fc 	xorhi	zero,zero,2135
   20d88:	00020f18 	cmpnei	zero,zero,2108
   20d8c:	00020f18 	cmpnei	zero,zero,2108
   20d90:	000215f0 	cmpltui	zero,zero,2135
   20d94:	00020f18 	cmpnei	zero,zero,2108
   20d98:	00020f18 	cmpnei	zero,zero,2108
   20d9c:	00020f18 	cmpnei	zero,zero,2108
   20da0:	00020f18 	cmpnei	zero,zero,2108
   20da4:	00020f18 	cmpnei	zero,zero,2108
   20da8:	00020f18 	cmpnei	zero,zero,2108
   20dac:	0002156c 	andhi	zero,zero,2133
   20db0:	000215e0 	cmpeqi	zero,zero,2135
   20db4:	00020f18 	cmpnei	zero,zero,2108
   20db8:	00021584 	movi	zero,2134
   20dbc:	00021590 	cmplti	zero,zero,2134
   20dc0:	00020f18 	cmpnei	zero,zero,2108
   20dc4:	000215d4 	movui	zero,2135
   20dc8:	00020ee8 	cmpgeui	zero,zero,2107
   20dcc:	00020ee8 	cmpgeui	zero,zero,2107
   20dd0:	00020ee8 	cmpgeui	zero,zero,2107
   20dd4:	00020ee8 	cmpgeui	zero,zero,2107
   20dd8:	00020ee8 	cmpgeui	zero,zero,2107
   20ddc:	00020ee8 	cmpgeui	zero,zero,2107
   20de0:	00020ee8 	cmpgeui	zero,zero,2107
   20de4:	00020ee8 	cmpgeui	zero,zero,2107
   20de8:	00020ee8 	cmpgeui	zero,zero,2107
   20dec:	00020f18 	cmpnei	zero,zero,2108
   20df0:	00020f18 	cmpnei	zero,zero,2108
   20df4:	00020f18 	cmpnei	zero,zero,2108
   20df8:	00020f18 	cmpnei	zero,zero,2108
   20dfc:	00020f18 	cmpnei	zero,zero,2108
   20e00:	00020f18 	cmpnei	zero,zero,2108
   20e04:	00020f18 	cmpnei	zero,zero,2108
   20e08:	00020f18 	cmpnei	zero,zero,2108
   20e0c:	00020f18 	cmpnei	zero,zero,2108
   20e10:	00020f18 	cmpnei	zero,zero,2108
   20e14:	000210fc 	xorhi	zero,zero,2115
   20e18:	00021398 	cmpnei	zero,zero,2126
   20e1c:	00020f18 	cmpnei	zero,zero,2108
   20e20:	00021398 	cmpnei	zero,zero,2126
   20e24:	00020f18 	cmpnei	zero,zero,2108
   20e28:	00020f18 	cmpnei	zero,zero,2108
   20e2c:	00020f18 	cmpnei	zero,zero,2108
   20e30:	00020f18 	cmpnei	zero,zero,2108
   20e34:	00021648 	cmpgei	zero,zero,2137
   20e38:	00020f18 	cmpnei	zero,zero,2108
   20e3c:	00020f18 	cmpnei	zero,zero,2108
   20e40:	00021164 	muli	zero,zero,2117
   20e44:	00020f18 	cmpnei	zero,zero,2108
   20e48:	00020f18 	cmpnei	zero,zero,2108
   20e4c:	00020f18 	cmpnei	zero,zero,2108
   20e50:	00020f18 	cmpnei	zero,zero,2108
   20e54:	00020f18 	cmpnei	zero,zero,2108
   20e58:	0002118c 	andi	zero,zero,2118
   20e5c:	00020f18 	cmpnei	zero,zero,2108
   20e60:	00020f18 	cmpnei	zero,zero,2108
   20e64:	000221d4 	movui	zero,2183
   20e68:	00020f18 	cmpnei	zero,zero,2108
   20e6c:	00020f18 	cmpnei	zero,zero,2108
   20e70:	00020f18 	cmpnei	zero,zero,2108
   20e74:	00020f18 	cmpnei	zero,zero,2108
   20e78:	00020f18 	cmpnei	zero,zero,2108
   20e7c:	00020f18 	cmpnei	zero,zero,2108
   20e80:	00020f18 	cmpnei	zero,zero,2108
   20e84:	00020f18 	cmpnei	zero,zero,2108
   20e88:	00020f18 	cmpnei	zero,zero,2108
   20e8c:	00020f18 	cmpnei	zero,zero,2108
   20e90:	00021660 	cmpeqi	zero,zero,2137
   20e94:	00021100 	call	2110 <__reset-0x1def0>
   20e98:	00021398 	cmpnei	zero,zero,2126
   20e9c:	00021398 	cmpnei	zero,zero,2126
   20ea0:	00021398 	cmpnei	zero,zero,2126
   20ea4:	00021654 	movui	zero,2137
   20ea8:	00021100 	call	2110 <__reset-0x1def0>
   20eac:	00020f18 	cmpnei	zero,zero,2108
   20eb0:	00020f18 	cmpnei	zero,zero,2108
   20eb4:	00021620 	cmpeqi	zero,zero,2136
   20eb8:	00020f18 	cmpnei	zero,zero,2108
   20ebc:	0002171c 	xori	zero,zero,2140
   20ec0:	00021168 	cmpgeui	zero,zero,2117
   20ec4:	000216e4 	muli	zero,zero,2139
   20ec8:	000216d8 	cmpnei	zero,zero,2139
   20ecc:	00020f18 	cmpnei	zero,zero,2108
   20ed0:	00021688 	cmpgei	zero,zero,2138
   20ed4:	00020f18 	cmpnei	zero,zero,2108
   20ed8:	00021190 	cmplti	zero,zero,2118
   20edc:	00020f18 	cmpnei	zero,zero,2108
   20ee0:	00020f18 	cmpnei	zero,zero,2108
   20ee4:	00022244 	movi	zero,2185
   20ee8:	0021883a 	mov	r16,zero
   20eec:	e0bff404 	addi	r2,fp,-48
   20ef0:	a7000007 	ldb	fp,0(r20)
   20ef4:	840002a4 	muli	r16,r16,10
   20ef8:	a5000044 	addi	r20,r20,1
   20efc:	1421883a 	add	r16,r2,r16
   20f00:	e0bff404 	addi	r2,fp,-48
   20f04:	10c002b0 	cmpltui	r3,r2,10
   20f08:	183ff91e 	bne	r3,zero,20ef0 <___vfprintf_internal_r+0x2d4>
   20f0c:	e0bff804 	addi	r2,fp,-32
   20f10:	10c01668 	cmpgeui	r3,r2,89
   20f14:	183f9626 	beq	r3,zero,20d70 <___vfprintf_internal_r+0x154>
   20f18:	e0004926 	beq	fp,zero,21040 <___vfprintf_internal_r+0x424>
   20f1c:	df002005 	stb	fp,128(sp)
   20f20:	d8001645 	stb	zero,89(sp)
   20f24:	03000044 	movi	r12,1
   20f28:	01c00044 	movi	r7,1
   20f2c:	dd402004 	addi	r21,sp,128
   20f30:	6807883a 	mov	r3,r13
   20f34:	0011883a 	mov	r8,zero
   20f38:	d8000815 	stw	zero,32(sp)
   20f3c:	1b80008c 	andi	r14,r3,2
   20f40:	70000126 	beq	r14,zero,20f48 <___vfprintf_internal_r+0x32c>
   20f44:	63000084 	addi	r12,r12,2
   20f48:	1b40210c 	andi	r13,r3,132
   20f4c:	6800021e 	bne	r13,zero,20f58 <___vfprintf_internal_r+0x33c>
   20f50:	832dc83a 	sub	r22,r16,r12
   20f54:	05832916 	blt	zero,r22,21bfc <___vfprintf_internal_r+0xfe0>
   20f58:	d8801647 	ldb	r2,89(sp)
   20f5c:	dd801f17 	ldw	r22,124(sp)
   20f60:	10000c26 	beq	r2,zero,20f94 <___vfprintf_internal_r+0x378>
   20f64:	d8801e17 	ldw	r2,120(sp)
   20f68:	d9001644 	addi	r4,sp,89
   20f6c:	b5800044 	addi	r22,r22,1
   20f70:	10800044 	addi	r2,r2,1
   20f74:	91000015 	stw	r4,0(r18)
   20f78:	01000044 	movi	r4,1
   20f7c:	d8801e15 	stw	r2,120(sp)
   20f80:	91000115 	stw	r4,4(r18)
   20f84:	dd801f15 	stw	r22,124(sp)
   20f88:	10800208 	cmpgei	r2,r2,8
   20f8c:	10037b1e 	bne	r2,zero,21d7c <___vfprintf_internal_r+0x1160>
   20f90:	94800204 	addi	r18,r18,8
   20f94:	70000c26 	beq	r14,zero,20fc8 <___vfprintf_internal_r+0x3ac>
   20f98:	d8801e17 	ldw	r2,120(sp)
   20f9c:	d9001684 	addi	r4,sp,90
   20fa0:	b5800084 	addi	r22,r22,2
   20fa4:	10800044 	addi	r2,r2,1
   20fa8:	91000015 	stw	r4,0(r18)
   20fac:	01000084 	movi	r4,2
   20fb0:	d8801e15 	stw	r2,120(sp)
   20fb4:	91000115 	stw	r4,4(r18)
   20fb8:	dd801f15 	stw	r22,124(sp)
   20fbc:	10800208 	cmpgei	r2,r2,8
   20fc0:	1003821e 	bne	r2,zero,21dcc <___vfprintf_internal_r+0x11b0>
   20fc4:	94800204 	addi	r18,r18,8
   20fc8:	6b402018 	cmpnei	r13,r13,128
   20fcc:	68023426 	beq	r13,zero,218a0 <___vfprintf_internal_r+0xc84>
   20fd0:	41efc83a 	sub	r23,r8,r7
   20fd4:	05c27416 	blt	zero,r23,219a8 <___vfprintf_internal_r+0xd8c>
   20fd8:	1880400c 	andi	r2,r3,256
   20fdc:	1001db1e 	bne	r2,zero,2174c <___vfprintf_internal_r+0xb30>
   20fe0:	d8801e17 	ldw	r2,120(sp)
   20fe4:	3d89883a 	add	r4,r7,r22
   20fe8:	95400015 	stw	r21,0(r18)
   20fec:	10800044 	addi	r2,r2,1
   20ff0:	d8801e15 	stw	r2,120(sp)
   20ff4:	91c00115 	stw	r7,4(r18)
   20ff8:	d9001f15 	stw	r4,124(sp)
   20ffc:	10800208 	cmpgei	r2,r2,8
   21000:	1003521e 	bne	r2,zero,21d4c <___vfprintf_internal_r+0x1130>
   21004:	94800204 	addi	r18,r18,8
   21008:	18c0010c 	andi	r3,r3,4
   2100c:	18000226 	beq	r3,zero,21018 <___vfprintf_internal_r+0x3fc>
   21010:	8339c83a 	sub	fp,r16,r12
   21014:	0700ac16 	blt	zero,fp,212c8 <___vfprintf_internal_r+0x6ac>
   21018:	8300010e 	bge	r16,r12,21020 <___vfprintf_internal_r+0x404>
   2101c:	6021883a 	mov	r16,r12
   21020:	d8800617 	ldw	r2,24(sp)
   21024:	1405883a 	add	r2,r2,r16
   21028:	d8800615 	stw	r2,24(sp)
   2102c:	2002b01e 	bne	r4,zero,21af0 <___vfprintf_internal_r+0xed4>
   21030:	a0800007 	ldb	r2,0(r20)
   21034:	d8001e15 	stw	zero,120(sp)
   21038:	8825883a 	mov	r18,r17
   2103c:	103f331e 	bne	r2,zero,20d0c <___vfprintf_internal_r+0xf0>
   21040:	d8801f17 	ldw	r2,124(sp)
   21044:	10063b1e 	bne	r2,zero,22934 <___vfprintf_internal_r+0x1d18>
   21048:	d8800417 	ldw	r2,16(sp)
   2104c:	1080030b 	ldhu	r2,12(r2)
   21050:	1080100c 	andi	r2,r2,64
   21054:	10075f1e 	bne	r2,zero,22dd4 <___vfprintf_internal_r+0x21b8>
   21058:	d8800617 	ldw	r2,24(sp)
   2105c:	dfc04317 	ldw	ra,268(sp)
   21060:	df004217 	ldw	fp,264(sp)
   21064:	ddc04117 	ldw	r23,260(sp)
   21068:	dd804017 	ldw	r22,256(sp)
   2106c:	dd403f17 	ldw	r21,252(sp)
   21070:	dd003e17 	ldw	r20,248(sp)
   21074:	dcc03d17 	ldw	r19,244(sp)
   21078:	dc803c17 	ldw	r18,240(sp)
   2107c:	dc403b17 	ldw	r17,236(sp)
   21080:	dc003a17 	ldw	r16,232(sp)
   21084:	dec04404 	addi	sp,sp,272
   21088:	f800283a 	ret
   2108c:	d9400417 	ldw	r5,16(sp)
   21090:	d9000517 	ldw	r4,20(sp)
   21094:	00230a40 	call	230a4 <__swsetup_r>
   21098:	10074e1e 	bne	r2,zero,22dd4 <___vfprintf_internal_r+0x21b8>
   2109c:	d8800417 	ldw	r2,16(sp)
   210a0:	1080030b 	ldhu	r2,12(r2)
   210a4:	1080068c 	andi	r2,r2,26
   210a8:	10800298 	cmpnei	r2,r2,10
   210ac:	103f071e 	bne	r2,zero,20ccc <___vfprintf_internal_r+0xb0>
   210b0:	d8800417 	ldw	r2,16(sp)
   210b4:	1080038f 	ldh	r2,14(r2)
   210b8:	103f0416 	blt	r2,zero,20ccc <___vfprintf_internal_r+0xb0>
   210bc:	d9c00717 	ldw	r7,28(sp)
   210c0:	d9400417 	ldw	r5,16(sp)
   210c4:	d9000517 	ldw	r4,20(sp)
   210c8:	900d883a 	mov	r6,r18
   210cc:	dfc04317 	ldw	ra,268(sp)
   210d0:	df004217 	ldw	fp,264(sp)
   210d4:	ddc04117 	ldw	r23,260(sp)
   210d8:	dd804017 	ldw	r22,256(sp)
   210dc:	dd403f17 	ldw	r21,252(sp)
   210e0:	dd003e17 	ldw	r20,248(sp)
   210e4:	dcc03d17 	ldw	r19,244(sp)
   210e8:	dc803c17 	ldw	r18,240(sp)
   210ec:	dc403b17 	ldw	r17,236(sp)
   210f0:	dc003a17 	ldw	r16,232(sp)
   210f4:	dec04404 	addi	sp,sp,272
   210f8:	0022fe01 	jmpi	22fe0 <__sbprintf>
   210fc:	6b400414 	ori	r13,r13,16
   21100:	6880080c 	andi	r2,r13,32
   21104:	1000dc26 	beq	r2,zero,21478 <___vfprintf_internal_r+0x85c>
   21108:	d8c00717 	ldw	r3,28(sp)
   2110c:	18800117 	ldw	r2,4(r3)
   21110:	1d800017 	ldw	r22,0(r3)
   21114:	18c00204 	addi	r3,r3,8
   21118:	d8c00715 	stw	r3,28(sp)
   2111c:	102f883a 	mov	r23,r2
   21120:	1000e316 	blt	r2,zero,214b0 <___vfprintf_internal_r+0x894>
   21124:	40bfffd8 	cmpnei	r2,r8,-1
   21128:	d9001643 	ldbu	r4,89(sp)
   2112c:	10010626 	beq	r2,zero,21548 <___vfprintf_internal_r+0x92c>
   21130:	00ffdfc4 	movi	r3,-129
   21134:	b5c4b03a 	or	r2,r22,r23
   21138:	68c6703a 	and	r3,r13,r3
   2113c:	1001011e 	bne	r2,zero,21544 <___vfprintf_internal_r+0x928>
   21140:	00800044 	movi	r2,1
   21144:	4002531e 	bne	r8,zero,21a94 <___vfprintf_internal_r+0xe78>
   21148:	1003ad1e 	bne	r2,zero,22000 <___vfprintf_internal_r+0x13e4>
   2114c:	69c0004c 	andi	r7,r13,1
   21150:	3803f626 	beq	r7,zero,2212c <___vfprintf_internal_r+0x1510>
   21154:	00800c04 	movi	r2,48
   21158:	d88029c5 	stb	r2,167(sp)
   2115c:	dd4029c4 	addi	r21,sp,167
   21160:	00003606 	br	2123c <___vfprintf_internal_r+0x620>
   21164:	6b400414 	ori	r13,r13,16
   21168:	6880080c 	andi	r2,r13,32
   2116c:	1000e326 	beq	r2,zero,214fc <___vfprintf_internal_r+0x8e0>
   21170:	d8c00717 	ldw	r3,28(sp)
   21174:	0005883a 	mov	r2,zero
   21178:	1d800017 	ldw	r22,0(r3)
   2117c:	1dc00117 	ldw	r23,4(r3)
   21180:	18c00204 	addi	r3,r3,8
   21184:	d8c00715 	stw	r3,28(sp)
   21188:	00000906 	br	211b0 <___vfprintf_internal_r+0x594>
   2118c:	6b400414 	ori	r13,r13,16
   21190:	6880080c 	andi	r2,r13,32
   21194:	1000cd26 	beq	r2,zero,214cc <___vfprintf_internal_r+0x8b0>
   21198:	d8c00717 	ldw	r3,28(sp)
   2119c:	00800044 	movi	r2,1
   211a0:	1d800017 	ldw	r22,0(r3)
   211a4:	1dc00117 	ldw	r23,4(r3)
   211a8:	18c00204 	addi	r3,r3,8
   211ac:	d8c00715 	stw	r3,28(sp)
   211b0:	0009883a 	mov	r4,zero
   211b4:	d9001645 	stb	r4,89(sp)
   211b8:	40ffffe0 	cmpeqi	r3,r8,-1
   211bc:	1800051e 	bne	r3,zero,211d4 <___vfprintf_internal_r+0x5b8>
   211c0:	00ffdfc4 	movi	r3,-129
   211c4:	b5cab03a 	or	r5,r22,r23
   211c8:	68c6703a 	and	r3,r13,r3
   211cc:	283fdd26 	beq	r5,zero,21144 <___vfprintf_internal_r+0x528>
   211d0:	181b883a 	mov	r13,r3
   211d4:	10c00060 	cmpeqi	r3,r2,1
   211d8:	1800db1e 	bne	r3,zero,21548 <___vfprintf_internal_r+0x92c>
   211dc:	108000a0 	cmpeqi	r2,r2,2
   211e0:	1002331e 	bne	r2,zero,21ab0 <___vfprintf_internal_r+0xe94>
   211e4:	882b883a 	mov	r21,r17
   211e8:	b006d0fa 	srli	r3,r22,3
   211ec:	b80c977a 	slli	r6,r23,29
   211f0:	b82ed0fa 	srli	r23,r23,3
   211f4:	b58001cc 	andi	r22,r22,7
   211f8:	b0800c04 	addi	r2,r22,48
   211fc:	30ecb03a 	or	r22,r6,r3
   21200:	a8bfffc5 	stb	r2,-1(r21)
   21204:	b5c6b03a 	or	r3,r22,r23
   21208:	a80b883a 	mov	r5,r21
   2120c:	ad7fffc4 	addi	r21,r21,-1
   21210:	183ff51e 	bne	r3,zero,211e8 <___vfprintf_internal_r+0x5cc>
   21214:	68c0004c 	andi	r3,r13,1
   21218:	18023226 	beq	r3,zero,21ae4 <___vfprintf_internal_r+0xec8>
   2121c:	10800c18 	cmpnei	r2,r2,48
   21220:	10023026 	beq	r2,zero,21ae4 <___vfprintf_internal_r+0xec8>
   21224:	297fff84 	addi	r5,r5,-2
   21228:	00800c04 	movi	r2,48
   2122c:	a8bfffc5 	stb	r2,-1(r21)
   21230:	894fc83a 	sub	r7,r17,r5
   21234:	6807883a 	mov	r3,r13
   21238:	282b883a 	mov	r21,r5
   2123c:	4019883a 	mov	r12,r8
   21240:	41c0010e 	bge	r8,r7,21248 <___vfprintf_internal_r+0x62c>
   21244:	3819883a 	mov	r12,r7
   21248:	d8000815 	stw	zero,32(sp)
   2124c:	21003fcc 	andi	r4,r4,255
   21250:	2100201c 	xori	r4,r4,128
   21254:	213fe004 	addi	r4,r4,-128
   21258:	203f3826 	beq	r4,zero,20f3c <___vfprintf_internal_r+0x320>
   2125c:	63000044 	addi	r12,r12,1
   21260:	003f3606 	br	20f3c <___vfprintf_internal_r+0x320>
   21264:	852fc83a 	sub	r23,r16,r20
   21268:	853f7526 	beq	r16,r20,21040 <___vfprintf_internal_r+0x424>
   2126c:	dd801f17 	ldw	r22,124(sp)
   21270:	d8801e17 	ldw	r2,120(sp)
   21274:	95000015 	stw	r20,0(r18)
   21278:	b5ed883a 	add	r22,r22,r23
   2127c:	10800044 	addi	r2,r2,1
   21280:	d8801e15 	stw	r2,120(sp)
   21284:	95c00115 	stw	r23,4(r18)
   21288:	dd801f15 	stw	r22,124(sp)
   2128c:	10800208 	cmpgei	r2,r2,8
   21290:	1000061e 	bne	r2,zero,212ac <___vfprintf_internal_r+0x690>
   21294:	94800204 	addi	r18,r18,8
   21298:	d8c00617 	ldw	r3,24(sp)
   2129c:	80800003 	ldbu	r2,0(r16)
   212a0:	1dc7883a 	add	r3,r3,r23
   212a4:	d8c00615 	stw	r3,24(sp)
   212a8:	003ea206 	br	20d34 <___vfprintf_internal_r+0x118>
   212ac:	d9400417 	ldw	r5,16(sp)
   212b0:	d9000517 	ldw	r4,20(sp)
   212b4:	d9801d04 	addi	r6,sp,116
   212b8:	00284100 	call	28410 <__sprint_r>
   212bc:	103f621e 	bne	r2,zero,21048 <___vfprintf_internal_r+0x42c>
   212c0:	8825883a 	mov	r18,r17
   212c4:	003ff406 	br	21298 <___vfprintf_internal_r+0x67c>
   212c8:	05c000f4 	movhi	r23,3
   212cc:	e0c00450 	cmplti	r3,fp,17
   212d0:	d8801e17 	ldw	r2,120(sp)
   212d4:	bdc1b404 	addi	r23,r23,1744
   212d8:	18001e1e 	bne	r3,zero,21354 <___vfprintf_internal_r+0x738>
   212dc:	9007883a 	mov	r3,r18
   212e0:	dd400517 	ldw	r21,20(sp)
   212e4:	05800404 	movi	r22,16
   212e8:	6025883a 	mov	r18,r12
   212ec:	00000406 	br	21300 <___vfprintf_internal_r+0x6e4>
   212f0:	e73ffc04 	addi	fp,fp,-16
   212f4:	e1400448 	cmpgei	r5,fp,17
   212f8:	18c00204 	addi	r3,r3,8
   212fc:	28001326 	beq	r5,zero,2134c <___vfprintf_internal_r+0x730>
   21300:	10800044 	addi	r2,r2,1
   21304:	21000404 	addi	r4,r4,16
   21308:	1dc00015 	stw	r23,0(r3)
   2130c:	1d800115 	stw	r22,4(r3)
   21310:	d9001f15 	stw	r4,124(sp)
   21314:	d8801e15 	stw	r2,120(sp)
   21318:	11400208 	cmpgei	r5,r2,8
   2131c:	283ff426 	beq	r5,zero,212f0 <___vfprintf_internal_r+0x6d4>
   21320:	d9400417 	ldw	r5,16(sp)
   21324:	d9801d04 	addi	r6,sp,116
   21328:	a809883a 	mov	r4,r21
   2132c:	00284100 	call	28410 <__sprint_r>
   21330:	103f451e 	bne	r2,zero,21048 <___vfprintf_internal_r+0x42c>
   21334:	e73ffc04 	addi	fp,fp,-16
   21338:	e1400448 	cmpgei	r5,fp,17
   2133c:	d9001f17 	ldw	r4,124(sp)
   21340:	d8801e17 	ldw	r2,120(sp)
   21344:	8807883a 	mov	r3,r17
   21348:	283fed1e 	bne	r5,zero,21300 <___vfprintf_internal_r+0x6e4>
   2134c:	9019883a 	mov	r12,r18
   21350:	1825883a 	mov	r18,r3
   21354:	10800044 	addi	r2,r2,1
   21358:	2709883a 	add	r4,r4,fp
   2135c:	d8801e15 	stw	r2,120(sp)
   21360:	95c00015 	stw	r23,0(r18)
   21364:	97000115 	stw	fp,4(r18)
   21368:	d9001f15 	stw	r4,124(sp)
   2136c:	10800210 	cmplti	r2,r2,8
   21370:	103f291e 	bne	r2,zero,21018 <___vfprintf_internal_r+0x3fc>
   21374:	d9400417 	ldw	r5,16(sp)
   21378:	d9000517 	ldw	r4,20(sp)
   2137c:	d9801d04 	addi	r6,sp,116
   21380:	db000815 	stw	r12,32(sp)
   21384:	00284100 	call	28410 <__sprint_r>
   21388:	103f2f1e 	bne	r2,zero,21048 <___vfprintf_internal_r+0x42c>
   2138c:	d9001f17 	ldw	r4,124(sp)
   21390:	db000817 	ldw	r12,32(sp)
   21394:	003f2006 	br	21018 <___vfprintf_internal_r+0x3fc>
   21398:	d8c00717 	ldw	r3,28(sp)
   2139c:	6880020c 	andi	r2,r13,8
   213a0:	19000204 	addi	r4,r3,8
   213a4:	d9000f15 	stw	r4,60(sp)
   213a8:	1003621e 	bne	r2,zero,22134 <___vfprintf_internal_r+0x1518>
   213ac:	d8800717 	ldw	r2,28(sp)
   213b0:	10c00017 	ldw	r3,0(r2)
   213b4:	10800117 	ldw	r2,4(r2)
   213b8:	d8c00a15 	stw	r3,40(sp)
   213bc:	d8800b15 	stw	r2,44(sp)
   213c0:	ddc00b17 	ldw	r23,44(sp)
   213c4:	dd800a17 	ldw	r22,40(sp)
   213c8:	00a00034 	movhi	r2,32768
   213cc:	10bfffc4 	addi	r2,r2,-1
   213d0:	b8aa703a 	and	r21,r23,r2
   213d4:	01dffc34 	movhi	r7,32752
   213d8:	01bfffc4 	movi	r6,-1
   213dc:	39ffffc4 	addi	r7,r7,-1
   213e0:	b009883a 	mov	r4,r22
   213e4:	a80b883a 	mov	r5,r21
   213e8:	da000815 	stw	r8,32(sp)
   213ec:	db400715 	stw	r13,28(sp)
   213f0:	002d7500 	call	2d750 <__unorddf2>
   213f4:	db400717 	ldw	r13,28(sp)
   213f8:	da000817 	ldw	r8,32(sp)
   213fc:	10044f1e 	bne	r2,zero,2253c <___vfprintf_internal_r+0x1920>
   21400:	01dffc34 	movhi	r7,32752
   21404:	01bfffc4 	movi	r6,-1
   21408:	39ffffc4 	addi	r7,r7,-1
   2140c:	b009883a 	mov	r4,r22
   21410:	a80b883a 	mov	r5,r21
   21414:	002c5e40 	call	2c5e4 <__ledf2>
   21418:	db400717 	ldw	r13,28(sp)
   2141c:	da000817 	ldw	r8,32(sp)
   21420:	0084460e 	bge	zero,r2,2253c <___vfprintf_internal_r+0x1920>
   21424:	000d883a 	mov	r6,zero
   21428:	000f883a 	mov	r7,zero
   2142c:	b009883a 	mov	r4,r22
   21430:	b80b883a 	mov	r5,r23
   21434:	002c5e40 	call	2c5e4 <__ledf2>
   21438:	db400717 	ldw	r13,28(sp)
   2143c:	10052616 	blt	r2,zero,228d8 <___vfprintf_internal_r+0x1cbc>
   21440:	d9001643 	ldbu	r4,89(sp)
   21444:	e0801210 	cmplti	r2,fp,72
   21448:	1005091e 	bne	r2,zero,22870 <___vfprintf_internal_r+0x1c54>
   2144c:	054000f4 	movhi	r21,3
   21450:	ad41a004 	addi	r21,r21,1664
   21454:	d8800f17 	ldw	r2,60(sp)
   21458:	00ffdfc4 	movi	r3,-129
   2145c:	68c6703a 	and	r3,r13,r3
   21460:	d8800715 	stw	r2,28(sp)
   21464:	030000c4 	movi	r12,3
   21468:	01c000c4 	movi	r7,3
   2146c:	0011883a 	mov	r8,zero
   21470:	d8000815 	stw	zero,32(sp)
   21474:	003f7506 	br	2124c <___vfprintf_internal_r+0x630>
   21478:	d8c00717 	ldw	r3,28(sp)
   2147c:	6880040c 	andi	r2,r13,16
   21480:	1d800017 	ldw	r22,0(r3)
   21484:	18c00104 	addi	r3,r3,4
   21488:	d8c00715 	stw	r3,28(sp)
   2148c:	10002a1e 	bne	r2,zero,21538 <___vfprintf_internal_r+0x91c>
   21490:	6880100c 	andi	r2,r13,64
   21494:	10002826 	beq	r2,zero,21538 <___vfprintf_internal_r+0x91c>
   21498:	b5bfffcc 	andi	r22,r22,65535
   2149c:	b5a0001c 	xori	r22,r22,32768
   214a0:	b5a00004 	addi	r22,r22,-32768
   214a4:	b02fd7fa 	srai	r23,r22,31
   214a8:	b805883a 	mov	r2,r23
   214ac:	103f1d0e 	bge	r2,zero,21124 <___vfprintf_internal_r+0x508>
   214b0:	b004c03a 	cmpne	r2,r22,zero
   214b4:	05efc83a 	sub	r23,zero,r23
   214b8:	b8afc83a 	sub	r23,r23,r2
   214bc:	05adc83a 	sub	r22,zero,r22
   214c0:	01000b44 	movi	r4,45
   214c4:	00800044 	movi	r2,1
   214c8:	003f3a06 	br	211b4 <___vfprintf_internal_r+0x598>
   214cc:	d8c00717 	ldw	r3,28(sp)
   214d0:	6880040c 	andi	r2,r13,16
   214d4:	1d800017 	ldw	r22,0(r3)
   214d8:	18c00104 	addi	r3,r3,4
   214dc:	d8c00715 	stw	r3,28(sp)
   214e0:	1000031e 	bne	r2,zero,214f0 <___vfprintf_internal_r+0x8d4>
   214e4:	6880100c 	andi	r2,r13,64
   214e8:	10000126 	beq	r2,zero,214f0 <___vfprintf_internal_r+0x8d4>
   214ec:	b5bfffcc 	andi	r22,r22,65535
   214f0:	002f883a 	mov	r23,zero
   214f4:	00800044 	movi	r2,1
   214f8:	003f2d06 	br	211b0 <___vfprintf_internal_r+0x594>
   214fc:	d8c00717 	ldw	r3,28(sp)
   21500:	6880040c 	andi	r2,r13,16
   21504:	1d800017 	ldw	r22,0(r3)
   21508:	18c00104 	addi	r3,r3,4
   2150c:	d8c00715 	stw	r3,28(sp)
   21510:	1000031e 	bne	r2,zero,21520 <___vfprintf_internal_r+0x904>
   21514:	6880100c 	andi	r2,r13,64
   21518:	10000126 	beq	r2,zero,21520 <___vfprintf_internal_r+0x904>
   2151c:	b5bfffcc 	andi	r22,r22,65535
   21520:	002f883a 	mov	r23,zero
   21524:	0005883a 	mov	r2,zero
   21528:	003f2106 	br	211b0 <___vfprintf_internal_r+0x594>
   2152c:	d9000517 	ldw	r4,20(sp)
   21530:	00251f40 	call	251f4 <__sinit>
   21534:	003dd206 	br	20c80 <___vfprintf_internal_r+0x64>
   21538:	b02fd7fa 	srai	r23,r22,31
   2153c:	b805883a 	mov	r2,r23
   21540:	003ef706 	br	21120 <___vfprintf_internal_r+0x504>
   21544:	181b883a 	mov	r13,r3
   21548:	b803681e 	bne	r23,zero,222ec <___vfprintf_internal_r+0x16d0>
   2154c:	b08002a8 	cmpgeui	r2,r22,10
   21550:	1003661e 	bne	r2,zero,222ec <___vfprintf_internal_r+0x16d0>
   21554:	b5800c04 	addi	r22,r22,48
   21558:	dd8029c5 	stb	r22,167(sp)
   2155c:	6807883a 	mov	r3,r13
   21560:	01c00044 	movi	r7,1
   21564:	dd4029c4 	addi	r21,sp,167
   21568:	003f3406 	br	2123c <___vfprintf_internal_r+0x620>
   2156c:	d8800717 	ldw	r2,28(sp)
   21570:	14000017 	ldw	r16,0(r2)
   21574:	10800104 	addi	r2,r2,4
   21578:	8002e90e 	bge	r16,zero,22120 <___vfprintf_internal_r+0x1504>
   2157c:	0421c83a 	sub	r16,zero,r16
   21580:	d8800715 	stw	r2,28(sp)
   21584:	a2c00007 	ldb	r11,0(r20)
   21588:	6b400114 	ori	r13,r13,4
   2158c:	003df306 	br	20d5c <___vfprintf_internal_r+0x140>
   21590:	a7000007 	ldb	fp,0(r20)
   21594:	a0c00044 	addi	r3,r20,1
   21598:	e0800aa0 	cmpeqi	r2,fp,42
   2159c:	10066f1e 	bne	r2,zero,22f5c <___vfprintf_internal_r+0x2340>
   215a0:	e0bff404 	addi	r2,fp,-48
   215a4:	110002b0 	cmpltui	r4,r2,10
   215a8:	1829883a 	mov	r20,r3
   215ac:	0011883a 	mov	r8,zero
   215b0:	203dec26 	beq	r4,zero,20d64 <___vfprintf_internal_r+0x148>
   215b4:	a7000007 	ldb	fp,0(r20)
   215b8:	420002a4 	muli	r8,r8,10
   215bc:	a5000044 	addi	r20,r20,1
   215c0:	4091883a 	add	r8,r8,r2
   215c4:	e0bff404 	addi	r2,fp,-48
   215c8:	10c002b0 	cmpltui	r3,r2,10
   215cc:	183ff91e 	bne	r3,zero,215b4 <___vfprintf_internal_r+0x998>
   215d0:	003de406 	br	20d64 <___vfprintf_internal_r+0x148>
   215d4:	a2c00007 	ldb	r11,0(r20)
   215d8:	6b402014 	ori	r13,r13,128
   215dc:	003ddf06 	br	20d5c <___vfprintf_internal_r+0x140>
   215e0:	00800ac4 	movi	r2,43
   215e4:	a2c00007 	ldb	r11,0(r20)
   215e8:	d8801645 	stb	r2,89(sp)
   215ec:	003ddb06 	br	20d5c <___vfprintf_internal_r+0x140>
   215f0:	a2c00007 	ldb	r11,0(r20)
   215f4:	6b400054 	ori	r13,r13,1
   215f8:	003dd806 	br	20d5c <___vfprintf_internal_r+0x140>
   215fc:	d8801647 	ldb	r2,89(sp)
   21600:	a7000003 	ldbu	fp,0(r20)
   21604:	10000c1e 	bne	r2,zero,21638 <___vfprintf_internal_r+0xa1c>
   21608:	e2c03fcc 	andi	r11,fp,255
   2160c:	00800804 	movi	r2,32
   21610:	5ac0201c 	xori	r11,r11,128
   21614:	d8801645 	stb	r2,89(sp)
   21618:	5affe004 	addi	r11,r11,-128
   2161c:	003dcf06 	br	20d5c <___vfprintf_internal_r+0x140>
   21620:	a2c00007 	ldb	r11,0(r20)
   21624:	58801b18 	cmpnei	r2,r11,108
   21628:	1002bb1e 	bne	r2,zero,22118 <___vfprintf_internal_r+0x14fc>
   2162c:	a7000043 	ldbu	fp,1(r20)
   21630:	6b400814 	ori	r13,r13,32
   21634:	a5000044 	addi	r20,r20,1
   21638:	e2c03fcc 	andi	r11,fp,255
   2163c:	5ac0201c 	xori	r11,r11,128
   21640:	5affe004 	addi	r11,r11,-128
   21644:	003dc506 	br	20d5c <___vfprintf_internal_r+0x140>
   21648:	a2c00007 	ldb	r11,0(r20)
   2164c:	6b400214 	ori	r13,r13,8
   21650:	003dc206 	br	20d5c <___vfprintf_internal_r+0x140>
   21654:	a2c00007 	ldb	r11,0(r20)
   21658:	6b401014 	ori	r13,r13,64
   2165c:	003dbf06 	br	20d5c <___vfprintf_internal_r+0x140>
   21660:	d8c00717 	ldw	r3,28(sp)
   21664:	d8001645 	stb	zero,89(sp)
   21668:	03000044 	movi	r12,1
   2166c:	18800017 	ldw	r2,0(r3)
   21670:	18c00104 	addi	r3,r3,4
   21674:	d8c00715 	stw	r3,28(sp)
   21678:	d8802005 	stb	r2,128(sp)
   2167c:	01c00044 	movi	r7,1
   21680:	dd402004 	addi	r21,sp,128
   21684:	003e2a06 	br	20f30 <___vfprintf_internal_r+0x314>
   21688:	d8800717 	ldw	r2,28(sp)
   2168c:	d8001645 	stb	zero,89(sp)
   21690:	15400017 	ldw	r21,0(r2)
   21694:	15800104 	addi	r22,r2,4
   21698:	a802e226 	beq	r21,zero,22224 <___vfprintf_internal_r+0x1608>
   2169c:	db400815 	stw	r13,32(sp)
   216a0:	40bfffe0 	cmpeqi	r2,r8,-1
   216a4:	10046b1e 	bne	r2,zero,22854 <___vfprintf_internal_r+0x1c38>
   216a8:	400d883a 	mov	r6,r8
   216ac:	000b883a 	mov	r5,zero
   216b0:	a809883a 	mov	r4,r21
   216b4:	da000715 	stw	r8,28(sp)
   216b8:	002664c0 	call	2664c <memchr>
   216bc:	da000717 	ldw	r8,28(sp)
   216c0:	db400817 	ldw	r13,32(sp)
   216c4:	1005b126 	beq	r2,zero,22d8c <___vfprintf_internal_r+0x2170>
   216c8:	154fc83a 	sub	r7,r2,r21
   216cc:	3819883a 	mov	r12,r7
   216d0:	dd800715 	stw	r22,28(sp)
   216d4:	003e1606 	br	20f30 <___vfprintf_internal_r+0x314>
   216d8:	a2c00007 	ldb	r11,0(r20)
   216dc:	6b400814 	ori	r13,r13,32
   216e0:	003d9e06 	br	20d5c <___vfprintf_internal_r+0x140>
   216e4:	d8c00717 	ldw	r3,28(sp)
   216e8:	009e0c04 	movi	r2,30768
   216ec:	010000f4 	movhi	r4,3
   216f0:	d880168d 	sth	r2,90(sp)
   216f4:	18800104 	addi	r2,r3,4
   216f8:	d8800715 	stw	r2,28(sp)
   216fc:	2081a804 	addi	r2,r4,1696
   21700:	d8800e15 	stw	r2,56(sp)
   21704:	1d800017 	ldw	r22,0(r3)
   21708:	002f883a 	mov	r23,zero
   2170c:	6b400094 	ori	r13,r13,2
   21710:	00800084 	movi	r2,2
   21714:	07001e04 	movi	fp,120
   21718:	003ea506 	br	211b0 <___vfprintf_internal_r+0x594>
   2171c:	6880080c 	andi	r2,r13,32
   21720:	10028926 	beq	r2,zero,22148 <___vfprintf_internal_r+0x152c>
   21724:	d9000617 	ldw	r4,24(sp)
   21728:	d8800717 	ldw	r2,28(sp)
   2172c:	2007d7fa 	srai	r3,r4,31
   21730:	10800017 	ldw	r2,0(r2)
   21734:	11000015 	stw	r4,0(r2)
   21738:	10c00115 	stw	r3,4(r2)
   2173c:	d8800717 	ldw	r2,28(sp)
   21740:	10800104 	addi	r2,r2,4
   21744:	d8800715 	stw	r2,28(sp)
   21748:	003d6e06 	br	20d04 <___vfprintf_internal_r+0xe8>
   2174c:	e2c01990 	cmplti	r11,fp,102
   21750:	5800ed1e 	bne	r11,zero,21b08 <___vfprintf_internal_r+0xeec>
   21754:	d9000a17 	ldw	r4,40(sp)
   21758:	d9400b17 	ldw	r5,44(sp)
   2175c:	000d883a 	mov	r6,zero
   21760:	000f883a 	mov	r7,zero
   21764:	db001015 	stw	r12,64(sp)
   21768:	d8c00f15 	stw	r3,60(sp)
   2176c:	002c4540 	call	2c454 <__eqdf2>
   21770:	d8c00f17 	ldw	r3,60(sp)
   21774:	db001017 	ldw	r12,64(sp)
   21778:	1001a61e 	bne	r2,zero,21e14 <___vfprintf_internal_r+0x11f8>
   2177c:	d8801e17 	ldw	r2,120(sp)
   21780:	010000f4 	movhi	r4,3
   21784:	2101af04 	addi	r4,r4,1724
   21788:	10800044 	addi	r2,r2,1
   2178c:	b5800044 	addi	r22,r22,1
   21790:	91000015 	stw	r4,0(r18)
   21794:	01000044 	movi	r4,1
   21798:	d8801e15 	stw	r2,120(sp)
   2179c:	91000115 	stw	r4,4(r18)
   217a0:	dd801f15 	stw	r22,124(sp)
   217a4:	10800208 	cmpgei	r2,r2,8
   217a8:	1003c41e 	bne	r2,zero,226bc <___vfprintf_internal_r+0x1aa0>
   217ac:	94800204 	addi	r18,r18,8
   217b0:	d8801717 	ldw	r2,92(sp)
   217b4:	d9000917 	ldw	r4,36(sp)
   217b8:	11000416 	blt	r2,r4,217cc <___vfprintf_internal_r+0xbb0>
   217bc:	1880004c 	andi	r2,r3,1
   217c0:	1000021e 	bne	r2,zero,217cc <___vfprintf_internal_r+0xbb0>
   217c4:	b009883a 	mov	r4,r22
   217c8:	003e0f06 	br	21008 <___vfprintf_internal_r+0x3ec>
   217cc:	d8800d17 	ldw	r2,52(sp)
   217d0:	d9400c17 	ldw	r5,48(sp)
   217d4:	90800015 	stw	r2,0(r18)
   217d8:	d8801e17 	ldw	r2,120(sp)
   217dc:	2d89883a 	add	r4,r5,r22
   217e0:	91400115 	stw	r5,4(r18)
   217e4:	10800044 	addi	r2,r2,1
   217e8:	d8801e15 	stw	r2,120(sp)
   217ec:	d9001f15 	stw	r4,124(sp)
   217f0:	10800208 	cmpgei	r2,r2,8
   217f4:	10026b1e 	bne	r2,zero,221a4 <___vfprintf_internal_r+0x1588>
   217f8:	94800204 	addi	r18,r18,8
   217fc:	d8800917 	ldw	r2,36(sp)
   21800:	15ffffc4 	addi	r23,r2,-1
   21804:	05fe000e 	bge	zero,r23,21008 <___vfprintf_internal_r+0x3ec>
   21808:	058000f4 	movhi	r22,3
   2180c:	b9400450 	cmplti	r5,r23,17
   21810:	d8801e17 	ldw	r2,120(sp)
   21814:	b581b004 	addi	r22,r22,1728
   21818:	2801441e 	bne	r5,zero,21d2c <___vfprintf_internal_r+0x1110>
   2181c:	900d883a 	mov	r6,r18
   21820:	980b883a 	mov	r5,r19
   21824:	1825883a 	mov	r18,r3
   21828:	b02b883a 	mov	r21,r22
   2182c:	8027883a 	mov	r19,r16
   21830:	a02d883a 	mov	r22,r20
   21834:	b821883a 	mov	r16,r23
   21838:	07000404 	movi	fp,16
   2183c:	6029883a 	mov	r20,r12
   21840:	282f883a 	mov	r23,r5
   21844:	3007883a 	mov	r3,r6
   21848:	00000406 	br	2185c <___vfprintf_internal_r+0xc40>
   2184c:	18c00204 	addi	r3,r3,8
   21850:	843ffc04 	addi	r16,r16,-16
   21854:	81400448 	cmpgei	r5,r16,17
   21858:	28012a26 	beq	r5,zero,21d04 <___vfprintf_internal_r+0x10e8>
   2185c:	10800044 	addi	r2,r2,1
   21860:	21000404 	addi	r4,r4,16
   21864:	1d400015 	stw	r21,0(r3)
   21868:	1f000115 	stw	fp,4(r3)
   2186c:	d9001f15 	stw	r4,124(sp)
   21870:	d8801e15 	stw	r2,120(sp)
   21874:	11400208 	cmpgei	r5,r2,8
   21878:	283ff426 	beq	r5,zero,2184c <___vfprintf_internal_r+0xc30>
   2187c:	d9400417 	ldw	r5,16(sp)
   21880:	d9000517 	ldw	r4,20(sp)
   21884:	d9801d04 	addi	r6,sp,116
   21888:	00284100 	call	28410 <__sprint_r>
   2188c:	103dee1e 	bne	r2,zero,21048 <___vfprintf_internal_r+0x42c>
   21890:	d9001f17 	ldw	r4,124(sp)
   21894:	d8801e17 	ldw	r2,120(sp)
   21898:	8807883a 	mov	r3,r17
   2189c:	003fec06 	br	21850 <___vfprintf_internal_r+0xc34>
   218a0:	832fc83a 	sub	r23,r16,r12
   218a4:	05fdca0e 	bge	zero,r23,20fd0 <___vfprintf_internal_r+0x3b4>
   218a8:	b009883a 	mov	r4,r22
   218ac:	b9400450 	cmplti	r5,r23,17
   218b0:	058000f4 	movhi	r22,3
   218b4:	d8801e17 	ldw	r2,120(sp)
   218b8:	b581b004 	addi	r22,r22,1728
   218bc:	28002e1e 	bne	r5,zero,21978 <___vfprintf_internal_r+0xd5c>
   218c0:	d8c00f15 	stw	r3,60(sp)
   218c4:	dc001015 	stw	r16,64(sp)
   218c8:	9007883a 	mov	r3,r18
   218cc:	b821883a 	mov	r16,r23
   218d0:	b025883a 	mov	r18,r22
   218d4:	982f883a 	mov	r23,r19
   218d8:	a02d883a 	mov	r22,r20
   218dc:	03400404 	movi	r13,16
   218e0:	da001215 	stw	r8,72(sp)
   218e4:	6029883a 	mov	r20,r12
   218e8:	3827883a 	mov	r19,r7
   218ec:	00000406 	br	21900 <___vfprintf_internal_r+0xce4>
   218f0:	843ffc04 	addi	r16,r16,-16
   218f4:	81400448 	cmpgei	r5,r16,17
   218f8:	18c00204 	addi	r3,r3,8
   218fc:	28001426 	beq	r5,zero,21950 <___vfprintf_internal_r+0xd34>
   21900:	10800044 	addi	r2,r2,1
   21904:	21000404 	addi	r4,r4,16
   21908:	1c800015 	stw	r18,0(r3)
   2190c:	1b400115 	stw	r13,4(r3)
   21910:	d9001f15 	stw	r4,124(sp)
   21914:	d8801e15 	stw	r2,120(sp)
   21918:	11400208 	cmpgei	r5,r2,8
   2191c:	283ff426 	beq	r5,zero,218f0 <___vfprintf_internal_r+0xcd4>
   21920:	d9400417 	ldw	r5,16(sp)
   21924:	d9000517 	ldw	r4,20(sp)
   21928:	d9801d04 	addi	r6,sp,116
   2192c:	00284100 	call	28410 <__sprint_r>
   21930:	103dc51e 	bne	r2,zero,21048 <___vfprintf_internal_r+0x42c>
   21934:	843ffc04 	addi	r16,r16,-16
   21938:	81400448 	cmpgei	r5,r16,17
   2193c:	d9001f17 	ldw	r4,124(sp)
   21940:	d8801e17 	ldw	r2,120(sp)
   21944:	8807883a 	mov	r3,r17
   21948:	03400404 	movi	r13,16
   2194c:	283fec1e 	bne	r5,zero,21900 <___vfprintf_internal_r+0xce4>
   21950:	980f883a 	mov	r7,r19
   21954:	a019883a 	mov	r12,r20
   21958:	b827883a 	mov	r19,r23
   2195c:	b029883a 	mov	r20,r22
   21960:	802f883a 	mov	r23,r16
   21964:	902d883a 	mov	r22,r18
   21968:	da001217 	ldw	r8,72(sp)
   2196c:	1825883a 	mov	r18,r3
   21970:	dc001017 	ldw	r16,64(sp)
   21974:	d8c00f17 	ldw	r3,60(sp)
   21978:	10800044 	addi	r2,r2,1
   2197c:	b909883a 	add	r4,r23,r4
   21980:	d8801e15 	stw	r2,120(sp)
   21984:	95800015 	stw	r22,0(r18)
   21988:	95c00115 	stw	r23,4(r18)
   2198c:	d9001f15 	stw	r4,124(sp)
   21990:	10800208 	cmpgei	r2,r2,8
   21994:	1003621e 	bne	r2,zero,22720 <___vfprintf_internal_r+0x1b04>
   21998:	41efc83a 	sub	r23,r8,r7
   2199c:	94800204 	addi	r18,r18,8
   219a0:	202d883a 	mov	r22,r4
   219a4:	05fd8c0e 	bge	zero,r23,20fd8 <___vfprintf_internal_r+0x3bc>
   219a8:	b9400450 	cmplti	r5,r23,17
   219ac:	d8801e17 	ldw	r2,120(sp)
   219b0:	b009883a 	mov	r4,r22
   219b4:	2803b11e 	bne	r5,zero,2287c <___vfprintf_internal_r+0x1c60>
   219b8:	d8c00f15 	stw	r3,60(sp)
   219bc:	dc001015 	stw	r16,64(sp)
   219c0:	9007883a 	mov	r3,r18
   219c4:	b821883a 	mov	r16,r23
   219c8:	a02d883a 	mov	r22,r20
   219cc:	982f883a 	mov	r23,r19
   219d0:	9825883a 	mov	r18,r19
   219d4:	02000404 	movi	r8,16
   219d8:	6029883a 	mov	r20,r12
   219dc:	3827883a 	mov	r19,r7
   219e0:	00000406 	br	219f4 <___vfprintf_internal_r+0xdd8>
   219e4:	843ffc04 	addi	r16,r16,-16
   219e8:	81400448 	cmpgei	r5,r16,17
   219ec:	18c00204 	addi	r3,r3,8
   219f0:	28001426 	beq	r5,zero,21a44 <___vfprintf_internal_r+0xe28>
   219f4:	10800044 	addi	r2,r2,1
   219f8:	21000404 	addi	r4,r4,16
   219fc:	1c800015 	stw	r18,0(r3)
   21a00:	1a000115 	stw	r8,4(r3)
   21a04:	d9001f15 	stw	r4,124(sp)
   21a08:	d8801e15 	stw	r2,120(sp)
   21a0c:	11400208 	cmpgei	r5,r2,8
   21a10:	283ff426 	beq	r5,zero,219e4 <___vfprintf_internal_r+0xdc8>
   21a14:	d9400417 	ldw	r5,16(sp)
   21a18:	d9000517 	ldw	r4,20(sp)
   21a1c:	d9801d04 	addi	r6,sp,116
   21a20:	00284100 	call	28410 <__sprint_r>
   21a24:	103d881e 	bne	r2,zero,21048 <___vfprintf_internal_r+0x42c>
   21a28:	843ffc04 	addi	r16,r16,-16
   21a2c:	81400448 	cmpgei	r5,r16,17
   21a30:	d9001f17 	ldw	r4,124(sp)
   21a34:	d8801e17 	ldw	r2,120(sp)
   21a38:	8807883a 	mov	r3,r17
   21a3c:	02000404 	movi	r8,16
   21a40:	283fec1e 	bne	r5,zero,219f4 <___vfprintf_internal_r+0xdd8>
   21a44:	980f883a 	mov	r7,r19
   21a48:	a019883a 	mov	r12,r20
   21a4c:	9027883a 	mov	r19,r18
   21a50:	b029883a 	mov	r20,r22
   21a54:	1825883a 	mov	r18,r3
   21a58:	b82d883a 	mov	r22,r23
   21a5c:	d8c00f17 	ldw	r3,60(sp)
   21a60:	802f883a 	mov	r23,r16
   21a64:	dc001017 	ldw	r16,64(sp)
   21a68:	10800044 	addi	r2,r2,1
   21a6c:	b909883a 	add	r4,r23,r4
   21a70:	d8801e15 	stw	r2,120(sp)
   21a74:	95800015 	stw	r22,0(r18)
   21a78:	95c00115 	stw	r23,4(r18)
   21a7c:	d9001f15 	stw	r4,124(sp)
   21a80:	10800208 	cmpgei	r2,r2,8
   21a84:	10018a1e 	bne	r2,zero,220b0 <___vfprintf_internal_r+0x1494>
   21a88:	94800204 	addi	r18,r18,8
   21a8c:	202d883a 	mov	r22,r4
   21a90:	003d5106 	br	20fd8 <___vfprintf_internal_r+0x3bc>
   21a94:	11400060 	cmpeqi	r5,r2,1
   21a98:	181b883a 	mov	r13,r3
   21a9c:	002d883a 	mov	r22,zero
   21aa0:	283eac1e 	bne	r5,zero,21554 <___vfprintf_internal_r+0x938>
   21aa4:	108000a0 	cmpeqi	r2,r2,2
   21aa8:	002f883a 	mov	r23,zero
   21aac:	103dcd26 	beq	r2,zero,211e4 <___vfprintf_internal_r+0x5c8>
   21ab0:	d9400e17 	ldw	r5,56(sp)
   21ab4:	882b883a 	mov	r21,r17
   21ab8:	b08003cc 	andi	r2,r22,15
   21abc:	b806973a 	slli	r3,r23,28
   21ac0:	b02cd13a 	srli	r22,r22,4
   21ac4:	2885883a 	add	r2,r5,r2
   21ac8:	10800003 	ldbu	r2,0(r2)
   21acc:	b82ed13a 	srli	r23,r23,4
   21ad0:	1dacb03a 	or	r22,r3,r22
   21ad4:	a8bfffc5 	stb	r2,-1(r21)
   21ad8:	b5c4b03a 	or	r2,r22,r23
   21adc:	ad7fffc4 	addi	r21,r21,-1
   21ae0:	103ff51e 	bne	r2,zero,21ab8 <___vfprintf_internal_r+0xe9c>
   21ae4:	8d4fc83a 	sub	r7,r17,r21
   21ae8:	6807883a 	mov	r3,r13
   21aec:	003dd306 	br	2123c <___vfprintf_internal_r+0x620>
   21af0:	d9400417 	ldw	r5,16(sp)
   21af4:	d9000517 	ldw	r4,20(sp)
   21af8:	d9801d04 	addi	r6,sp,116
   21afc:	00284100 	call	28410 <__sprint_r>
   21b00:	103d4b26 	beq	r2,zero,21030 <___vfprintf_internal_r+0x414>
   21b04:	003d5006 	br	21048 <___vfprintf_internal_r+0x42c>
   21b08:	d8800917 	ldw	r2,36(sp)
   21b0c:	95c00204 	addi	r23,r18,8
   21b10:	10800088 	cmpgei	r2,r2,2
   21b14:	10012126 	beq	r2,zero,21f9c <___vfprintf_internal_r+0x1380>
   21b18:	da001e17 	ldw	r8,120(sp)
   21b1c:	00800044 	movi	r2,1
   21b20:	b5800044 	addi	r22,r22,1
   21b24:	42000044 	addi	r8,r8,1
   21b28:	90800115 	stw	r2,4(r18)
   21b2c:	95400015 	stw	r21,0(r18)
   21b30:	dd801f15 	stw	r22,124(sp)
   21b34:	da001e15 	stw	r8,120(sp)
   21b38:	40800210 	cmplti	r2,r8,8
   21b3c:	10022a26 	beq	r2,zero,223e8 <___vfprintf_internal_r+0x17cc>
   21b40:	d8800c17 	ldw	r2,48(sp)
   21b44:	d9000d17 	ldw	r4,52(sp)
   21b48:	42000044 	addi	r8,r8,1
   21b4c:	15b9883a 	add	fp,r2,r22
   21b50:	b8800115 	stw	r2,4(r23)
   21b54:	b9000015 	stw	r4,0(r23)
   21b58:	df001f15 	stw	fp,124(sp)
   21b5c:	da001e15 	stw	r8,120(sp)
   21b60:	40800208 	cmpgei	r2,r8,8
   21b64:	10022d1e 	bne	r2,zero,2241c <___vfprintf_internal_r+0x1800>
   21b68:	bdc00204 	addi	r23,r23,8
   21b6c:	d9000a17 	ldw	r4,40(sp)
   21b70:	d9400b17 	ldw	r5,44(sp)
   21b74:	000d883a 	mov	r6,zero
   21b78:	000f883a 	mov	r7,zero
   21b7c:	db001015 	stw	r12,64(sp)
   21b80:	d8c00f15 	stw	r3,60(sp)
   21b84:	da000815 	stw	r8,32(sp)
   21b88:	002c4540 	call	2c454 <__eqdf2>
   21b8c:	d8c00917 	ldw	r3,36(sp)
   21b90:	da000817 	ldw	r8,32(sp)
   21b94:	db001017 	ldw	r12,64(sp)
   21b98:	1cbfffc4 	addi	r18,r3,-1
   21b9c:	d8c00f17 	ldw	r3,60(sp)
   21ba0:	10011a26 	beq	r2,zero,2200c <___vfprintf_internal_r+0x13f0>
   21ba4:	aa400044 	addi	r9,r21,1
   21ba8:	42000044 	addi	r8,r8,1
   21bac:	e4b9883a 	add	fp,fp,r18
   21bb0:	ba400015 	stw	r9,0(r23)
   21bb4:	bc800115 	stw	r18,4(r23)
   21bb8:	df001f15 	stw	fp,124(sp)
   21bbc:	da001e15 	stw	r8,120(sp)
   21bc0:	40800208 	cmpgei	r2,r8,8
   21bc4:	1002c91e 	bne	r2,zero,226ec <___vfprintf_internal_r+0x1ad0>
   21bc8:	bdc00204 	addi	r23,r23,8
   21bcc:	d9401117 	ldw	r5,68(sp)
   21bd0:	42000044 	addi	r8,r8,1
   21bd4:	d8801904 	addi	r2,sp,100
   21bd8:	2f09883a 	add	r4,r5,fp
   21bdc:	da001e15 	stw	r8,120(sp)
   21be0:	b8800015 	stw	r2,0(r23)
   21be4:	b9400115 	stw	r5,4(r23)
   21be8:	d9001f15 	stw	r4,124(sp)
   21bec:	42000208 	cmpgei	r8,r8,8
   21bf0:	40013d1e 	bne	r8,zero,220e8 <___vfprintf_internal_r+0x14cc>
   21bf4:	bc800204 	addi	r18,r23,8
   21bf8:	003d0306 	br	21008 <___vfprintf_internal_r+0x3ec>
   21bfc:	05c000f4 	movhi	r23,3
   21c00:	b1400450 	cmplti	r5,r22,17
   21c04:	d9001f17 	ldw	r4,124(sp)
   21c08:	d8801e17 	ldw	r2,120(sp)
   21c0c:	bdc1b404 	addi	r23,r23,1744
   21c10:	2800321e 	bne	r5,zero,21cdc <___vfprintf_internal_r+0x10c0>
   21c14:	d8c01215 	stw	r3,72(sp)
   21c18:	dc001315 	stw	r16,76(sp)
   21c1c:	9007883a 	mov	r3,r18
   21c20:	b021883a 	mov	r16,r22
   21c24:	b825883a 	mov	r18,r23
   21c28:	a02d883a 	mov	r22,r20
   21c2c:	982f883a 	mov	r23,r19
   21c30:	03c00404 	movi	r15,16
   21c34:	db800f15 	stw	r14,60(sp)
   21c38:	db401015 	stw	r13,64(sp)
   21c3c:	da001415 	stw	r8,80(sp)
   21c40:	6029883a 	mov	r20,r12
   21c44:	3827883a 	mov	r19,r7
   21c48:	00000406 	br	21c5c <___vfprintf_internal_r+0x1040>
   21c4c:	843ffc04 	addi	r16,r16,-16
   21c50:	81400448 	cmpgei	r5,r16,17
   21c54:	18c00204 	addi	r3,r3,8
   21c58:	28001426 	beq	r5,zero,21cac <___vfprintf_internal_r+0x1090>
   21c5c:	10800044 	addi	r2,r2,1
   21c60:	21000404 	addi	r4,r4,16
   21c64:	1c800015 	stw	r18,0(r3)
   21c68:	1bc00115 	stw	r15,4(r3)
   21c6c:	d9001f15 	stw	r4,124(sp)
   21c70:	d8801e15 	stw	r2,120(sp)
   21c74:	11400208 	cmpgei	r5,r2,8
   21c78:	283ff426 	beq	r5,zero,21c4c <___vfprintf_internal_r+0x1030>
   21c7c:	d9400417 	ldw	r5,16(sp)
   21c80:	d9000517 	ldw	r4,20(sp)
   21c84:	d9801d04 	addi	r6,sp,116
   21c88:	00284100 	call	28410 <__sprint_r>
   21c8c:	103cee1e 	bne	r2,zero,21048 <___vfprintf_internal_r+0x42c>
   21c90:	843ffc04 	addi	r16,r16,-16
   21c94:	81400448 	cmpgei	r5,r16,17
   21c98:	d9001f17 	ldw	r4,124(sp)
   21c9c:	d8801e17 	ldw	r2,120(sp)
   21ca0:	8807883a 	mov	r3,r17
   21ca4:	03c00404 	movi	r15,16
   21ca8:	283fec1e 	bne	r5,zero,21c5c <___vfprintf_internal_r+0x1040>
   21cac:	980f883a 	mov	r7,r19
   21cb0:	a019883a 	mov	r12,r20
   21cb4:	b827883a 	mov	r19,r23
   21cb8:	b029883a 	mov	r20,r22
   21cbc:	902f883a 	mov	r23,r18
   21cc0:	802d883a 	mov	r22,r16
   21cc4:	1825883a 	mov	r18,r3
   21cc8:	db800f17 	ldw	r14,60(sp)
   21ccc:	db401017 	ldw	r13,64(sp)
   21cd0:	da001417 	ldw	r8,80(sp)
   21cd4:	dc001317 	ldw	r16,76(sp)
   21cd8:	d8c01217 	ldw	r3,72(sp)
   21cdc:	10800044 	addi	r2,r2,1
   21ce0:	b109883a 	add	r4,r22,r4
   21ce4:	d8801e15 	stw	r2,120(sp)
   21ce8:	95c00015 	stw	r23,0(r18)
   21cec:	95800115 	stw	r22,4(r18)
   21cf0:	d9001f15 	stw	r4,124(sp)
   21cf4:	10800208 	cmpgei	r2,r2,8
   21cf8:	1001d51e 	bne	r2,zero,22450 <___vfprintf_internal_r+0x1834>
   21cfc:	94800204 	addi	r18,r18,8
   21d00:	003c9506 	br	20f58 <___vfprintf_internal_r+0x33c>
   21d04:	180d883a 	mov	r6,r3
   21d08:	b80b883a 	mov	r5,r23
   21d0c:	9007883a 	mov	r3,r18
   21d10:	a019883a 	mov	r12,r20
   21d14:	802f883a 	mov	r23,r16
   21d18:	b029883a 	mov	r20,r22
   21d1c:	9821883a 	mov	r16,r19
   21d20:	a82d883a 	mov	r22,r21
   21d24:	2827883a 	mov	r19,r5
   21d28:	3025883a 	mov	r18,r6
   21d2c:	10800044 	addi	r2,r2,1
   21d30:	95800015 	stw	r22,0(r18)
   21d34:	95c00115 	stw	r23,4(r18)
   21d38:	25c9883a 	add	r4,r4,r23
   21d3c:	d8801e15 	stw	r2,120(sp)
   21d40:	d9001f15 	stw	r4,124(sp)
   21d44:	10800208 	cmpgei	r2,r2,8
   21d48:	103cae26 	beq	r2,zero,21004 <___vfprintf_internal_r+0x3e8>
   21d4c:	d9400417 	ldw	r5,16(sp)
   21d50:	d9000517 	ldw	r4,20(sp)
   21d54:	d9801d04 	addi	r6,sp,116
   21d58:	db000f15 	stw	r12,60(sp)
   21d5c:	d8c00815 	stw	r3,32(sp)
   21d60:	00284100 	call	28410 <__sprint_r>
   21d64:	103cb81e 	bne	r2,zero,21048 <___vfprintf_internal_r+0x42c>
   21d68:	d9001f17 	ldw	r4,124(sp)
   21d6c:	d8c00817 	ldw	r3,32(sp)
   21d70:	db000f17 	ldw	r12,60(sp)
   21d74:	8825883a 	mov	r18,r17
   21d78:	003ca306 	br	21008 <___vfprintf_internal_r+0x3ec>
   21d7c:	d9400417 	ldw	r5,16(sp)
   21d80:	d9000517 	ldw	r4,20(sp)
   21d84:	d9801d04 	addi	r6,sp,116
   21d88:	db001515 	stw	r12,84(sp)
   21d8c:	d9c01415 	stw	r7,80(sp)
   21d90:	da001315 	stw	r8,76(sp)
   21d94:	d8c01215 	stw	r3,72(sp)
   21d98:	db401015 	stw	r13,64(sp)
   21d9c:	db800f15 	stw	r14,60(sp)
   21da0:	00284100 	call	28410 <__sprint_r>
   21da4:	103ca81e 	bne	r2,zero,21048 <___vfprintf_internal_r+0x42c>
   21da8:	dd801f17 	ldw	r22,124(sp)
   21dac:	db001517 	ldw	r12,84(sp)
   21db0:	d9c01417 	ldw	r7,80(sp)
   21db4:	da001317 	ldw	r8,76(sp)
   21db8:	d8c01217 	ldw	r3,72(sp)
   21dbc:	db401017 	ldw	r13,64(sp)
   21dc0:	db800f17 	ldw	r14,60(sp)
   21dc4:	8825883a 	mov	r18,r17
   21dc8:	003c7206 	br	20f94 <___vfprintf_internal_r+0x378>
   21dcc:	d9400417 	ldw	r5,16(sp)
   21dd0:	d9000517 	ldw	r4,20(sp)
   21dd4:	d9801d04 	addi	r6,sp,116
   21dd8:	db001415 	stw	r12,80(sp)
   21ddc:	d9c01315 	stw	r7,76(sp)
   21de0:	da001215 	stw	r8,72(sp)
   21de4:	d8c01015 	stw	r3,64(sp)
   21de8:	db400f15 	stw	r13,60(sp)
   21dec:	00284100 	call	28410 <__sprint_r>
   21df0:	103c951e 	bne	r2,zero,21048 <___vfprintf_internal_r+0x42c>
   21df4:	dd801f17 	ldw	r22,124(sp)
   21df8:	db001417 	ldw	r12,80(sp)
   21dfc:	d9c01317 	ldw	r7,76(sp)
   21e00:	da001217 	ldw	r8,72(sp)
   21e04:	d8c01017 	ldw	r3,64(sp)
   21e08:	db400f17 	ldw	r13,60(sp)
   21e0c:	8825883a 	mov	r18,r17
   21e10:	003c6d06 	br	20fc8 <___vfprintf_internal_r+0x3ac>
   21e14:	ddc01717 	ldw	r23,92(sp)
   21e18:	05c1a00e 	bge	zero,r23,2249c <___vfprintf_internal_r+0x1880>
   21e1c:	d8800917 	ldw	r2,36(sp)
   21e20:	d9000817 	ldw	r4,32(sp)
   21e24:	102f883a 	mov	r23,r2
   21e28:	2080d016 	blt	r4,r2,2216c <___vfprintf_internal_r+0x1550>
   21e2c:	05c00a0e 	bge	zero,r23,21e58 <___vfprintf_internal_r+0x123c>
   21e30:	d8801e17 	ldw	r2,120(sp)
   21e34:	b5ed883a 	add	r22,r22,r23
   21e38:	95400015 	stw	r21,0(r18)
   21e3c:	10800044 	addi	r2,r2,1
   21e40:	d8801e15 	stw	r2,120(sp)
   21e44:	95c00115 	stw	r23,4(r18)
   21e48:	dd801f15 	stw	r22,124(sp)
   21e4c:	10800208 	cmpgei	r2,r2,8
   21e50:	1003921e 	bne	r2,zero,22c9c <___vfprintf_internal_r+0x2080>
   21e54:	94800204 	addi	r18,r18,8
   21e58:	b800d016 	blt	r23,zero,2219c <___vfprintf_internal_r+0x1580>
   21e5c:	d8800817 	ldw	r2,32(sp)
   21e60:	15efc83a 	sub	r23,r2,r23
   21e64:	05c0fb16 	blt	zero,r23,22254 <___vfprintf_internal_r+0x1638>
   21e68:	ddc01717 	ldw	r23,92(sp)
   21e6c:	d9000917 	ldw	r4,36(sp)
   21e70:	b900c10e 	bge	r23,r4,22178 <___vfprintf_internal_r+0x155c>
   21e74:	d8800d17 	ldw	r2,52(sp)
   21e78:	d9400c17 	ldw	r5,48(sp)
   21e7c:	90800015 	stw	r2,0(r18)
   21e80:	d8801e17 	ldw	r2,120(sp)
   21e84:	2d89883a 	add	r4,r5,r22
   21e88:	91400115 	stw	r5,4(r18)
   21e8c:	10800044 	addi	r2,r2,1
   21e90:	d8801e15 	stw	r2,120(sp)
   21e94:	d9001f15 	stw	r4,124(sp)
   21e98:	10800208 	cmpgei	r2,r2,8
   21e9c:	1003651e 	bne	r2,zero,22c34 <___vfprintf_internal_r+0x2018>
   21ea0:	94800204 	addi	r18,r18,8
   21ea4:	d8800917 	ldw	r2,36(sp)
   21ea8:	d9400817 	ldw	r5,32(sp)
   21eac:	15efc83a 	sub	r23,r2,r23
   21eb0:	1179c83a 	sub	fp,r2,r5
   21eb4:	bf00010e 	bge	r23,fp,21ebc <___vfprintf_internal_r+0x12a0>
   21eb8:	b839883a 	mov	fp,r23
   21ebc:	07000c0e 	bge	zero,fp,21ef0 <___vfprintf_internal_r+0x12d4>
   21ec0:	d8800817 	ldw	r2,32(sp)
   21ec4:	2709883a 	add	r4,r4,fp
   21ec8:	97000115 	stw	fp,4(r18)
   21ecc:	a893883a 	add	r9,r21,r2
   21ed0:	d8801e17 	ldw	r2,120(sp)
   21ed4:	92400015 	stw	r9,0(r18)
   21ed8:	d9001f15 	stw	r4,124(sp)
   21edc:	10800044 	addi	r2,r2,1
   21ee0:	d8801e15 	stw	r2,120(sp)
   21ee4:	10800208 	cmpgei	r2,r2,8
   21ee8:	10037b1e 	bne	r2,zero,22cd8 <___vfprintf_internal_r+0x20bc>
   21eec:	94800204 	addi	r18,r18,8
   21ef0:	e005883a 	mov	r2,fp
   21ef4:	e000010e 	bge	fp,zero,21efc <___vfprintf_internal_r+0x12e0>
   21ef8:	0005883a 	mov	r2,zero
   21efc:	b8afc83a 	sub	r23,r23,r2
   21f00:	05fc410e 	bge	zero,r23,21008 <___vfprintf_internal_r+0x3ec>
   21f04:	058000f4 	movhi	r22,3
   21f08:	b9400450 	cmplti	r5,r23,17
   21f0c:	d8801e17 	ldw	r2,120(sp)
   21f10:	b581b004 	addi	r22,r22,1728
   21f14:	283f851e 	bne	r5,zero,21d2c <___vfprintf_internal_r+0x1110>
   21f18:	980b883a 	mov	r5,r19
   21f1c:	d8c00815 	stw	r3,32(sp)
   21f20:	8027883a 	mov	r19,r16
   21f24:	9007883a 	mov	r3,r18
   21f28:	b821883a 	mov	r16,r23
   21f2c:	b025883a 	mov	r18,r22
   21f30:	dd400517 	ldw	r21,20(sp)
   21f34:	a02d883a 	mov	r22,r20
   21f38:	07000404 	movi	fp,16
   21f3c:	6029883a 	mov	r20,r12
   21f40:	282f883a 	mov	r23,r5
   21f44:	00000406 	br	21f58 <___vfprintf_internal_r+0x133c>
   21f48:	18c00204 	addi	r3,r3,8
   21f4c:	843ffc04 	addi	r16,r16,-16
   21f50:	81400448 	cmpgei	r5,r16,17
   21f54:	28034426 	beq	r5,zero,22c68 <___vfprintf_internal_r+0x204c>
   21f58:	10800044 	addi	r2,r2,1
   21f5c:	21000404 	addi	r4,r4,16
   21f60:	1c800015 	stw	r18,0(r3)
   21f64:	1f000115 	stw	fp,4(r3)
   21f68:	d9001f15 	stw	r4,124(sp)
   21f6c:	d8801e15 	stw	r2,120(sp)
   21f70:	11400208 	cmpgei	r5,r2,8
   21f74:	283ff426 	beq	r5,zero,21f48 <___vfprintf_internal_r+0x132c>
   21f78:	d9400417 	ldw	r5,16(sp)
   21f7c:	d9801d04 	addi	r6,sp,116
   21f80:	a809883a 	mov	r4,r21
   21f84:	00284100 	call	28410 <__sprint_r>
   21f88:	103c2f1e 	bne	r2,zero,21048 <___vfprintf_internal_r+0x42c>
   21f8c:	d9001f17 	ldw	r4,124(sp)
   21f90:	d8801e17 	ldw	r2,120(sp)
   21f94:	8807883a 	mov	r3,r17
   21f98:	003fec06 	br	21f4c <___vfprintf_internal_r+0x1330>
   21f9c:	1880004c 	andi	r2,r3,1
   21fa0:	103edd1e 	bne	r2,zero,21b18 <___vfprintf_internal_r+0xefc>
   21fa4:	da001e17 	ldw	r8,120(sp)
   21fa8:	00800044 	movi	r2,1
   21fac:	b7000044 	addi	fp,r22,1
   21fb0:	42000044 	addi	r8,r8,1
   21fb4:	90800115 	stw	r2,4(r18)
   21fb8:	95400015 	stw	r21,0(r18)
   21fbc:	df001f15 	stw	fp,124(sp)
   21fc0:	da001e15 	stw	r8,120(sp)
   21fc4:	40800210 	cmplti	r2,r8,8
   21fc8:	103f001e 	bne	r2,zero,21bcc <___vfprintf_internal_r+0xfb0>
   21fcc:	d9400417 	ldw	r5,16(sp)
   21fd0:	d9000517 	ldw	r4,20(sp)
   21fd4:	d9801d04 	addi	r6,sp,116
   21fd8:	db000f15 	stw	r12,60(sp)
   21fdc:	d8c00815 	stw	r3,32(sp)
   21fe0:	00284100 	call	28410 <__sprint_r>
   21fe4:	103c181e 	bne	r2,zero,21048 <___vfprintf_internal_r+0x42c>
   21fe8:	df001f17 	ldw	fp,124(sp)
   21fec:	da001e17 	ldw	r8,120(sp)
   21ff0:	db000f17 	ldw	r12,60(sp)
   21ff4:	d8c00817 	ldw	r3,32(sp)
   21ff8:	882f883a 	mov	r23,r17
   21ffc:	003ef306 	br	21bcc <___vfprintf_internal_r+0xfb0>
   22000:	000f883a 	mov	r7,zero
   22004:	882b883a 	mov	r21,r17
   22008:	003c8c06 	br	2123c <___vfprintf_internal_r+0x620>
   2200c:	d8800917 	ldw	r2,36(sp)
   22010:	10800090 	cmplti	r2,r2,2
   22014:	103eed1e 	bne	r2,zero,21bcc <___vfprintf_internal_r+0xfb0>
   22018:	d8800917 	ldw	r2,36(sp)
   2201c:	058000f4 	movhi	r22,3
   22020:	b581b004 	addi	r22,r22,1728
   22024:	10800490 	cmplti	r2,r2,18
   22028:	1002061e 	bne	r2,zero,22844 <___vfprintf_internal_r+0x1c28>
   2202c:	9809883a 	mov	r4,r19
   22030:	b805883a 	mov	r2,r23
   22034:	1827883a 	mov	r19,r3
   22038:	a02f883a 	mov	r23,r20
   2203c:	e007883a 	mov	r3,fp
   22040:	8029883a 	mov	r20,r16
   22044:	05400404 	movi	r21,16
   22048:	9021883a 	mov	r16,r18
   2204c:	2039883a 	mov	fp,r4
   22050:	b025883a 	mov	r18,r22
   22054:	602d883a 	mov	r22,r12
   22058:	00000406 	br	2206c <___vfprintf_internal_r+0x1450>
   2205c:	10800204 	addi	r2,r2,8
   22060:	843ffc04 	addi	r16,r16,-16
   22064:	81000448 	cmpgei	r4,r16,17
   22068:	2001ec26 	beq	r4,zero,2281c <___vfprintf_internal_r+0x1c00>
   2206c:	42000044 	addi	r8,r8,1
   22070:	18c00404 	addi	r3,r3,16
   22074:	14800015 	stw	r18,0(r2)
   22078:	15400115 	stw	r21,4(r2)
   2207c:	d8c01f15 	stw	r3,124(sp)
   22080:	da001e15 	stw	r8,120(sp)
   22084:	41000208 	cmpgei	r4,r8,8
   22088:	203ff426 	beq	r4,zero,2205c <___vfprintf_internal_r+0x1440>
   2208c:	d9400417 	ldw	r5,16(sp)
   22090:	d9000517 	ldw	r4,20(sp)
   22094:	d9801d04 	addi	r6,sp,116
   22098:	00284100 	call	28410 <__sprint_r>
   2209c:	103bea1e 	bne	r2,zero,21048 <___vfprintf_internal_r+0x42c>
   220a0:	d8c01f17 	ldw	r3,124(sp)
   220a4:	da001e17 	ldw	r8,120(sp)
   220a8:	8805883a 	mov	r2,r17
   220ac:	003fec06 	br	22060 <___vfprintf_internal_r+0x1444>
   220b0:	d9400417 	ldw	r5,16(sp)
   220b4:	d9000517 	ldw	r4,20(sp)
   220b8:	d9801d04 	addi	r6,sp,116
   220bc:	db001215 	stw	r12,72(sp)
   220c0:	d9c01015 	stw	r7,64(sp)
   220c4:	d8c00f15 	stw	r3,60(sp)
   220c8:	00284100 	call	28410 <__sprint_r>
   220cc:	103bde1e 	bne	r2,zero,21048 <___vfprintf_internal_r+0x42c>
   220d0:	dd801f17 	ldw	r22,124(sp)
   220d4:	db001217 	ldw	r12,72(sp)
   220d8:	d9c01017 	ldw	r7,64(sp)
   220dc:	d8c00f17 	ldw	r3,60(sp)
   220e0:	8825883a 	mov	r18,r17
   220e4:	003bbc06 	br	20fd8 <___vfprintf_internal_r+0x3bc>
   220e8:	d9400417 	ldw	r5,16(sp)
   220ec:	d9000517 	ldw	r4,20(sp)
   220f0:	d9801d04 	addi	r6,sp,116
   220f4:	db000f15 	stw	r12,60(sp)
   220f8:	d8c00815 	stw	r3,32(sp)
   220fc:	00284100 	call	28410 <__sprint_r>
   22100:	103bd11e 	bne	r2,zero,21048 <___vfprintf_internal_r+0x42c>
   22104:	d9001f17 	ldw	r4,124(sp)
   22108:	db000f17 	ldw	r12,60(sp)
   2210c:	d8c00817 	ldw	r3,32(sp)
   22110:	8825883a 	mov	r18,r17
   22114:	003bbc06 	br	21008 <___vfprintf_internal_r+0x3ec>
   22118:	6b400414 	ori	r13,r13,16
   2211c:	003b0f06 	br	20d5c <___vfprintf_internal_r+0x140>
   22120:	a2c00007 	ldb	r11,0(r20)
   22124:	d8800715 	stw	r2,28(sp)
   22128:	003b0c06 	br	20d5c <___vfprintf_internal_r+0x140>
   2212c:	882b883a 	mov	r21,r17
   22130:	003c4206 	br	2123c <___vfprintf_internal_r+0x620>
   22134:	18800017 	ldw	r2,0(r3)
   22138:	d8800a15 	stw	r2,40(sp)
   2213c:	18800117 	ldw	r2,4(r3)
   22140:	d8800b15 	stw	r2,44(sp)
   22144:	003c9e06 	br	213c0 <___vfprintf_internal_r+0x7a4>
   22148:	6880040c 	andi	r2,r13,16
   2214c:	1000921e 	bne	r2,zero,22398 <___vfprintf_internal_r+0x177c>
   22150:	6b40100c 	andi	r13,r13,64
   22154:	68009026 	beq	r13,zero,22398 <___vfprintf_internal_r+0x177c>
   22158:	d8800717 	ldw	r2,28(sp)
   2215c:	d8c00617 	ldw	r3,24(sp)
   22160:	10800017 	ldw	r2,0(r2)
   22164:	10c0000d 	sth	r3,0(r2)
   22168:	003d7406 	br	2173c <___vfprintf_internal_r+0xb20>
   2216c:	202f883a 	mov	r23,r4
   22170:	05ff2f16 	blt	zero,r23,21e30 <___vfprintf_internal_r+0x1214>
   22174:	003f3806 	br	21e58 <___vfprintf_internal_r+0x123c>
   22178:	1880004c 	andi	r2,r3,1
   2217c:	103f3d1e 	bne	r2,zero,21e74 <___vfprintf_internal_r+0x1258>
   22180:	d8800817 	ldw	r2,32(sp)
   22184:	25efc83a 	sub	r23,r4,r23
   22188:	20b9c83a 	sub	fp,r4,r2
   2218c:	b009883a 	mov	r4,r22
   22190:	bf3f570e 	bge	r23,fp,21ef0 <___vfprintf_internal_r+0x12d4>
   22194:	b839883a 	mov	fp,r23
   22198:	003f5506 	br	21ef0 <___vfprintf_internal_r+0x12d4>
   2219c:	002f883a 	mov	r23,zero
   221a0:	003f2e06 	br	21e5c <___vfprintf_internal_r+0x1240>
   221a4:	d9400417 	ldw	r5,16(sp)
   221a8:	d9000517 	ldw	r4,20(sp)
   221ac:	d9801d04 	addi	r6,sp,116
   221b0:	db000f15 	stw	r12,60(sp)
   221b4:	d8c00815 	stw	r3,32(sp)
   221b8:	00284100 	call	28410 <__sprint_r>
   221bc:	103ba21e 	bne	r2,zero,21048 <___vfprintf_internal_r+0x42c>
   221c0:	d9001f17 	ldw	r4,124(sp)
   221c4:	db000f17 	ldw	r12,60(sp)
   221c8:	d8c00817 	ldw	r3,32(sp)
   221cc:	8825883a 	mov	r18,r17
   221d0:	003d8a06 	br	217fc <___vfprintf_internal_r+0xbe0>
   221d4:	008000f4 	movhi	r2,3
   221d8:	1081a304 	addi	r2,r2,1676
   221dc:	d8800e15 	stw	r2,56(sp)
   221e0:	6880080c 	andi	r2,r13,32
   221e4:	10007326 	beq	r2,zero,223b4 <___vfprintf_internal_r+0x1798>
   221e8:	d8800717 	ldw	r2,28(sp)
   221ec:	15800017 	ldw	r22,0(r2)
   221f0:	15c00117 	ldw	r23,4(r2)
   221f4:	10800204 	addi	r2,r2,8
   221f8:	d8800715 	stw	r2,28(sp)
   221fc:	6880004c 	andi	r2,r13,1
   22200:	10006a26 	beq	r2,zero,223ac <___vfprintf_internal_r+0x1790>
   22204:	b5c4b03a 	or	r2,r22,r23
   22208:	10006826 	beq	r2,zero,223ac <___vfprintf_internal_r+0x1790>
   2220c:	00800c04 	movi	r2,48
   22210:	d8801685 	stb	r2,90(sp)
   22214:	df0016c5 	stb	fp,91(sp)
   22218:	6b400094 	ori	r13,r13,2
   2221c:	00800084 	movi	r2,2
   22220:	003be306 	br	211b0 <___vfprintf_internal_r+0x594>
   22224:	408001f0 	cmpltui	r2,r8,7
   22228:	400f883a 	mov	r7,r8
   2222c:	1001bf26 	beq	r2,zero,2292c <___vfprintf_internal_r+0x1d10>
   22230:	054000f4 	movhi	r21,3
   22234:	3819883a 	mov	r12,r7
   22238:	dd800715 	stw	r22,28(sp)
   2223c:	ad41ad04 	addi	r21,r21,1716
   22240:	003b3b06 	br	20f30 <___vfprintf_internal_r+0x314>
   22244:	008000f4 	movhi	r2,3
   22248:	1081a804 	addi	r2,r2,1696
   2224c:	d8800e15 	stw	r2,56(sp)
   22250:	003fe306 	br	221e0 <___vfprintf_internal_r+0x15c4>
   22254:	b009883a 	mov	r4,r22
   22258:	b9400450 	cmplti	r5,r23,17
   2225c:	058000f4 	movhi	r22,3
   22260:	d8801e17 	ldw	r2,120(sp)
   22264:	b581b004 	addi	r22,r22,1728
   22268:	2801901e 	bne	r5,zero,228ac <___vfprintf_internal_r+0x1c90>
   2226c:	980b883a 	mov	r5,r19
   22270:	d8c00f15 	stw	r3,60(sp)
   22274:	8027883a 	mov	r19,r16
   22278:	9007883a 	mov	r3,r18
   2227c:	b821883a 	mov	r16,r23
   22280:	b025883a 	mov	r18,r22
   22284:	07000404 	movi	fp,16
   22288:	a02d883a 	mov	r22,r20
   2228c:	282f883a 	mov	r23,r5
   22290:	6029883a 	mov	r20,r12
   22294:	00000406 	br	222a8 <___vfprintf_internal_r+0x168c>
   22298:	18c00204 	addi	r3,r3,8
   2229c:	843ffc04 	addi	r16,r16,-16
   222a0:	81400448 	cmpgei	r5,r16,17
   222a4:	28017826 	beq	r5,zero,22888 <___vfprintf_internal_r+0x1c6c>
   222a8:	10800044 	addi	r2,r2,1
   222ac:	21000404 	addi	r4,r4,16
   222b0:	1c800015 	stw	r18,0(r3)
   222b4:	1f000115 	stw	fp,4(r3)
   222b8:	d9001f15 	stw	r4,124(sp)
   222bc:	d8801e15 	stw	r2,120(sp)
   222c0:	11400208 	cmpgei	r5,r2,8
   222c4:	283ff426 	beq	r5,zero,22298 <___vfprintf_internal_r+0x167c>
   222c8:	d9400417 	ldw	r5,16(sp)
   222cc:	d9000517 	ldw	r4,20(sp)
   222d0:	d9801d04 	addi	r6,sp,116
   222d4:	00284100 	call	28410 <__sprint_r>
   222d8:	103b5b1e 	bne	r2,zero,21048 <___vfprintf_internal_r+0x42c>
   222dc:	d9001f17 	ldw	r4,124(sp)
   222e0:	d8801e17 	ldw	r2,120(sp)
   222e4:	8807883a 	mov	r3,r17
   222e8:	003fec06 	br	2229c <___vfprintf_internal_r+0x1680>
   222ec:	b007883a 	mov	r3,r22
   222f0:	9805883a 	mov	r2,r19
   222f4:	dc000f15 	stw	r16,60(sp)
   222f8:	a02d883a 	mov	r22,r20
   222fc:	b827883a 	mov	r19,r23
   22300:	9029883a 	mov	r20,r18
   22304:	db400815 	stw	r13,32(sp)
   22308:	8821883a 	mov	r16,r17
   2230c:	da001015 	stw	r8,64(sp)
   22310:	202b883a 	mov	r21,r4
   22314:	102f883a 	mov	r23,r2
   22318:	1825883a 	mov	r18,r3
   2231c:	9009883a 	mov	r4,r18
   22320:	980b883a 	mov	r5,r19
   22324:	01800284 	movi	r6,10
   22328:	000f883a 	mov	r7,zero
   2232c:	002adf80 	call	2adf8 <__umoddi3>
   22330:	10800c04 	addi	r2,r2,48
   22334:	9009883a 	mov	r4,r18
   22338:	980b883a 	mov	r5,r19
   2233c:	01800284 	movi	r6,10
   22340:	000f883a 	mov	r7,zero
   22344:	80bfffc5 	stb	r2,-1(r16)
   22348:	002a8a80 	call	2a8a8 <__udivdi3>
   2234c:	980d883a 	mov	r6,r19
   22350:	900f883a 	mov	r7,r18
   22354:	843fffc4 	addi	r16,r16,-1
   22358:	1025883a 	mov	r18,r2
   2235c:	1827883a 	mov	r19,r3
   22360:	303fee1e 	bne	r6,zero,2231c <___vfprintf_internal_r+0x1700>
   22364:	39c002a8 	cmpgeui	r7,r7,10
   22368:	383fec1e 	bne	r7,zero,2231c <___vfprintf_internal_r+0x1700>
   2236c:	db400817 	ldw	r13,32(sp)
   22370:	a809883a 	mov	r4,r21
   22374:	802b883a 	mov	r21,r16
   22378:	a025883a 	mov	r18,r20
   2237c:	da001017 	ldw	r8,64(sp)
   22380:	dc000f17 	ldw	r16,60(sp)
   22384:	b029883a 	mov	r20,r22
   22388:	b827883a 	mov	r19,r23
   2238c:	8d4fc83a 	sub	r7,r17,r21
   22390:	6807883a 	mov	r3,r13
   22394:	003ba906 	br	2123c <___vfprintf_internal_r+0x620>
   22398:	d8800717 	ldw	r2,28(sp)
   2239c:	d8c00617 	ldw	r3,24(sp)
   223a0:	10800017 	ldw	r2,0(r2)
   223a4:	10c00015 	stw	r3,0(r2)
   223a8:	003ce406 	br	2173c <___vfprintf_internal_r+0xb20>
   223ac:	00800084 	movi	r2,2
   223b0:	003b7f06 	br	211b0 <___vfprintf_internal_r+0x594>
   223b4:	d8c00717 	ldw	r3,28(sp)
   223b8:	6880040c 	andi	r2,r13,16
   223bc:	1d800017 	ldw	r22,0(r3)
   223c0:	18c00104 	addi	r3,r3,4
   223c4:	d8c00715 	stw	r3,28(sp)
   223c8:	1000051e 	bne	r2,zero,223e0 <___vfprintf_internal_r+0x17c4>
   223cc:	6880100c 	andi	r2,r13,64
   223d0:	10000326 	beq	r2,zero,223e0 <___vfprintf_internal_r+0x17c4>
   223d4:	b5bfffcc 	andi	r22,r22,65535
   223d8:	002f883a 	mov	r23,zero
   223dc:	003f8706 	br	221fc <___vfprintf_internal_r+0x15e0>
   223e0:	002f883a 	mov	r23,zero
   223e4:	003f8506 	br	221fc <___vfprintf_internal_r+0x15e0>
   223e8:	d9400417 	ldw	r5,16(sp)
   223ec:	d9000517 	ldw	r4,20(sp)
   223f0:	d9801d04 	addi	r6,sp,116
   223f4:	db000f15 	stw	r12,60(sp)
   223f8:	d8c00815 	stw	r3,32(sp)
   223fc:	00284100 	call	28410 <__sprint_r>
   22400:	103b111e 	bne	r2,zero,21048 <___vfprintf_internal_r+0x42c>
   22404:	dd801f17 	ldw	r22,124(sp)
   22408:	da001e17 	ldw	r8,120(sp)
   2240c:	db000f17 	ldw	r12,60(sp)
   22410:	d8c00817 	ldw	r3,32(sp)
   22414:	882f883a 	mov	r23,r17
   22418:	003dc906 	br	21b40 <___vfprintf_internal_r+0xf24>
   2241c:	d9400417 	ldw	r5,16(sp)
   22420:	d9000517 	ldw	r4,20(sp)
   22424:	d9801d04 	addi	r6,sp,116
   22428:	db000f15 	stw	r12,60(sp)
   2242c:	d8c00815 	stw	r3,32(sp)
   22430:	00284100 	call	28410 <__sprint_r>
   22434:	103b041e 	bne	r2,zero,21048 <___vfprintf_internal_r+0x42c>
   22438:	df001f17 	ldw	fp,124(sp)
   2243c:	da001e17 	ldw	r8,120(sp)
   22440:	db000f17 	ldw	r12,60(sp)
   22444:	d8c00817 	ldw	r3,32(sp)
   22448:	882f883a 	mov	r23,r17
   2244c:	003dc706 	br	21b6c <___vfprintf_internal_r+0xf50>
   22450:	d9400417 	ldw	r5,16(sp)
   22454:	d9000517 	ldw	r4,20(sp)
   22458:	d9801d04 	addi	r6,sp,116
   2245c:	db001515 	stw	r12,84(sp)
   22460:	d9c01415 	stw	r7,80(sp)
   22464:	da001315 	stw	r8,76(sp)
   22468:	d8c01215 	stw	r3,72(sp)
   2246c:	db401015 	stw	r13,64(sp)
   22470:	db800f15 	stw	r14,60(sp)
   22474:	00284100 	call	28410 <__sprint_r>
   22478:	103af31e 	bne	r2,zero,21048 <___vfprintf_internal_r+0x42c>
   2247c:	db001517 	ldw	r12,84(sp)
   22480:	d9c01417 	ldw	r7,80(sp)
   22484:	da001317 	ldw	r8,76(sp)
   22488:	d8c01217 	ldw	r3,72(sp)
   2248c:	db401017 	ldw	r13,64(sp)
   22490:	db800f17 	ldw	r14,60(sp)
   22494:	8825883a 	mov	r18,r17
   22498:	003aaf06 	br	20f58 <___vfprintf_internal_r+0x33c>
   2249c:	d8801e17 	ldw	r2,120(sp)
   224a0:	014000f4 	movhi	r5,3
   224a4:	2941af04 	addi	r5,r5,1724
   224a8:	10800044 	addi	r2,r2,1
   224ac:	b1000044 	addi	r4,r22,1
   224b0:	91400015 	stw	r5,0(r18)
   224b4:	01400044 	movi	r5,1
   224b8:	d8801e15 	stw	r2,120(sp)
   224bc:	91400115 	stw	r5,4(r18)
   224c0:	d9001f15 	stw	r4,124(sp)
   224c4:	10800208 	cmpgei	r2,r2,8
   224c8:	1001071e 	bne	r2,zero,228e8 <___vfprintf_internal_r+0x1ccc>
   224cc:	94800204 	addi	r18,r18,8
   224d0:	b800a31e 	bne	r23,zero,22760 <___vfprintf_internal_r+0x1b44>
   224d4:	d9400917 	ldw	r5,36(sp)
   224d8:	1880004c 	andi	r2,r3,1
   224dc:	1144b03a 	or	r2,r2,r5
   224e0:	103ac926 	beq	r2,zero,21008 <___vfprintf_internal_r+0x3ec>
   224e4:	d8800d17 	ldw	r2,52(sp)
   224e8:	d9400c17 	ldw	r5,48(sp)
   224ec:	90800015 	stw	r2,0(r18)
   224f0:	d8801e17 	ldw	r2,120(sp)
   224f4:	2909883a 	add	r4,r5,r4
   224f8:	91400115 	stw	r5,4(r18)
   224fc:	10800044 	addi	r2,r2,1
   22500:	d9001f15 	stw	r4,124(sp)
   22504:	d8801e15 	stw	r2,120(sp)
   22508:	11400208 	cmpgei	r5,r2,8
   2250c:	28010e1e 	bne	r5,zero,22948 <___vfprintf_internal_r+0x1d2c>
   22510:	94800204 	addi	r18,r18,8
   22514:	d9400917 	ldw	r5,36(sp)
   22518:	10800044 	addi	r2,r2,1
   2251c:	d8801e15 	stw	r2,120(sp)
   22520:	2909883a 	add	r4,r5,r4
   22524:	95400015 	stw	r21,0(r18)
   22528:	91400115 	stw	r5,4(r18)
   2252c:	d9001f15 	stw	r4,124(sp)
   22530:	10800208 	cmpgei	r2,r2,8
   22534:	103ab326 	beq	r2,zero,21004 <___vfprintf_internal_r+0x3e8>
   22538:	003e0406 	br	21d4c <___vfprintf_internal_r+0x1130>
   2253c:	d9000a17 	ldw	r4,40(sp)
   22540:	d9400b17 	ldw	r5,44(sp)
   22544:	da000815 	stw	r8,32(sp)
   22548:	200d883a 	mov	r6,r4
   2254c:	280f883a 	mov	r7,r5
   22550:	db400715 	stw	r13,28(sp)
   22554:	002d7500 	call	2d750 <__unorddf2>
   22558:	db400717 	ldw	r13,28(sp)
   2255c:	da000817 	ldw	r8,32(sp)
   22560:	10024c1e 	bne	r2,zero,22e94 <___vfprintf_internal_r+0x2278>
   22564:	057ff7c4 	movi	r21,-33
   22568:	40bfffe0 	cmpeqi	r2,r8,-1
   2256c:	e56c703a 	and	r22,fp,r21
   22570:	1001d71e 	bne	r2,zero,22cd0 <___vfprintf_internal_r+0x20b4>
   22574:	b08011d8 	cmpnei	r2,r22,71
   22578:	1001c526 	beq	r2,zero,22c90 <___vfprintf_internal_r+0x2074>
   2257c:	d8800b17 	ldw	r2,44(sp)
   22580:	68c04014 	ori	r3,r13,256
   22584:	1000e516 	blt	r2,zero,2291c <___vfprintf_internal_r+0x1d00>
   22588:	ddc00b17 	ldw	r23,44(sp)
   2258c:	d8000705 	stb	zero,28(sp)
   22590:	e08019a0 	cmpeqi	r2,fp,102
   22594:	d8801015 	stw	r2,64(sp)
   22598:	10017c1e 	bne	r2,zero,22b8c <___vfprintf_internal_r+0x1f70>
   2259c:	b0801158 	cmpnei	r2,r22,69
   225a0:	1000f826 	beq	r2,zero,22984 <___vfprintf_internal_r+0x1d68>
   225a4:	d8801b04 	addi	r2,sp,108
   225a8:	d9000517 	ldw	r4,20(sp)
   225ac:	d8800315 	stw	r2,12(sp)
   225b0:	d9400a17 	ldw	r5,40(sp)
   225b4:	d8801804 	addi	r2,sp,96
   225b8:	d8800215 	stw	r2,8(sp)
   225bc:	d8801704 	addi	r2,sp,92
   225c0:	da000015 	stw	r8,0(sp)
   225c4:	d8800115 	stw	r2,4(sp)
   225c8:	01c00084 	movi	r7,2
   225cc:	b80d883a 	mov	r6,r23
   225d0:	d8c01215 	stw	r3,72(sp)
   225d4:	db400915 	stw	r13,36(sp)
   225d8:	da000815 	stw	r8,32(sp)
   225dc:	00233ec0 	call	233ec <_dtoa_r>
   225e0:	e10019e0 	cmpeqi	r4,fp,103
   225e4:	da000817 	ldw	r8,32(sp)
   225e8:	db400917 	ldw	r13,36(sp)
   225ec:	d8c01217 	ldw	r3,72(sp)
   225f0:	102b883a 	mov	r21,r2
   225f4:	20010b26 	beq	r4,zero,22a24 <___vfprintf_internal_r+0x1e08>
   225f8:	6880004c 	andi	r2,r13,1
   225fc:	10010b26 	beq	r2,zero,22a2c <___vfprintf_internal_r+0x1e10>
   22600:	aa19883a 	add	r12,r21,r8
   22604:	d9000a17 	ldw	r4,40(sp)
   22608:	000d883a 	mov	r6,zero
   2260c:	000f883a 	mov	r7,zero
   22610:	b80b883a 	mov	r5,r23
   22614:	db001315 	stw	r12,76(sp)
   22618:	da001215 	stw	r8,72(sp)
   2261c:	d8c00915 	stw	r3,36(sp)
   22620:	db400815 	stw	r13,32(sp)
   22624:	002c4540 	call	2c454 <__eqdf2>
   22628:	db400817 	ldw	r13,32(sp)
   2262c:	d8c00917 	ldw	r3,36(sp)
   22630:	da001217 	ldw	r8,72(sp)
   22634:	db001317 	ldw	r12,76(sp)
   22638:	10023326 	beq	r2,zero,22f08 <___vfprintf_internal_r+0x22ec>
   2263c:	d8801b17 	ldw	r2,108(sp)
   22640:	1300062e 	bgeu	r2,r12,2265c <___vfprintf_internal_r+0x1a40>
   22644:	01400c04 	movi	r5,48
   22648:	11000044 	addi	r4,r2,1
   2264c:	d9001b15 	stw	r4,108(sp)
   22650:	11400005 	stb	r5,0(r2)
   22654:	d8801b17 	ldw	r2,108(sp)
   22658:	133ffb36 	bltu	r2,r12,22648 <___vfprintf_internal_r+0x1a2c>
   2265c:	d9c01717 	ldw	r7,92(sp)
   22660:	1545c83a 	sub	r2,r2,r21
   22664:	b10011d8 	cmpnei	r4,r22,71
   22668:	d8800915 	stw	r2,36(sp)
   2266c:	d9c00815 	stw	r7,32(sp)
   22670:	2000f226 	beq	r4,zero,22a3c <___vfprintf_internal_r+0x1e20>
   22674:	d8801017 	ldw	r2,64(sp)
   22678:	10021d26 	beq	r2,zero,22ef0 <___vfprintf_internal_r+0x22d4>
   2267c:	d9000817 	ldw	r4,32(sp)
   22680:	6880004c 	andi	r2,r13,1
   22684:	1204b03a 	or	r2,r2,r8
   22688:	0102430e 	bge	zero,r4,22f98 <___vfprintf_internal_r+0x237c>
   2268c:	1002221e 	bne	r2,zero,22f18 <___vfprintf_internal_r+0x22fc>
   22690:	d9c00817 	ldw	r7,32(sp)
   22694:	3819883a 	mov	r12,r7
   22698:	07001984 	movi	fp,102
   2269c:	ddc00707 	ldb	r23,28(sp)
   226a0:	b8013526 	beq	r23,zero,22b78 <___vfprintf_internal_r+0x1f5c>
   226a4:	00800b44 	movi	r2,45
   226a8:	d8801645 	stb	r2,89(sp)
   226ac:	d8800f17 	ldw	r2,60(sp)
   226b0:	0011883a 	mov	r8,zero
   226b4:	d8800715 	stw	r2,28(sp)
   226b8:	003ae806 	br	2125c <___vfprintf_internal_r+0x640>
   226bc:	d9400417 	ldw	r5,16(sp)
   226c0:	d9000517 	ldw	r4,20(sp)
   226c4:	d9801d04 	addi	r6,sp,116
   226c8:	db000f15 	stw	r12,60(sp)
   226cc:	d8c00815 	stw	r3,32(sp)
   226d0:	00284100 	call	28410 <__sprint_r>
   226d4:	103a5c1e 	bne	r2,zero,21048 <___vfprintf_internal_r+0x42c>
   226d8:	dd801f17 	ldw	r22,124(sp)
   226dc:	db000f17 	ldw	r12,60(sp)
   226e0:	d8c00817 	ldw	r3,32(sp)
   226e4:	8825883a 	mov	r18,r17
   226e8:	003c3106 	br	217b0 <___vfprintf_internal_r+0xb94>
   226ec:	d9400417 	ldw	r5,16(sp)
   226f0:	d9000517 	ldw	r4,20(sp)
   226f4:	d9801d04 	addi	r6,sp,116
   226f8:	db000f15 	stw	r12,60(sp)
   226fc:	d8c00815 	stw	r3,32(sp)
   22700:	00284100 	call	28410 <__sprint_r>
   22704:	103a501e 	bne	r2,zero,21048 <___vfprintf_internal_r+0x42c>
   22708:	df001f17 	ldw	fp,124(sp)
   2270c:	da001e17 	ldw	r8,120(sp)
   22710:	d8c00817 	ldw	r3,32(sp)
   22714:	db000f17 	ldw	r12,60(sp)
   22718:	882f883a 	mov	r23,r17
   2271c:	003d2b06 	br	21bcc <___vfprintf_internal_r+0xfb0>
   22720:	d9400417 	ldw	r5,16(sp)
   22724:	d9000517 	ldw	r4,20(sp)
   22728:	d9801d04 	addi	r6,sp,116
   2272c:	db001315 	stw	r12,76(sp)
   22730:	d9c01215 	stw	r7,72(sp)
   22734:	da001015 	stw	r8,64(sp)
   22738:	d8c00f15 	stw	r3,60(sp)
   2273c:	00284100 	call	28410 <__sprint_r>
   22740:	103a411e 	bne	r2,zero,21048 <___vfprintf_internal_r+0x42c>
   22744:	dd801f17 	ldw	r22,124(sp)
   22748:	db001317 	ldw	r12,76(sp)
   2274c:	d9c01217 	ldw	r7,72(sp)
   22750:	da001017 	ldw	r8,64(sp)
   22754:	d8c00f17 	ldw	r3,60(sp)
   22758:	8825883a 	mov	r18,r17
   2275c:	003a1c06 	br	20fd0 <___vfprintf_internal_r+0x3b4>
   22760:	d8800d17 	ldw	r2,52(sp)
   22764:	d9400c17 	ldw	r5,48(sp)
   22768:	90800015 	stw	r2,0(r18)
   2276c:	d8801e17 	ldw	r2,120(sp)
   22770:	2909883a 	add	r4,r5,r4
   22774:	91400115 	stw	r5,4(r18)
   22778:	10800044 	addi	r2,r2,1
   2277c:	d9001f15 	stw	r4,124(sp)
   22780:	d8801e15 	stw	r2,120(sp)
   22784:	11400208 	cmpgei	r5,r2,8
   22788:	28006f1e 	bne	r5,zero,22948 <___vfprintf_internal_r+0x1d2c>
   2278c:	94800204 	addi	r18,r18,8
   22790:	b83f600e 	bge	r23,zero,22514 <___vfprintf_internal_r+0x18f8>
   22794:	058000f4 	movhi	r22,3
   22798:	b97ffc08 	cmpgei	r5,r23,-16
   2279c:	b581b004 	addi	r22,r22,1728
   227a0:	05efc83a 	sub	r23,zero,r23
   227a4:	2801941e 	bne	r5,zero,22df8 <___vfprintf_internal_r+0x21dc>
   227a8:	d8c00815 	stw	r3,32(sp)
   227ac:	07000404 	movi	fp,16
   227b0:	9007883a 	mov	r3,r18
   227b4:	8025883a 	mov	r18,r16
   227b8:	b021883a 	mov	r16,r22
   227bc:	982d883a 	mov	r22,r19
   227c0:	6027883a 	mov	r19,r12
   227c4:	00000406 	br	227d8 <___vfprintf_internal_r+0x1bbc>
   227c8:	18c00204 	addi	r3,r3,8
   227cc:	bdfffc04 	addi	r23,r23,-16
   227d0:	b9400448 	cmpgei	r5,r23,17
   227d4:	28018226 	beq	r5,zero,22de0 <___vfprintf_internal_r+0x21c4>
   227d8:	10800044 	addi	r2,r2,1
   227dc:	21000404 	addi	r4,r4,16
   227e0:	1c000015 	stw	r16,0(r3)
   227e4:	1f000115 	stw	fp,4(r3)
   227e8:	d9001f15 	stw	r4,124(sp)
   227ec:	d8801e15 	stw	r2,120(sp)
   227f0:	11400208 	cmpgei	r5,r2,8
   227f4:	283ff426 	beq	r5,zero,227c8 <___vfprintf_internal_r+0x1bac>
   227f8:	d9400417 	ldw	r5,16(sp)
   227fc:	d9000517 	ldw	r4,20(sp)
   22800:	d9801d04 	addi	r6,sp,116
   22804:	00284100 	call	28410 <__sprint_r>
   22808:	103a0f1e 	bne	r2,zero,21048 <___vfprintf_internal_r+0x42c>
   2280c:	d9001f17 	ldw	r4,124(sp)
   22810:	d8801e17 	ldw	r2,120(sp)
   22814:	8807883a 	mov	r3,r17
   22818:	003fec06 	br	227cc <___vfprintf_internal_r+0x1bb0>
   2281c:	b019883a 	mov	r12,r22
   22820:	902d883a 	mov	r22,r18
   22824:	8025883a 	mov	r18,r16
   22828:	a021883a 	mov	r16,r20
   2282c:	b829883a 	mov	r20,r23
   22830:	102f883a 	mov	r23,r2
   22834:	e005883a 	mov	r2,fp
   22838:	1839883a 	mov	fp,r3
   2283c:	9807883a 	mov	r3,r19
   22840:	1027883a 	mov	r19,r2
   22844:	42000044 	addi	r8,r8,1
   22848:	e4b9883a 	add	fp,fp,r18
   2284c:	bd800015 	stw	r22,0(r23)
   22850:	003cd806 	br	21bb4 <___vfprintf_internal_r+0xf98>
   22854:	a809883a 	mov	r4,r21
   22858:	0020b840 	call	20b84 <strlen>
   2285c:	db400817 	ldw	r13,32(sp)
   22860:	100f883a 	mov	r7,r2
   22864:	1019883a 	mov	r12,r2
   22868:	dd800715 	stw	r22,28(sp)
   2286c:	0039b006 	br	20f30 <___vfprintf_internal_r+0x314>
   22870:	054000f4 	movhi	r21,3
   22874:	ad419f04 	addi	r21,r21,1660
   22878:	003af606 	br	21454 <___vfprintf_internal_r+0x838>
   2287c:	058000f4 	movhi	r22,3
   22880:	b581b004 	addi	r22,r22,1728
   22884:	003c7806 	br	21a68 <___vfprintf_internal_r+0xe4c>
   22888:	a019883a 	mov	r12,r20
   2288c:	b029883a 	mov	r20,r22
   22890:	902d883a 	mov	r22,r18
   22894:	1825883a 	mov	r18,r3
   22898:	d8c00f17 	ldw	r3,60(sp)
   2289c:	b80b883a 	mov	r5,r23
   228a0:	802f883a 	mov	r23,r16
   228a4:	9821883a 	mov	r16,r19
   228a8:	2827883a 	mov	r19,r5
   228ac:	10800044 	addi	r2,r2,1
   228b0:	b909883a 	add	r4,r23,r4
   228b4:	d8801e15 	stw	r2,120(sp)
   228b8:	95800015 	stw	r22,0(r18)
   228bc:	95c00115 	stw	r23,4(r18)
   228c0:	d9001f15 	stw	r4,124(sp)
   228c4:	10800208 	cmpgei	r2,r2,8
   228c8:	10004a1e 	bne	r2,zero,229f4 <___vfprintf_internal_r+0x1dd8>
   228cc:	94800204 	addi	r18,r18,8
   228d0:	202d883a 	mov	r22,r4
   228d4:	003d6406 	br	21e68 <___vfprintf_internal_r+0x124c>
   228d8:	00800b44 	movi	r2,45
   228dc:	d8801645 	stb	r2,89(sp)
   228e0:	01000b44 	movi	r4,45
   228e4:	003ad706 	br	21444 <___vfprintf_internal_r+0x828>
   228e8:	d9400417 	ldw	r5,16(sp)
   228ec:	d9000517 	ldw	r4,20(sp)
   228f0:	d9801d04 	addi	r6,sp,116
   228f4:	db000f15 	stw	r12,60(sp)
   228f8:	d8c00815 	stw	r3,32(sp)
   228fc:	00284100 	call	28410 <__sprint_r>
   22900:	1039d11e 	bne	r2,zero,21048 <___vfprintf_internal_r+0x42c>
   22904:	ddc01717 	ldw	r23,92(sp)
   22908:	d9001f17 	ldw	r4,124(sp)
   2290c:	db000f17 	ldw	r12,60(sp)
   22910:	d8c00817 	ldw	r3,32(sp)
   22914:	8825883a 	mov	r18,r17
   22918:	003eed06 	br	224d0 <___vfprintf_internal_r+0x18b4>
   2291c:	15e0003c 	xorhi	r23,r2,32768
   22920:	00800b44 	movi	r2,45
   22924:	d8800705 	stb	r2,28(sp)
   22928:	003f1906 	br	22590 <___vfprintf_internal_r+0x1974>
   2292c:	01c00184 	movi	r7,6
   22930:	003e3f06 	br	22230 <___vfprintf_internal_r+0x1614>
   22934:	d9400417 	ldw	r5,16(sp)
   22938:	d9000517 	ldw	r4,20(sp)
   2293c:	d9801d04 	addi	r6,sp,116
   22940:	00284100 	call	28410 <__sprint_r>
   22944:	0039c006 	br	21048 <___vfprintf_internal_r+0x42c>
   22948:	d9400417 	ldw	r5,16(sp)
   2294c:	d9000517 	ldw	r4,20(sp)
   22950:	d9801d04 	addi	r6,sp,116
   22954:	db000f15 	stw	r12,60(sp)
   22958:	d8c00815 	stw	r3,32(sp)
   2295c:	00284100 	call	28410 <__sprint_r>
   22960:	1039b91e 	bne	r2,zero,21048 <___vfprintf_internal_r+0x42c>
   22964:	ddc01717 	ldw	r23,92(sp)
   22968:	d9001f17 	ldw	r4,124(sp)
   2296c:	d8801e17 	ldw	r2,120(sp)
   22970:	db000f17 	ldw	r12,60(sp)
   22974:	d8c00817 	ldw	r3,32(sp)
   22978:	8825883a 	mov	r18,r17
   2297c:	b83ee50e 	bge	r23,zero,22514 <___vfprintf_internal_r+0x18f8>
   22980:	003f8406 	br	22794 <___vfprintf_internal_r+0x1b78>
   22984:	d8801b04 	addi	r2,sp,108
   22988:	d8800315 	stw	r2,12(sp)
   2298c:	d9400a17 	ldw	r5,40(sp)
   22990:	d8801804 	addi	r2,sp,96
   22994:	d9000517 	ldw	r4,20(sp)
   22998:	d8c01315 	stw	r3,76(sp)
   2299c:	d8800215 	stw	r2,8(sp)
   229a0:	40c00044 	addi	r3,r8,1
   229a4:	d8801704 	addi	r2,sp,92
   229a8:	d8c00015 	stw	r3,0(sp)
   229ac:	d8800115 	stw	r2,4(sp)
   229b0:	01c00084 	movi	r7,2
   229b4:	b80d883a 	mov	r6,r23
   229b8:	db401215 	stw	r13,72(sp)
   229bc:	da000815 	stw	r8,32(sp)
   229c0:	d8c00915 	stw	r3,36(sp)
   229c4:	00233ec0 	call	233ec <_dtoa_r>
   229c8:	da000817 	ldw	r8,32(sp)
   229cc:	db401217 	ldw	r13,72(sp)
   229d0:	d8c01317 	ldw	r3,76(sp)
   229d4:	102b883a 	mov	r21,r2
   229d8:	e08011d8 	cmpnei	r2,fp,71
   229dc:	1001351e 	bne	r2,zero,22eb4 <___vfprintf_internal_r+0x2298>
   229e0:	6880004c 	andi	r2,r13,1
   229e4:	10001126 	beq	r2,zero,22a2c <___vfprintf_internal_r+0x1e10>
   229e8:	d8800917 	ldw	r2,36(sp)
   229ec:	a899883a 	add	r12,r21,r2
   229f0:	003f0406 	br	22604 <___vfprintf_internal_r+0x19e8>
   229f4:	d9400417 	ldw	r5,16(sp)
   229f8:	d9000517 	ldw	r4,20(sp)
   229fc:	d9801d04 	addi	r6,sp,116
   22a00:	db001015 	stw	r12,64(sp)
   22a04:	d8c00f15 	stw	r3,60(sp)
   22a08:	00284100 	call	28410 <__sprint_r>
   22a0c:	10398e1e 	bne	r2,zero,21048 <___vfprintf_internal_r+0x42c>
   22a10:	dd801f17 	ldw	r22,124(sp)
   22a14:	db001017 	ldw	r12,64(sp)
   22a18:	d8c00f17 	ldw	r3,60(sp)
   22a1c:	8825883a 	mov	r18,r17
   22a20:	003d1106 	br	21e68 <___vfprintf_internal_r+0x124c>
   22a24:	da000915 	stw	r8,36(sp)
   22a28:	003feb06 	br	229d8 <___vfprintf_internal_r+0x1dbc>
   22a2c:	d8801b17 	ldw	r2,108(sp)
   22a30:	d9c01717 	ldw	r7,92(sp)
   22a34:	1545c83a 	sub	r2,r2,r21
   22a38:	d8800915 	stw	r2,36(sp)
   22a3c:	38bfff48 	cmpgei	r2,r7,-3
   22a40:	d9c00815 	stw	r7,32(sp)
   22a44:	1000b31e 	bne	r2,zero,22d14 <___vfprintf_internal_r+0x20f8>
   22a48:	e73fff84 	addi	fp,fp,-2
   22a4c:	397fffc4 	addi	r5,r7,-1
   22a50:	e005883a 	mov	r2,fp
   22a54:	01000044 	movi	r4,1
   22a58:	21efc83a 	sub	r23,r4,r7
   22a5c:	01000b44 	movi	r4,45
   22a60:	21003fcc 	andi	r4,r4,255
   22a64:	2008923a 	slli	r4,r4,8
   22a68:	10803fcc 	andi	r2,r2,255
   22a6c:	d9401715 	stw	r5,92(sp)
   22a70:	1104b03a 	or	r2,r2,r4
   22a74:	d880190d 	sth	r2,100(sp)
   22a78:	b8800290 	cmplti	r2,r23,10
   22a7c:	1000c71e 	bne	r2,zero,22d9c <___vfprintf_internal_r+0x2180>
   22a80:	dd801cc4 	addi	r22,sp,115
   22a84:	9805883a 	mov	r2,r19
   22a88:	db400815 	stw	r13,32(sp)
   22a8c:	b027883a 	mov	r19,r22
   22a90:	d8c01015 	stw	r3,64(sp)
   22a94:	a02d883a 	mov	r22,r20
   22a98:	dc001115 	stw	r16,68(sp)
   22a9c:	9029883a 	mov	r20,r18
   22aa0:	b825883a 	mov	r18,r23
   22aa4:	102f883a 	mov	r23,r2
   22aa8:	9009883a 	mov	r4,r18
   22aac:	01400284 	movi	r5,10
   22ab0:	00209080 	call	20908 <__modsi3>
   22ab4:	10800c04 	addi	r2,r2,48
   22ab8:	9009883a 	mov	r4,r18
   22abc:	01400284 	movi	r5,10
   22ac0:	98bfffc5 	stb	r2,-1(r19)
   22ac4:	00208880 	call	20888 <__divsi3>
   22ac8:	91401908 	cmpgei	r5,r18,100
   22acc:	9821883a 	mov	r16,r19
   22ad0:	1025883a 	mov	r18,r2
   22ad4:	9cffffc4 	addi	r19,r19,-1
   22ad8:	283ff31e 	bne	r5,zero,22aa8 <___vfprintf_internal_r+0x1e8c>
   22adc:	b805883a 	mov	r2,r23
   22ae0:	902f883a 	mov	r23,r18
   22ae4:	8009883a 	mov	r4,r16
   22ae8:	a025883a 	mov	r18,r20
   22aec:	b029883a 	mov	r20,r22
   22af0:	982d883a 	mov	r22,r19
   22af4:	1027883a 	mov	r19,r2
   22af8:	b8800c04 	addi	r2,r23,48
   22afc:	b0bfffc5 	stb	r2,-1(r22)
   22b00:	217fff84 	addi	r5,r4,-2
   22b04:	d8801cc4 	addi	r2,sp,115
   22b08:	db400817 	ldw	r13,32(sp)
   22b0c:	d8c01017 	ldw	r3,64(sp)
   22b10:	dc001117 	ldw	r16,68(sp)
   22b14:	28810e2e 	bgeu	r5,r2,22f50 <___vfprintf_internal_r+0x2334>
   22b18:	d8801d44 	addi	r2,sp,117
   22b1c:	112dc83a 	sub	r22,r2,r4
   22b20:	b00d883a 	mov	r6,r22
   22b24:	d9001984 	addi	r4,sp,102
   22b28:	002671c0 	call	2671c <memcpy>
   22b2c:	d8801984 	addi	r2,sp,102
   22b30:	1585883a 	add	r2,r2,r22
   22b34:	d9001904 	addi	r4,sp,100
   22b38:	db400817 	ldw	r13,32(sp)
   22b3c:	d8c01017 	ldw	r3,64(sp)
   22b40:	1105c83a 	sub	r2,r2,r4
   22b44:	d8801115 	stw	r2,68(sp)
   22b48:	d9000917 	ldw	r4,36(sp)
   22b4c:	d9401117 	ldw	r5,68(sp)
   22b50:	20800088 	cmpgei	r2,r4,2
   22b54:	214f883a 	add	r7,r4,r5
   22b58:	10009726 	beq	r2,zero,22db8 <___vfprintf_internal_r+0x219c>
   22b5c:	d8800c17 	ldw	r2,48(sp)
   22b60:	388f883a 	add	r7,r7,r2
   22b64:	3819883a 	mov	r12,r7
   22b68:	3800010e 	bge	r7,zero,22b70 <___vfprintf_internal_r+0x1f54>
   22b6c:	0019883a 	mov	r12,zero
   22b70:	d8000815 	stw	zero,32(sp)
   22b74:	003ec906 	br	2269c <___vfprintf_internal_r+0x1a80>
   22b78:	d8800f17 	ldw	r2,60(sp)
   22b7c:	d9001643 	ldbu	r4,89(sp)
   22b80:	0011883a 	mov	r8,zero
   22b84:	d8800715 	stw	r2,28(sp)
   22b88:	0039b006 	br	2124c <___vfprintf_internal_r+0x630>
   22b8c:	d8801b04 	addi	r2,sp,108
   22b90:	d8800315 	stw	r2,12(sp)
   22b94:	d9400a17 	ldw	r5,40(sp)
   22b98:	d8801804 	addi	r2,sp,96
   22b9c:	d9000517 	ldw	r4,20(sp)
   22ba0:	d8800215 	stw	r2,8(sp)
   22ba4:	d8801704 	addi	r2,sp,92
   22ba8:	da000015 	stw	r8,0(sp)
   22bac:	d8800115 	stw	r2,4(sp)
   22bb0:	01c000c4 	movi	r7,3
   22bb4:	b80d883a 	mov	r6,r23
   22bb8:	d8c01215 	stw	r3,72(sp)
   22bbc:	db400915 	stw	r13,36(sp)
   22bc0:	da000815 	stw	r8,32(sp)
   22bc4:	00233ec0 	call	233ec <_dtoa_r>
   22bc8:	102b883a 	mov	r21,r2
   22bcc:	10800007 	ldb	r2,0(r2)
   22bd0:	da000817 	ldw	r8,32(sp)
   22bd4:	db400917 	ldw	r13,36(sp)
   22bd8:	10800c20 	cmpeqi	r2,r2,48
   22bdc:	d8c01217 	ldw	r3,72(sp)
   22be0:	10009c1e 	bne	r2,zero,22e54 <___vfprintf_internal_r+0x2238>
   22be4:	d8801717 	ldw	r2,92(sp)
   22be8:	d9000a17 	ldw	r4,40(sp)
   22bec:	1219883a 	add	r12,r2,r8
   22bf0:	000d883a 	mov	r6,zero
   22bf4:	000f883a 	mov	r7,zero
   22bf8:	b80b883a 	mov	r5,r23
   22bfc:	d8c01315 	stw	r3,76(sp)
   22c00:	db401215 	stw	r13,72(sp)
   22c04:	da000915 	stw	r8,36(sp)
   22c08:	db000815 	stw	r12,32(sp)
   22c0c:	002c4540 	call	2c454 <__eqdf2>
   22c10:	db000817 	ldw	r12,32(sp)
   22c14:	da000917 	ldw	r8,36(sp)
   22c18:	db401217 	ldw	r13,72(sp)
   22c1c:	d8c01317 	ldw	r3,76(sp)
   22c20:	10008a1e 	bne	r2,zero,22e4c <___vfprintf_internal_r+0x2230>
   22c24:	d8801717 	ldw	r2,92(sp)
   22c28:	db000915 	stw	r12,36(sp)
   22c2c:	d8800815 	stw	r2,32(sp)
   22c30:	003e9206 	br	2267c <___vfprintf_internal_r+0x1a60>
   22c34:	d9400417 	ldw	r5,16(sp)
   22c38:	d9000517 	ldw	r4,20(sp)
   22c3c:	d9801d04 	addi	r6,sp,116
   22c40:	db001015 	stw	r12,64(sp)
   22c44:	d8c00f15 	stw	r3,60(sp)
   22c48:	00284100 	call	28410 <__sprint_r>
   22c4c:	1038fe1e 	bne	r2,zero,21048 <___vfprintf_internal_r+0x42c>
   22c50:	ddc01717 	ldw	r23,92(sp)
   22c54:	d9001f17 	ldw	r4,124(sp)
   22c58:	db001017 	ldw	r12,64(sp)
   22c5c:	d8c00f17 	ldw	r3,60(sp)
   22c60:	8825883a 	mov	r18,r17
   22c64:	003c8f06 	br	21ea4 <___vfprintf_internal_r+0x1288>
   22c68:	b80b883a 	mov	r5,r23
   22c6c:	a019883a 	mov	r12,r20
   22c70:	802f883a 	mov	r23,r16
   22c74:	b029883a 	mov	r20,r22
   22c78:	9821883a 	mov	r16,r19
   22c7c:	902d883a 	mov	r22,r18
   22c80:	2827883a 	mov	r19,r5
   22c84:	1825883a 	mov	r18,r3
   22c88:	d8c00817 	ldw	r3,32(sp)
   22c8c:	003c2706 	br	21d2c <___vfprintf_internal_r+0x1110>
   22c90:	403e3a1e 	bne	r8,zero,2257c <___vfprintf_internal_r+0x1960>
   22c94:	02000044 	movi	r8,1
   22c98:	003e3806 	br	2257c <___vfprintf_internal_r+0x1960>
   22c9c:	d9400417 	ldw	r5,16(sp)
   22ca0:	d9000517 	ldw	r4,20(sp)
   22ca4:	d9801d04 	addi	r6,sp,116
   22ca8:	db001015 	stw	r12,64(sp)
   22cac:	d8c00f15 	stw	r3,60(sp)
   22cb0:	00284100 	call	28410 <__sprint_r>
   22cb4:	1038e41e 	bne	r2,zero,21048 <___vfprintf_internal_r+0x42c>
   22cb8:	dd801f17 	ldw	r22,124(sp)
   22cbc:	db001017 	ldw	r12,64(sp)
   22cc0:	d8c00f17 	ldw	r3,60(sp)
   22cc4:	8825883a 	mov	r18,r17
   22cc8:	b83c640e 	bge	r23,zero,21e5c <___vfprintf_internal_r+0x1240>
   22ccc:	003d3306 	br	2219c <___vfprintf_internal_r+0x1580>
   22cd0:	02000184 	movi	r8,6
   22cd4:	003e2906 	br	2257c <___vfprintf_internal_r+0x1960>
   22cd8:	d9400417 	ldw	r5,16(sp)
   22cdc:	d9000517 	ldw	r4,20(sp)
   22ce0:	d9801d04 	addi	r6,sp,116
   22ce4:	db000f15 	stw	r12,60(sp)
   22ce8:	d8c00815 	stw	r3,32(sp)
   22cec:	00284100 	call	28410 <__sprint_r>
   22cf0:	1038d51e 	bne	r2,zero,21048 <___vfprintf_internal_r+0x42c>
   22cf4:	ddc01717 	ldw	r23,92(sp)
   22cf8:	d8800917 	ldw	r2,36(sp)
   22cfc:	d9001f17 	ldw	r4,124(sp)
   22d00:	db000f17 	ldw	r12,60(sp)
   22d04:	d8c00817 	ldw	r3,32(sp)
   22d08:	8825883a 	mov	r18,r17
   22d0c:	15efc83a 	sub	r23,r2,r23
   22d10:	003c7706 	br	21ef0 <___vfprintf_internal_r+0x12d4>
   22d14:	41c0060e 	bge	r8,r7,22d30 <___vfprintf_internal_r+0x2114>
   22d18:	e73fff84 	addi	fp,fp,-2
   22d1c:	3dffffc4 	addi	r23,r7,-1
   22d20:	e005883a 	mov	r2,fp
   22d24:	b80b883a 	mov	r5,r23
   22d28:	01000ac4 	movi	r4,43
   22d2c:	003f4c06 	br	22a60 <___vfprintf_internal_r+0x1e44>
   22d30:	d9000917 	ldw	r4,36(sp)
   22d34:	39000916 	blt	r7,r4,22d5c <___vfprintf_internal_r+0x2140>
   22d38:	6b40004c 	andi	r13,r13,1
   22d3c:	68000f26 	beq	r13,zero,22d7c <___vfprintf_internal_r+0x2160>
   22d40:	d8800817 	ldw	r2,32(sp)
   22d44:	d9000c17 	ldw	r4,48(sp)
   22d48:	110f883a 	add	r7,r2,r4
   22d4c:	3819883a 	mov	r12,r7
   22d50:	38000c16 	blt	r7,zero,22d84 <___vfprintf_internal_r+0x2168>
   22d54:	070019c4 	movi	fp,103
   22d58:	003e5006 	br	2269c <___vfprintf_internal_r+0x1a80>
   22d5c:	d8800917 	ldw	r2,36(sp)
   22d60:	d9000c17 	ldw	r4,48(sp)
   22d64:	110f883a 	add	r7,r2,r4
   22d68:	d8800817 	ldw	r2,32(sp)
   22d6c:	00800316 	blt	zero,r2,22d7c <___vfprintf_internal_r+0x2160>
   22d70:	d8800817 	ldw	r2,32(sp)
   22d74:	388fc83a 	sub	r7,r7,r2
   22d78:	39c00044 	addi	r7,r7,1
   22d7c:	3819883a 	mov	r12,r7
   22d80:	383ff40e 	bge	r7,zero,22d54 <___vfprintf_internal_r+0x2138>
   22d84:	0019883a 	mov	r12,zero
   22d88:	003ff206 	br	22d54 <___vfprintf_internal_r+0x2138>
   22d8c:	4019883a 	mov	r12,r8
   22d90:	dd800715 	stw	r22,28(sp)
   22d94:	400f883a 	mov	r7,r8
   22d98:	00386506 	br	20f30 <___vfprintf_internal_r+0x314>
   22d9c:	b8800c04 	addi	r2,r23,48
   22da0:	01000c04 	movi	r4,48
   22da4:	d88019c5 	stb	r2,103(sp)
   22da8:	00800104 	movi	r2,4
   22dac:	d9001985 	stb	r4,102(sp)
   22db0:	d8801115 	stw	r2,68(sp)
   22db4:	003f6406 	br	22b48 <___vfprintf_internal_r+0x1f2c>
   22db8:	6880004c 	andi	r2,r13,1
   22dbc:	d8800815 	stw	r2,32(sp)
   22dc0:	103f661e 	bne	r2,zero,22b5c <___vfprintf_internal_r+0x1f40>
   22dc4:	3819883a 	mov	r12,r7
   22dc8:	383e340e 	bge	r7,zero,2269c <___vfprintf_internal_r+0x1a80>
   22dcc:	0019883a 	mov	r12,zero
   22dd0:	003e3206 	br	2269c <___vfprintf_internal_r+0x1a80>
   22dd4:	00bfffc4 	movi	r2,-1
   22dd8:	d8800615 	stw	r2,24(sp)
   22ddc:	00389e06 	br	21058 <___vfprintf_internal_r+0x43c>
   22de0:	9819883a 	mov	r12,r19
   22de4:	b027883a 	mov	r19,r22
   22de8:	802d883a 	mov	r22,r16
   22dec:	9021883a 	mov	r16,r18
   22df0:	1825883a 	mov	r18,r3
   22df4:	d8c00817 	ldw	r3,32(sp)
   22df8:	10800044 	addi	r2,r2,1
   22dfc:	25c9883a 	add	r4,r4,r23
   22e00:	95800015 	stw	r22,0(r18)
   22e04:	95c00115 	stw	r23,4(r18)
   22e08:	d9001f15 	stw	r4,124(sp)
   22e0c:	d8801e15 	stw	r2,120(sp)
   22e10:	11400208 	cmpgei	r5,r2,8
   22e14:	283dbe26 	beq	r5,zero,22510 <___vfprintf_internal_r+0x18f4>
   22e18:	d9400417 	ldw	r5,16(sp)
   22e1c:	d9000517 	ldw	r4,20(sp)
   22e20:	d9801d04 	addi	r6,sp,116
   22e24:	db000f15 	stw	r12,60(sp)
   22e28:	d8c00815 	stw	r3,32(sp)
   22e2c:	00284100 	call	28410 <__sprint_r>
   22e30:	1038851e 	bne	r2,zero,21048 <___vfprintf_internal_r+0x42c>
   22e34:	d9001f17 	ldw	r4,124(sp)
   22e38:	d8801e17 	ldw	r2,120(sp)
   22e3c:	db000f17 	ldw	r12,60(sp)
   22e40:	d8c00817 	ldw	r3,32(sp)
   22e44:	8825883a 	mov	r18,r17
   22e48:	003db206 	br	22514 <___vfprintf_internal_r+0x18f8>
   22e4c:	ab19883a 	add	r12,r21,r12
   22e50:	003dfa06 	br	2263c <___vfprintf_internal_r+0x1a20>
   22e54:	d9000a17 	ldw	r4,40(sp)
   22e58:	000d883a 	mov	r6,zero
   22e5c:	000f883a 	mov	r7,zero
   22e60:	b80b883a 	mov	r5,r23
   22e64:	da001215 	stw	r8,72(sp)
   22e68:	d8c00915 	stw	r3,36(sp)
   22e6c:	db400815 	stw	r13,32(sp)
   22e70:	002c4540 	call	2c454 <__eqdf2>
   22e74:	db400817 	ldw	r13,32(sp)
   22e78:	d8c00917 	ldw	r3,36(sp)
   22e7c:	da001217 	ldw	r8,72(sp)
   22e80:	103f5826 	beq	r2,zero,22be4 <___vfprintf_internal_r+0x1fc8>
   22e84:	00800044 	movi	r2,1
   22e88:	1205c83a 	sub	r2,r2,r8
   22e8c:	d8801715 	stw	r2,92(sp)
   22e90:	003f5506 	br	22be8 <___vfprintf_internal_r+0x1fcc>
   22e94:	d8800b17 	ldw	r2,44(sp)
   22e98:	10002916 	blt	r2,zero,22f40 <___vfprintf_internal_r+0x2324>
   22e9c:	d9001643 	ldbu	r4,89(sp)
   22ea0:	e0801210 	cmplti	r2,fp,72
   22ea4:	1000231e 	bne	r2,zero,22f34 <___vfprintf_internal_r+0x2318>
   22ea8:	054000f4 	movhi	r21,3
   22eac:	ad41a204 	addi	r21,r21,1672
   22eb0:	00396806 	br	21454 <___vfprintf_internal_r+0x838>
   22eb4:	d9000a17 	ldw	r4,40(sp)
   22eb8:	000d883a 	mov	r6,zero
   22ebc:	000f883a 	mov	r7,zero
   22ec0:	b80b883a 	mov	r5,r23
   22ec4:	da001315 	stw	r8,76(sp)
   22ec8:	d8c01215 	stw	r3,72(sp)
   22ecc:	db400815 	stw	r13,32(sp)
   22ed0:	002c4540 	call	2c454 <__eqdf2>
   22ed4:	db400817 	ldw	r13,32(sp)
   22ed8:	d8c01217 	ldw	r3,72(sp)
   22edc:	da001317 	ldw	r8,76(sp)
   22ee0:	10002a1e 	bne	r2,zero,22f8c <___vfprintf_internal_r+0x2370>
   22ee4:	b08011e0 	cmpeqi	r2,r22,71
   22ee8:	d9c01717 	ldw	r7,92(sp)
   22eec:	103ed31e 	bne	r2,zero,22a3c <___vfprintf_internal_r+0x1e20>
   22ef0:	397fffc4 	addi	r5,r7,-1
   22ef4:	e005883a 	mov	r2,fp
   22ef8:	283ed616 	blt	r5,zero,22a54 <___vfprintf_internal_r+0x1e38>
   22efc:	282f883a 	mov	r23,r5
   22f00:	01000ac4 	movi	r4,43
   22f04:	003ed606 	br	22a60 <___vfprintf_internal_r+0x1e44>
   22f08:	6545c83a 	sub	r2,r12,r21
   22f0c:	d9c01717 	ldw	r7,92(sp)
   22f10:	d8800915 	stw	r2,36(sp)
   22f14:	003ec906 	br	22a3c <___vfprintf_internal_r+0x1e20>
   22f18:	d8800c17 	ldw	r2,48(sp)
   22f1c:	208f883a 	add	r7,r4,r2
   22f20:	3a0f883a 	add	r7,r7,r8
   22f24:	3819883a 	mov	r12,r7
   22f28:	383ddb0e 	bge	r7,zero,22698 <___vfprintf_internal_r+0x1a7c>
   22f2c:	0019883a 	mov	r12,zero
   22f30:	003dd906 	br	22698 <___vfprintf_internal_r+0x1a7c>
   22f34:	054000f4 	movhi	r21,3
   22f38:	ad41a104 	addi	r21,r21,1668
   22f3c:	00394506 	br	21454 <___vfprintf_internal_r+0x838>
   22f40:	00800b44 	movi	r2,45
   22f44:	d8801645 	stb	r2,89(sp)
   22f48:	01000b44 	movi	r4,45
   22f4c:	003fd406 	br	22ea0 <___vfprintf_internal_r+0x2284>
   22f50:	00800084 	movi	r2,2
   22f54:	d8801115 	stw	r2,68(sp)
   22f58:	003efb06 	br	22b48 <___vfprintf_internal_r+0x1f2c>
   22f5c:	d8800717 	ldw	r2,28(sp)
   22f60:	12000017 	ldw	r8,0(r2)
   22f64:	10800104 	addi	r2,r2,4
   22f68:	4000010e 	bge	r8,zero,22f70 <___vfprintf_internal_r+0x2354>
   22f6c:	023fffc4 	movi	r8,-1
   22f70:	a7000043 	ldbu	fp,1(r20)
   22f74:	d8800715 	stw	r2,28(sp)
   22f78:	1829883a 	mov	r20,r3
   22f7c:	e2c03fcc 	andi	r11,fp,255
   22f80:	5ac0201c 	xori	r11,r11,128
   22f84:	5affe004 	addi	r11,r11,-128
   22f88:	00377406 	br	20d5c <___vfprintf_internal_r+0x140>
   22f8c:	d8800917 	ldw	r2,36(sp)
   22f90:	a899883a 	add	r12,r21,r2
   22f94:	003da906 	br	2263c <___vfprintf_internal_r+0x1a20>
   22f98:	1000041e 	bne	r2,zero,22fac <___vfprintf_internal_r+0x2390>
   22f9c:	03000044 	movi	r12,1
   22fa0:	07001984 	movi	fp,102
   22fa4:	01c00044 	movi	r7,1
   22fa8:	003dbc06 	br	2269c <___vfprintf_internal_r+0x1a80>
   22fac:	d8800c17 	ldw	r2,48(sp)
   22fb0:	11c00044 	addi	r7,r2,1
   22fb4:	3a0f883a 	add	r7,r7,r8
   22fb8:	3819883a 	mov	r12,r7
   22fbc:	383db60e 	bge	r7,zero,22698 <___vfprintf_internal_r+0x1a7c>
   22fc0:	003fda06 	br	22f2c <___vfprintf_internal_r+0x2310>

00022fc4 <__vfprintf_internal>:
   22fc4:	00c000f4 	movhi	r3,3
   22fc8:	2005883a 	mov	r2,r4
   22fcc:	190a3b17 	ldw	r4,10476(r3)
   22fd0:	300f883a 	mov	r7,r6
   22fd4:	280d883a 	mov	r6,r5
   22fd8:	100b883a 	mov	r5,r2
   22fdc:	0020c1c1 	jmpi	20c1c <___vfprintf_internal_r>

00022fe0 <__sbprintf>:
   22fe0:	28c0038b 	ldhu	r3,14(r5)
   22fe4:	2880030b 	ldhu	r2,12(r5)
   22fe8:	2ac01917 	ldw	r11,100(r5)
   22fec:	1806943a 	slli	r3,r3,16
   22ff0:	2a800717 	ldw	r10,28(r5)
   22ff4:	2a400917 	ldw	r9,36(r5)
   22ff8:	defee204 	addi	sp,sp,-1144
   22ffc:	10bfff4c 	andi	r2,r2,65533
   23000:	10c4b03a 	or	r2,r2,r3
   23004:	da001a04 	addi	r8,sp,104
   23008:	00c10004 	movi	r3,1024
   2300c:	dc011a15 	stw	r16,1128(sp)
   23010:	2821883a 	mov	r16,r5
   23014:	d80b883a 	mov	r5,sp
   23018:	dc811c15 	stw	r18,1136(sp)
   2301c:	dc411b15 	stw	r17,1132(sp)
   23020:	dfc11d15 	stw	ra,1140(sp)
   23024:	2025883a 	mov	r18,r4
   23028:	dac01915 	stw	r11,100(sp)
   2302c:	d8800315 	stw	r2,12(sp)
   23030:	da800715 	stw	r10,28(sp)
   23034:	da400915 	stw	r9,36(sp)
   23038:	da000015 	stw	r8,0(sp)
   2303c:	da000415 	stw	r8,16(sp)
   23040:	d8c00215 	stw	r3,8(sp)
   23044:	d8c00515 	stw	r3,20(sp)
   23048:	d8000615 	stw	zero,24(sp)
   2304c:	0020c1c0 	call	20c1c <___vfprintf_internal_r>
   23050:	1023883a 	mov	r17,r2
   23054:	10000d0e 	bge	r2,zero,2308c <__sbprintf+0xac>
   23058:	d880030b 	ldhu	r2,12(sp)
   2305c:	1080100c 	andi	r2,r2,64
   23060:	10000326 	beq	r2,zero,23070 <__sbprintf+0x90>
   23064:	8080030b 	ldhu	r2,12(r16)
   23068:	10801014 	ori	r2,r2,64
   2306c:	8080030d 	sth	r2,12(r16)
   23070:	8805883a 	mov	r2,r17
   23074:	dfc11d17 	ldw	ra,1140(sp)
   23078:	dc811c17 	ldw	r18,1136(sp)
   2307c:	dc411b17 	ldw	r17,1132(sp)
   23080:	dc011a17 	ldw	r16,1128(sp)
   23084:	dec11e04 	addi	sp,sp,1144
   23088:	f800283a 	ret
   2308c:	d80b883a 	mov	r5,sp
   23090:	9009883a 	mov	r4,r18
   23094:	0024ddc0 	call	24ddc <_fflush_r>
   23098:	103fef26 	beq	r2,zero,23058 <__sbprintf+0x78>
   2309c:	047fffc4 	movi	r17,-1
   230a0:	003fed06 	br	23058 <__sbprintf+0x78>

000230a4 <__swsetup_r>:
   230a4:	008000f4 	movhi	r2,3
   230a8:	108a3b17 	ldw	r2,10476(r2)
   230ac:	defffd04 	addi	sp,sp,-12
   230b0:	dc400115 	stw	r17,4(sp)
   230b4:	dc000015 	stw	r16,0(sp)
   230b8:	dfc00215 	stw	ra,8(sp)
   230bc:	2023883a 	mov	r17,r4
   230c0:	2821883a 	mov	r16,r5
   230c4:	10000226 	beq	r2,zero,230d0 <__swsetup_r+0x2c>
   230c8:	10c00e17 	ldw	r3,56(r2)
   230cc:	18001d26 	beq	r3,zero,23144 <__swsetup_r+0xa0>
   230d0:	80c0030b 	ldhu	r3,12(r16)
   230d4:	1880020c 	andi	r2,r3,8
   230d8:	10001f26 	beq	r2,zero,23158 <__swsetup_r+0xb4>
   230dc:	80800417 	ldw	r2,16(r16)
   230e0:	10002626 	beq	r2,zero,2317c <__swsetup_r+0xd8>
   230e4:	1900004c 	andi	r4,r3,1
   230e8:	20000b1e 	bne	r4,zero,23118 <__swsetup_r+0x74>
   230ec:	1900008c 	andi	r4,r3,2
   230f0:	20002b1e 	bne	r4,zero,231a0 <__swsetup_r+0xfc>
   230f4:	81000517 	ldw	r4,20(r16)
   230f8:	81000215 	stw	r4,8(r16)
   230fc:	10000b26 	beq	r2,zero,2312c <__swsetup_r+0x88>
   23100:	0005883a 	mov	r2,zero
   23104:	dfc00217 	ldw	ra,8(sp)
   23108:	dc400117 	ldw	r17,4(sp)
   2310c:	dc000017 	ldw	r16,0(sp)
   23110:	dec00304 	addi	sp,sp,12
   23114:	f800283a 	ret
   23118:	81000517 	ldw	r4,20(r16)
   2311c:	80000215 	stw	zero,8(r16)
   23120:	0109c83a 	sub	r4,zero,r4
   23124:	81000615 	stw	r4,24(r16)
   23128:	103ff51e 	bne	r2,zero,23100 <__swsetup_r+0x5c>
   2312c:	1900200c 	andi	r4,r3,128
   23130:	203ff426 	beq	r4,zero,23104 <__swsetup_r+0x60>
   23134:	18c01014 	ori	r3,r3,64
   23138:	80c0030d 	sth	r3,12(r16)
   2313c:	00bfffc4 	movi	r2,-1
   23140:	003ff006 	br	23104 <__swsetup_r+0x60>
   23144:	1009883a 	mov	r4,r2
   23148:	00251f40 	call	251f4 <__sinit>
   2314c:	80c0030b 	ldhu	r3,12(r16)
   23150:	1880020c 	andi	r2,r3,8
   23154:	103fe11e 	bne	r2,zero,230dc <__swsetup_r+0x38>
   23158:	1880040c 	andi	r2,r3,16
   2315c:	10002026 	beq	r2,zero,231e0 <__swsetup_r+0x13c>
   23160:	1880010c 	andi	r2,r3,4
   23164:	1000101e 	bne	r2,zero,231a8 <__swsetup_r+0x104>
   23168:	80800417 	ldw	r2,16(r16)
   2316c:	19000214 	ori	r4,r3,8
   23170:	8100030d 	sth	r4,12(r16)
   23174:	2007883a 	mov	r3,r4
   23178:	103fda1e 	bne	r2,zero,230e4 <__swsetup_r+0x40>
   2317c:	1900a00c 	andi	r4,r3,640
   23180:	21008020 	cmpeqi	r4,r4,512
   23184:	203fd71e 	bne	r4,zero,230e4 <__swsetup_r+0x40>
   23188:	800b883a 	mov	r5,r16
   2318c:	8809883a 	mov	r4,r17
   23190:	0025c6c0 	call	25c6c <__smakebuf_r>
   23194:	80c0030b 	ldhu	r3,12(r16)
   23198:	80800417 	ldw	r2,16(r16)
   2319c:	003fd106 	br	230e4 <__swsetup_r+0x40>
   231a0:	0009883a 	mov	r4,zero
   231a4:	003fd406 	br	230f8 <__swsetup_r+0x54>
   231a8:	81400c17 	ldw	r5,48(r16)
   231ac:	28000626 	beq	r5,zero,231c8 <__swsetup_r+0x124>
   231b0:	80801004 	addi	r2,r16,64
   231b4:	28800326 	beq	r5,r2,231c4 <__swsetup_r+0x120>
   231b8:	8809883a 	mov	r4,r17
   231bc:	00253600 	call	25360 <_free_r>
   231c0:	80c0030b 	ldhu	r3,12(r16)
   231c4:	80000c15 	stw	zero,48(r16)
   231c8:	80800417 	ldw	r2,16(r16)
   231cc:	013ff6c4 	movi	r4,-37
   231d0:	20c6703a 	and	r3,r4,r3
   231d4:	80000115 	stw	zero,4(r16)
   231d8:	80800015 	stw	r2,0(r16)
   231dc:	003fe306 	br	2316c <__swsetup_r+0xc8>
   231e0:	00800244 	movi	r2,9
   231e4:	88800015 	stw	r2,0(r17)
   231e8:	18c01014 	ori	r3,r3,64
   231ec:	003fd206 	br	23138 <__swsetup_r+0x94>

000231f0 <quorem>:
   231f0:	defff504 	addi	sp,sp,-44
   231f4:	dc800315 	stw	r18,12(sp)
   231f8:	20800417 	ldw	r2,16(r4)
   231fc:	2c800417 	ldw	r18,16(r5)
   23200:	dfc00a15 	stw	ra,40(sp)
   23204:	df000915 	stw	fp,36(sp)
   23208:	ddc00815 	stw	r23,32(sp)
   2320c:	dd800715 	stw	r22,28(sp)
   23210:	dd400615 	stw	r21,24(sp)
   23214:	dd000515 	stw	r20,20(sp)
   23218:	dcc00415 	stw	r19,16(sp)
   2321c:	dc400215 	stw	r17,8(sp)
   23220:	dc000115 	stw	r16,4(sp)
   23224:	14806f16 	blt	r2,r18,233e4 <quorem+0x1f4>
   23228:	94bfffc4 	addi	r18,r18,-1
   2322c:	902c90ba 	slli	r22,r18,2
   23230:	2c000504 	addi	r16,r5,20
   23234:	25000504 	addi	r20,r4,20
   23238:	85a7883a 	add	r19,r16,r22
   2323c:	9f000017 	ldw	fp,0(r19)
   23240:	a5ad883a 	add	r22,r20,r22
   23244:	202b883a 	mov	r21,r4
   23248:	b1000017 	ldw	r4,0(r22)
   2324c:	e7000044 	addi	fp,fp,1
   23250:	282f883a 	mov	r23,r5
   23254:	e00b883a 	mov	r5,fp
   23258:	d9000015 	stw	r4,0(sp)
   2325c:	002097c0 	call	2097c <__udivsi3>
   23260:	d9000017 	ldw	r4,0(sp)
   23264:	1023883a 	mov	r17,r2
   23268:	27002a36 	bltu	r4,fp,23314 <quorem+0x124>
   2326c:	800f883a 	mov	r7,r16
   23270:	a00d883a 	mov	r6,r20
   23274:	0013883a 	mov	r9,zero
   23278:	0009883a 	mov	r4,zero
   2327c:	38800017 	ldw	r2,0(r7)
   23280:	32000017 	ldw	r8,0(r6)
   23284:	31800104 	addi	r6,r6,4
   23288:	117fffcc 	andi	r5,r2,65535
   2328c:	2c4b383a 	mul	r5,r5,r17
   23290:	1004d43a 	srli	r2,r2,16
   23294:	40ffffcc 	andi	r3,r8,65535
   23298:	2a4b883a 	add	r5,r5,r9
   2329c:	2a7fffcc 	andi	r9,r5,65535
   232a0:	1a47c83a 	sub	r3,r3,r9
   232a4:	280ad43a 	srli	r5,r5,16
   232a8:	1445383a 	mul	r2,r2,r17
   232ac:	1907883a 	add	r3,r3,r4
   232b0:	1809d43a 	srai	r4,r3,16
   232b4:	1145883a 	add	r2,r2,r5
   232b8:	4010d43a 	srli	r8,r8,16
   232bc:	117fffcc 	andi	r5,r2,65535
   232c0:	2149c83a 	sub	r4,r4,r5
   232c4:	2209883a 	add	r4,r4,r8
   232c8:	200a943a 	slli	r5,r4,16
   232cc:	18ffffcc 	andi	r3,r3,65535
   232d0:	39c00104 	addi	r7,r7,4
   232d4:	1946b03a 	or	r3,r3,r5
   232d8:	30ffff15 	stw	r3,-4(r6)
   232dc:	1012d43a 	srli	r9,r2,16
   232e0:	2009d43a 	srai	r4,r4,16
   232e4:	99ffe52e 	bgeu	r19,r7,2327c <quorem+0x8c>
   232e8:	b0800017 	ldw	r2,0(r22)
   232ec:	1000091e 	bne	r2,zero,23314 <quorem+0x124>
   232f0:	b5bfff04 	addi	r22,r22,-4
   232f4:	a5800336 	bltu	r20,r22,23304 <quorem+0x114>
   232f8:	00000506 	br	23310 <quorem+0x120>
   232fc:	94bfffc4 	addi	r18,r18,-1
   23300:	a580032e 	bgeu	r20,r22,23310 <quorem+0x120>
   23304:	b0800017 	ldw	r2,0(r22)
   23308:	b5bfff04 	addi	r22,r22,-4
   2330c:	103ffb26 	beq	r2,zero,232fc <quorem+0x10c>
   23310:	ac800415 	stw	r18,16(r21)
   23314:	b80b883a 	mov	r5,r23
   23318:	a809883a 	mov	r4,r21
   2331c:	002745c0 	call	2745c <__mcmp>
   23320:	10002316 	blt	r2,zero,233b0 <quorem+0x1c0>
   23324:	a00d883a 	mov	r6,r20
   23328:	000b883a 	mov	r5,zero
   2332c:	30800017 	ldw	r2,0(r6)
   23330:	81000017 	ldw	r4,0(r16)
   23334:	31800104 	addi	r6,r6,4
   23338:	10ffffcc 	andi	r3,r2,65535
   2333c:	21ffffcc 	andi	r7,r4,65535
   23340:	19c7c83a 	sub	r3,r3,r7
   23344:	1947883a 	add	r3,r3,r5
   23348:	180bd43a 	srai	r5,r3,16
   2334c:	2008d43a 	srli	r4,r4,16
   23350:	1004d43a 	srli	r2,r2,16
   23354:	18ffffcc 	andi	r3,r3,65535
   23358:	290bc83a 	sub	r5,r5,r4
   2335c:	288b883a 	add	r5,r5,r2
   23360:	2804943a 	slli	r2,r5,16
   23364:	84000104 	addi	r16,r16,4
   23368:	280bd43a 	srai	r5,r5,16
   2336c:	1886b03a 	or	r3,r3,r2
   23370:	30ffff15 	stw	r3,-4(r6)
   23374:	9c3fed2e 	bgeu	r19,r16,2332c <quorem+0x13c>
   23378:	900490ba 	slli	r2,r18,2
   2337c:	a085883a 	add	r2,r20,r2
   23380:	10c00017 	ldw	r3,0(r2)
   23384:	1800091e 	bne	r3,zero,233ac <quorem+0x1bc>
   23388:	10bfff04 	addi	r2,r2,-4
   2338c:	a0800336 	bltu	r20,r2,2339c <quorem+0x1ac>
   23390:	00000506 	br	233a8 <quorem+0x1b8>
   23394:	94bfffc4 	addi	r18,r18,-1
   23398:	a080032e 	bgeu	r20,r2,233a8 <quorem+0x1b8>
   2339c:	10c00017 	ldw	r3,0(r2)
   233a0:	10bfff04 	addi	r2,r2,-4
   233a4:	183ffb26 	beq	r3,zero,23394 <quorem+0x1a4>
   233a8:	ac800415 	stw	r18,16(r21)
   233ac:	8c400044 	addi	r17,r17,1
   233b0:	8805883a 	mov	r2,r17
   233b4:	dfc00a17 	ldw	ra,40(sp)
   233b8:	df000917 	ldw	fp,36(sp)
   233bc:	ddc00817 	ldw	r23,32(sp)
   233c0:	dd800717 	ldw	r22,28(sp)
   233c4:	dd400617 	ldw	r21,24(sp)
   233c8:	dd000517 	ldw	r20,20(sp)
   233cc:	dcc00417 	ldw	r19,16(sp)
   233d0:	dc800317 	ldw	r18,12(sp)
   233d4:	dc400217 	ldw	r17,8(sp)
   233d8:	dc000117 	ldw	r16,4(sp)
   233dc:	dec00b04 	addi	sp,sp,44
   233e0:	f800283a 	ret
   233e4:	0005883a 	mov	r2,zero
   233e8:	003ff206 	br	233b4 <quorem+0x1c4>

000233ec <_dtoa_r>:
   233ec:	20801017 	ldw	r2,64(r4)
   233f0:	deffe104 	addi	sp,sp,-124
   233f4:	dd401a15 	stw	r21,104(sp)
   233f8:	dc801715 	stw	r18,92(sp)
   233fc:	dc401615 	stw	r17,88(sp)
   23400:	dc001515 	stw	r16,84(sp)
   23404:	dfc01e15 	stw	ra,120(sp)
   23408:	df001d15 	stw	fp,116(sp)
   2340c:	ddc01c15 	stw	r23,112(sp)
   23410:	dd801b15 	stw	r22,108(sp)
   23414:	dd001915 	stw	r20,100(sp)
   23418:	dcc01815 	stw	r19,96(sp)
   2341c:	d9400215 	stw	r5,8(sp)
   23420:	d9c00115 	stw	r7,4(sp)
   23424:	dc402117 	ldw	r17,132(sp)
   23428:	2021883a 	mov	r16,r4
   2342c:	3025883a 	mov	r18,r6
   23430:	302b883a 	mov	r21,r6
   23434:	10000826 	beq	r2,zero,23458 <_dtoa_r+0x6c>
   23438:	21801117 	ldw	r6,68(r4)
   2343c:	00c00044 	movi	r3,1
   23440:	100b883a 	mov	r5,r2
   23444:	1986983a 	sll	r3,r3,r6
   23448:	11800115 	stw	r6,4(r2)
   2344c:	10c00215 	stw	r3,8(r2)
   23450:	0026ae00 	call	26ae0 <_Bfree>
   23454:	80001015 	stw	zero,64(r16)
   23458:	90019316 	blt	r18,zero,23aa8 <_dtoa_r+0x6bc>
   2345c:	88000015 	stw	zero,0(r17)
   23460:	909ffc2c 	andhi	r2,r18,32752
   23464:	00dffc34 	movhi	r3,32752
   23468:	10c19826 	beq	r2,r3,23acc <_dtoa_r+0x6e0>
   2346c:	d9000217 	ldw	r4,8(sp)
   23470:	000d883a 	mov	r6,zero
   23474:	000f883a 	mov	r7,zero
   23478:	a80b883a 	mov	r5,r21
   2347c:	002c4540 	call	2c454 <__eqdf2>
   23480:	1000181e 	bne	r2,zero,234e4 <_dtoa_r+0xf8>
   23484:	d8c02017 	ldw	r3,128(sp)
   23488:	00800044 	movi	r2,1
   2348c:	18800015 	stw	r2,0(r3)
   23490:	d8802217 	ldw	r2,136(sp)
   23494:	10000426 	beq	r2,zero,234a8 <_dtoa_r+0xbc>
   23498:	d8c02217 	ldw	r3,136(sp)
   2349c:	008000f4 	movhi	r2,3
   234a0:	1081af44 	addi	r2,r2,1725
   234a4:	18800015 	stw	r2,0(r3)
   234a8:	070000f4 	movhi	fp,3
   234ac:	e701af04 	addi	fp,fp,1724
   234b0:	e005883a 	mov	r2,fp
   234b4:	dfc01e17 	ldw	ra,120(sp)
   234b8:	df001d17 	ldw	fp,116(sp)
   234bc:	ddc01c17 	ldw	r23,112(sp)
   234c0:	dd801b17 	ldw	r22,108(sp)
   234c4:	dd401a17 	ldw	r21,104(sp)
   234c8:	dd001917 	ldw	r20,100(sp)
   234cc:	dcc01817 	ldw	r19,96(sp)
   234d0:	dc801717 	ldw	r18,92(sp)
   234d4:	dc401617 	ldw	r17,88(sp)
   234d8:	dc001517 	ldw	r16,84(sp)
   234dc:	dec01f04 	addi	sp,sp,124
   234e0:	f800283a 	ret
   234e4:	dcc00217 	ldw	r19,8(sp)
   234e8:	d8801304 	addi	r2,sp,76
   234ec:	9022d53a 	srli	r17,r18,20
   234f0:	d8800015 	stw	r2,0(sp)
   234f4:	d9c01404 	addi	r7,sp,80
   234f8:	980b883a 	mov	r5,r19
   234fc:	a80d883a 	mov	r6,r21
   23500:	8009883a 	mov	r4,r16
   23504:	00278440 	call	27844 <__d2b>
   23508:	102f883a 	mov	r23,r2
   2350c:	8801811e 	bne	r17,zero,23b14 <_dtoa_r+0x728>
   23510:	dd001317 	ldw	r20,76(sp)
   23514:	dc401417 	ldw	r17,80(sp)
   23518:	a463883a 	add	r17,r20,r17
   2351c:	88810c84 	addi	r2,r17,1074
   23520:	10c00850 	cmplti	r3,r2,33
   23524:	1803101e 	bne	r3,zero,24168 <_dtoa_r+0xd7c>
   23528:	00c01004 	movi	r3,64
   2352c:	1887c83a 	sub	r3,r3,r2
   23530:	90c8983a 	sll	r4,r18,r3
   23534:	d8c00217 	ldw	r3,8(sp)
   23538:	88810484 	addi	r2,r17,1042
   2353c:	1884d83a 	srl	r2,r3,r2
   23540:	2088b03a 	or	r4,r4,r2
   23544:	002d8dc0 	call	2d8dc <__floatunsidf>
   23548:	1009883a 	mov	r4,r2
   2354c:	00bf8434 	movhi	r2,65040
   23550:	188b883a 	add	r5,r3,r2
   23554:	00800044 	movi	r2,1
   23558:	8c7fffc4 	addi	r17,r17,-1
   2355c:	d8800915 	stw	r2,36(sp)
   23560:	000d883a 	mov	r6,zero
   23564:	01cffe34 	movhi	r7,16376
   23568:	002cdb40 	call	2cdb4 <__subdf3>
   2356c:	0198dbf4 	movhi	r6,25455
   23570:	01cff4f4 	movhi	r7,16339
   23574:	3190d844 	addi	r6,r6,17249
   23578:	39e1e9c4 	addi	r7,r7,-30809
   2357c:	1009883a 	mov	r4,r2
   23580:	180b883a 	mov	r5,r3
   23584:	002c6dc0 	call	2c6dc <__muldf3>
   23588:	01a2d874 	movhi	r6,35681
   2358c:	01cff1f4 	movhi	r7,16327
   23590:	31b22cc4 	addi	r6,r6,-14157
   23594:	39e28a04 	addi	r7,r7,-30168
   23598:	180b883a 	mov	r5,r3
   2359c:	1009883a 	mov	r4,r2
   235a0:	002b3080 	call	2b308 <__adddf3>
   235a4:	8809883a 	mov	r4,r17
   235a8:	1027883a 	mov	r19,r2
   235ac:	1825883a 	mov	r18,r3
   235b0:	002d8240 	call	2d824 <__floatsidf>
   235b4:	019427f4 	movhi	r6,20639
   235b8:	01cff4f4 	movhi	r7,16339
   235bc:	319e7ec4 	addi	r6,r6,31227
   235c0:	39d104c4 	addi	r7,r7,17427
   235c4:	1009883a 	mov	r4,r2
   235c8:	180b883a 	mov	r5,r3
   235cc:	002c6dc0 	call	2c6dc <__muldf3>
   235d0:	100d883a 	mov	r6,r2
   235d4:	180f883a 	mov	r7,r3
   235d8:	9809883a 	mov	r4,r19
   235dc:	900b883a 	mov	r5,r18
   235e0:	002b3080 	call	2b308 <__adddf3>
   235e4:	1009883a 	mov	r4,r2
   235e8:	180b883a 	mov	r5,r3
   235ec:	1027883a 	mov	r19,r2
   235f0:	1825883a 	mov	r18,r3
   235f4:	002d7a40 	call	2d7a4 <__fixdfsi>
   235f8:	000d883a 	mov	r6,zero
   235fc:	000f883a 	mov	r7,zero
   23600:	9809883a 	mov	r4,r19
   23604:	900b883a 	mov	r5,r18
   23608:	102d883a 	mov	r22,r2
   2360c:	002c5e40 	call	2c5e4 <__ledf2>
   23610:	1002a616 	blt	r2,zero,240ac <_dtoa_r+0xcc0>
   23614:	a469c83a 	sub	r20,r20,r17
   23618:	a0ffffc4 	addi	r3,r20,-1
   2361c:	b08005e8 	cmpgeui	r2,r22,23
   23620:	d8c00415 	stw	r3,16(sp)
   23624:	1002981e 	bne	r2,zero,24088 <_dtoa_r+0xc9c>
   23628:	b00490fa 	slli	r2,r22,3
   2362c:	02c000f4 	movhi	r11,3
   23630:	5ac1f604 	addi	r11,r11,2008
   23634:	5885883a 	add	r2,r11,r2
   23638:	11800017 	ldw	r6,0(r2)
   2363c:	11c00117 	ldw	r7,4(r2)
   23640:	d9000217 	ldw	r4,8(sp)
   23644:	a80b883a 	mov	r5,r21
   23648:	002c5e40 	call	2c5e4 <__ledf2>
   2364c:	1001d60e 	bge	r2,zero,23da8 <_dtoa_r+0x9bc>
   23650:	d8000815 	stw	zero,32(sp)
   23654:	a0bfffc4 	addi	r2,r20,-1
   23658:	b5bfffc4 	addi	r22,r22,-1
   2365c:	10028e16 	blt	r2,zero,24098 <_dtoa_r+0xcac>
   23660:	d8000515 	stw	zero,20(sp)
   23664:	b001d30e 	bge	r22,zero,23db4 <_dtoa_r+0x9c8>
   23668:	d8800517 	ldw	r2,20(sp)
   2366c:	d8c00117 	ldw	r3,4(sp)
   23670:	dd800615 	stw	r22,24(sp)
   23674:	1585c83a 	sub	r2,r2,r22
   23678:	d8800515 	stw	r2,20(sp)
   2367c:	0585c83a 	sub	r2,zero,r22
   23680:	d8800315 	stw	r2,12(sp)
   23684:	188002a8 	cmpgeui	r2,r3,10
   23688:	002d883a 	mov	r22,zero
   2368c:	1001d11e 	bne	r2,zero,23dd4 <_dtoa_r+0x9e8>
   23690:	18800190 	cmplti	r2,r3,6
   23694:	1002a31e 	bne	r2,zero,24124 <_dtoa_r+0xd38>
   23698:	18ffff04 	addi	r3,r3,-4
   2369c:	d8c00115 	stw	r3,4(sp)
   236a0:	188000e0 	cmpeqi	r2,r3,3
   236a4:	0023883a 	mov	r17,zero
   236a8:	1003b71e 	bne	r2,zero,24588 <_dtoa_r+0x119c>
   236ac:	18800108 	cmpgei	r2,r3,4
   236b0:	1003a626 	beq	r2,zero,2454c <_dtoa_r+0x1160>
   236b4:	d8800117 	ldw	r2,4(sp)
   236b8:	10800120 	cmpeqi	r2,r2,4
   236bc:	1003611e 	bne	r2,zero,24444 <_dtoa_r+0x1058>
   236c0:	00800144 	movi	r2,5
   236c4:	d8800115 	stw	r2,4(sp)
   236c8:	00800044 	movi	r2,1
   236cc:	d8800715 	stw	r2,28(sp)
   236d0:	d8801f17 	ldw	r2,124(sp)
   236d4:	d8c00617 	ldw	r3,24(sp)
   236d8:	10c5883a 	add	r2,r2,r3
   236dc:	14800044 	addi	r18,r2,1
   236e0:	d8800a15 	stw	r2,40(sp)
   236e4:	900d883a 	mov	r6,r18
   236e8:	0485320e 	bge	zero,r18,24bb4 <_dtoa_r+0x17c8>
   236ec:	30800608 	cmpgei	r2,r6,24
   236f0:	10053026 	beq	r2,zero,24bb4 <_dtoa_r+0x17c8>
   236f4:	00c00044 	movi	r3,1
   236f8:	00800104 	movi	r2,4
   236fc:	1085883a 	add	r2,r2,r2
   23700:	11000504 	addi	r4,r2,20
   23704:	180b883a 	mov	r5,r3
   23708:	18c00044 	addi	r3,r3,1
   2370c:	313ffb2e 	bgeu	r6,r4,236fc <_dtoa_r+0x310>
   23710:	81401115 	stw	r5,68(r16)
   23714:	8009883a 	mov	r4,r16
   23718:	0026a3c0 	call	26a3c <_Balloc>
   2371c:	1039883a 	mov	fp,r2
   23720:	10050d26 	beq	r2,zero,24b58 <_dtoa_r+0x176c>
   23724:	80801015 	stw	r2,64(r16)
   23728:	908003e8 	cmpgeui	r2,r18,15
   2372c:	1001291e 	bne	r2,zero,23bd4 <_dtoa_r+0x7e8>
   23730:	88012826 	beq	r17,zero,23bd4 <_dtoa_r+0x7e8>
   23734:	d8c00617 	ldw	r3,24(sp)
   23738:	00c3b40e 	bge	zero,r3,2460c <_dtoa_r+0x1220>
   2373c:	188003cc 	andi	r2,r3,15
   23740:	100490fa 	slli	r2,r2,3
   23744:	1823d13a 	srai	r17,r3,4
   23748:	02c000f4 	movhi	r11,3
   2374c:	5ac1f604 	addi	r11,r11,2008
   23750:	5885883a 	add	r2,r11,r2
   23754:	88c0040c 	andi	r3,r17,16
   23758:	12400017 	ldw	r9,0(r2)
   2375c:	12000117 	ldw	r8,4(r2)
   23760:	18037626 	beq	r3,zero,2453c <_dtoa_r+0x1150>
   23764:	008000f4 	movhi	r2,3
   23768:	1081ec04 	addi	r2,r2,1968
   2376c:	d9000217 	ldw	r4,8(sp)
   23770:	11800817 	ldw	r6,32(r2)
   23774:	11c00917 	ldw	r7,36(r2)
   23778:	a80b883a 	mov	r5,r21
   2377c:	da000c15 	stw	r8,48(sp)
   23780:	da400b15 	stw	r9,44(sp)
   23784:	002bc0c0 	call	2bc0c <__divdf3>
   23788:	da400b17 	ldw	r9,44(sp)
   2378c:	da000c17 	ldw	r8,48(sp)
   23790:	8c4003cc 	andi	r17,r17,15
   23794:	1009883a 	mov	r4,r2
   23798:	180b883a 	mov	r5,r3
   2379c:	04c000c4 	movi	r19,3
   237a0:	88001c26 	beq	r17,zero,23814 <_dtoa_r+0x428>
   237a4:	050000f4 	movhi	r20,3
   237a8:	a501ec04 	addi	r20,r20,1968
   237ac:	dc800b15 	stw	r18,44(sp)
   237b0:	dc000c15 	stw	r16,48(sp)
   237b4:	9825883a 	mov	r18,r19
   237b8:	a021883a 	mov	r16,r20
   237bc:	2827883a 	mov	r19,r5
   237c0:	2029883a 	mov	r20,r4
   237c4:	400b883a 	mov	r5,r8
   237c8:	4809883a 	mov	r4,r9
   237cc:	8980004c 	andi	r6,r17,1
   237d0:	30000626 	beq	r6,zero,237ec <_dtoa_r+0x400>
   237d4:	81800017 	ldw	r6,0(r16)
   237d8:	81c00117 	ldw	r7,4(r16)
   237dc:	94800044 	addi	r18,r18,1
   237e0:	002c6dc0 	call	2c6dc <__muldf3>
   237e4:	1009883a 	mov	r4,r2
   237e8:	180b883a 	mov	r5,r3
   237ec:	8823d07a 	srai	r17,r17,1
   237f0:	84000204 	addi	r16,r16,8
   237f4:	883ff51e 	bne	r17,zero,237cc <_dtoa_r+0x3e0>
   237f8:	2811883a 	mov	r8,r5
   237fc:	dc000c17 	ldw	r16,48(sp)
   23800:	980b883a 	mov	r5,r19
   23804:	9027883a 	mov	r19,r18
   23808:	dc800b17 	ldw	r18,44(sp)
   2380c:	2013883a 	mov	r9,r4
   23810:	a009883a 	mov	r4,r20
   23814:	480d883a 	mov	r6,r9
   23818:	400f883a 	mov	r7,r8
   2381c:	002bc0c0 	call	2bc0c <__divdf3>
   23820:	1023883a 	mov	r17,r2
   23824:	1829883a 	mov	r20,r3
   23828:	d8800817 	ldw	r2,32(sp)
   2382c:	10000626 	beq	r2,zero,23848 <_dtoa_r+0x45c>
   23830:	000d883a 	mov	r6,zero
   23834:	01cffc34 	movhi	r7,16368
   23838:	8809883a 	mov	r4,r17
   2383c:	a00b883a 	mov	r5,r20
   23840:	002c5e40 	call	2c5e4 <__ledf2>
   23844:	10045a16 	blt	r2,zero,249b0 <_dtoa_r+0x15c4>
   23848:	9809883a 	mov	r4,r19
   2384c:	002d8240 	call	2d824 <__floatsidf>
   23850:	880d883a 	mov	r6,r17
   23854:	a00f883a 	mov	r7,r20
   23858:	1009883a 	mov	r4,r2
   2385c:	180b883a 	mov	r5,r3
   23860:	002c6dc0 	call	2c6dc <__muldf3>
   23864:	000d883a 	mov	r6,zero
   23868:	01d00734 	movhi	r7,16412
   2386c:	1009883a 	mov	r4,r2
   23870:	180b883a 	mov	r5,r3
   23874:	002b3080 	call	2b308 <__adddf3>
   23878:	d8800b15 	stw	r2,44(sp)
   2387c:	00bf3034 	movhi	r2,64704
   23880:	18a7883a 	add	r19,r3,r2
   23884:	9000c026 	beq	r18,zero,23b88 <_dtoa_r+0x79c>
   23888:	d8800617 	ldw	r2,24(sp)
   2388c:	dc800c15 	stw	r18,48(sp)
   23890:	d8801115 	stw	r2,68(sp)
   23894:	d8800c17 	ldw	r2,48(sp)
   23898:	02c000f4 	movhi	r11,3
   2389c:	5ac1f604 	addi	r11,r11,2008
   238a0:	10bfffc4 	addi	r2,r2,-1
   238a4:	100490fa 	slli	r2,r2,3
   238a8:	8809883a 	mov	r4,r17
   238ac:	a00b883a 	mov	r5,r20
   238b0:	5885883a 	add	r2,r11,r2
   238b4:	10c00017 	ldw	r3,0(r2)
   238b8:	10800117 	ldw	r2,4(r2)
   238bc:	dac00d15 	stw	r11,52(sp)
   238c0:	d8c00f15 	stw	r3,60(sp)
   238c4:	d8801015 	stw	r2,64(sp)
   238c8:	002d7a40 	call	2d7a4 <__fixdfsi>
   238cc:	11400c04 	addi	r5,r2,48
   238d0:	1009883a 	mov	r4,r2
   238d4:	d9400e15 	stw	r5,56(sp)
   238d8:	002d8240 	call	2d824 <__floatsidf>
   238dc:	8809883a 	mov	r4,r17
   238e0:	a00b883a 	mov	r5,r20
   238e4:	100d883a 	mov	r6,r2
   238e8:	180f883a 	mov	r7,r3
   238ec:	002cdb40 	call	2cdb4 <__subdf3>
   238f0:	d9000717 	ldw	r4,28(sp)
   238f4:	dac00d17 	ldw	r11,52(sp)
   238f8:	e2000044 	addi	r8,fp,1
   238fc:	1029883a 	mov	r20,r2
   23900:	1823883a 	mov	r17,r3
   23904:	2003ce26 	beq	r4,zero,24840 <_dtoa_r+0x1454>
   23908:	d9800f17 	ldw	r6,60(sp)
   2390c:	d9c01017 	ldw	r7,64(sp)
   23910:	0009883a 	mov	r4,zero
   23914:	014ff834 	movhi	r5,16352
   23918:	da001215 	stw	r8,72(sp)
   2391c:	002bc0c0 	call	2bc0c <__divdf3>
   23920:	d9800b17 	ldw	r6,44(sp)
   23924:	980f883a 	mov	r7,r19
   23928:	1009883a 	mov	r4,r2
   2392c:	180b883a 	mov	r5,r3
   23930:	002cdb40 	call	2cdb4 <__subdf3>
   23934:	1009883a 	mov	r4,r2
   23938:	d8800e17 	ldw	r2,56(sp)
   2393c:	180b883a 	mov	r5,r3
   23940:	a00d883a 	mov	r6,r20
   23944:	e0800005 	stb	r2,0(fp)
   23948:	880f883a 	mov	r7,r17
   2394c:	d9000d15 	stw	r4,52(sp)
   23950:	d8c00b15 	stw	r3,44(sp)
   23954:	002c4e80 	call	2c4e8 <__gedf2>
   23958:	d9400b17 	ldw	r5,44(sp)
   2395c:	d9000d17 	ldw	r4,52(sp)
   23960:	da001217 	ldw	r8,72(sp)
   23964:	00840b16 	blt	zero,r2,24994 <_dtoa_r+0x15a8>
   23968:	0005883a 	mov	r2,zero
   2396c:	dc800d15 	stw	r18,52(sp)
   23970:	dd800e15 	stw	r22,56(sp)
   23974:	ddc00b15 	stw	r23,44(sp)
   23978:	dd400f15 	stw	r21,60(sp)
   2397c:	ddc00c17 	ldw	r23,48(sp)
   23980:	402d883a 	mov	r22,r8
   23984:	dc000c15 	stw	r16,48(sp)
   23988:	2025883a 	mov	r18,r4
   2398c:	2827883a 	mov	r19,r5
   23990:	102b883a 	mov	r21,r2
   23994:	00002606 	br	23a30 <_dtoa_r+0x644>
   23998:	ad400044 	addi	r21,r21,1
   2399c:	adc4460e 	bge	r21,r23,24ab8 <_dtoa_r+0x16cc>
   239a0:	9009883a 	mov	r4,r18
   239a4:	980b883a 	mov	r5,r19
   239a8:	000d883a 	mov	r6,zero
   239ac:	01d00934 	movhi	r7,16420
   239b0:	002c6dc0 	call	2c6dc <__muldf3>
   239b4:	000d883a 	mov	r6,zero
   239b8:	01d00934 	movhi	r7,16420
   239bc:	a009883a 	mov	r4,r20
   239c0:	880b883a 	mov	r5,r17
   239c4:	1025883a 	mov	r18,r2
   239c8:	1827883a 	mov	r19,r3
   239cc:	002c6dc0 	call	2c6dc <__muldf3>
   239d0:	180b883a 	mov	r5,r3
   239d4:	1009883a 	mov	r4,r2
   239d8:	1823883a 	mov	r17,r3
   239dc:	1029883a 	mov	r20,r2
   239e0:	002d7a40 	call	2d7a4 <__fixdfsi>
   239e4:	1009883a 	mov	r4,r2
   239e8:	1021883a 	mov	r16,r2
   239ec:	002d8240 	call	2d824 <__floatsidf>
   239f0:	a009883a 	mov	r4,r20
   239f4:	880b883a 	mov	r5,r17
   239f8:	100d883a 	mov	r6,r2
   239fc:	180f883a 	mov	r7,r3
   23a00:	002cdb40 	call	2cdb4 <__subdf3>
   23a04:	b5800044 	addi	r22,r22,1
   23a08:	82000c04 	addi	r8,r16,48
   23a0c:	b23fffc5 	stb	r8,-1(r22)
   23a10:	900d883a 	mov	r6,r18
   23a14:	980f883a 	mov	r7,r19
   23a18:	1009883a 	mov	r4,r2
   23a1c:	180b883a 	mov	r5,r3
   23a20:	1029883a 	mov	r20,r2
   23a24:	1823883a 	mov	r17,r3
   23a28:	002c5e40 	call	2c5e4 <__ledf2>
   23a2c:	10041e16 	blt	r2,zero,24aa8 <_dtoa_r+0x16bc>
   23a30:	a00d883a 	mov	r6,r20
   23a34:	880f883a 	mov	r7,r17
   23a38:	0009883a 	mov	r4,zero
   23a3c:	014ffc34 	movhi	r5,16368
   23a40:	002cdb40 	call	2cdb4 <__subdf3>
   23a44:	900d883a 	mov	r6,r18
   23a48:	980f883a 	mov	r7,r19
   23a4c:	1009883a 	mov	r4,r2
   23a50:	180b883a 	mov	r5,r3
   23a54:	002c5e40 	call	2c5e4 <__ledf2>
   23a58:	103fcf0e 	bge	r2,zero,23998 <_dtoa_r+0x5ac>
   23a5c:	d8801117 	ldw	r2,68(sp)
   23a60:	b027883a 	mov	r19,r22
   23a64:	ddc00b17 	ldw	r23,44(sp)
   23a68:	dc000c17 	ldw	r16,48(sp)
   23a6c:	15800044 	addi	r22,r2,1
   23a70:	00000106 	br	23a78 <_dtoa_r+0x68c>
   23a74:	e4c3ed26 	beq	fp,r19,24a2c <_dtoa_r+0x1640>
   23a78:	98ffffc3 	ldbu	r3,-1(r19)
   23a7c:	9811883a 	mov	r8,r19
   23a80:	9cffffc4 	addi	r19,r19,-1
   23a84:	18803fcc 	andi	r2,r3,255
   23a88:	1080201c 	xori	r2,r2,128
   23a8c:	10bfe004 	addi	r2,r2,-128
   23a90:	10800e60 	cmpeqi	r2,r2,57
   23a94:	103ff71e 	bne	r2,zero,23a74 <_dtoa_r+0x688>
   23a98:	18c00044 	addi	r3,r3,1
   23a9c:	98c00005 	stb	r3,0(r19)
   23aa0:	b02b883a 	mov	r21,r22
   23aa4:	00015a06 	br	24010 <_dtoa_r+0xc24>
   23aa8:	00a00034 	movhi	r2,32768
   23aac:	10bfffc4 	addi	r2,r2,-1
   23ab0:	90aa703a 	and	r21,r18,r2
   23ab4:	a825883a 	mov	r18,r21
   23ab8:	00800044 	movi	r2,1
   23abc:	88800015 	stw	r2,0(r17)
   23ac0:	00dffc34 	movhi	r3,32752
   23ac4:	909ffc2c 	andhi	r2,r18,32752
   23ac8:	10fe681e 	bne	r2,r3,2346c <_dtoa_r+0x80>
   23acc:	d9002017 	ldw	r4,128(sp)
   23ad0:	00c9c3c4 	movi	r3,9999
   23ad4:	00800434 	movhi	r2,16
   23ad8:	20c00015 	stw	r3,0(r4)
   23adc:	d8c00217 	ldw	r3,8(sp)
   23ae0:	10bfffc4 	addi	r2,r2,-1
   23ae4:	9084703a 	and	r2,r18,r2
   23ae8:	10c4b03a 	or	r2,r2,r3
   23aec:	1000121e 	bne	r2,zero,23b38 <_dtoa_r+0x74c>
   23af0:	d8802217 	ldw	r2,136(sp)
   23af4:	070000f4 	movhi	fp,3
   23af8:	10041e26 	beq	r2,zero,24b74 <_dtoa_r+0x1788>
   23afc:	008000f4 	movhi	r2,3
   23b00:	e701b804 	addi	fp,fp,1760
   23b04:	1081ba04 	addi	r2,r2,1768
   23b08:	d8c02217 	ldw	r3,136(sp)
   23b0c:	18800015 	stw	r2,0(r3)
   23b10:	003e6706 	br	234b0 <_dtoa_r+0xc4>
   23b14:	01400434 	movhi	r5,16
   23b18:	297fffc4 	addi	r5,r5,-1
   23b1c:	a94a703a 	and	r5,r21,r5
   23b20:	dd001317 	ldw	r20,76(sp)
   23b24:	9809883a 	mov	r4,r19
   23b28:	294ffc34 	orhi	r5,r5,16368
   23b2c:	8c7f0044 	addi	r17,r17,-1023
   23b30:	d8000915 	stw	zero,36(sp)
   23b34:	003e8a06 	br	23560 <_dtoa_r+0x174>
   23b38:	d8802217 	ldw	r2,136(sp)
   23b3c:	070000f4 	movhi	fp,3
   23b40:	10023c1e 	bne	r2,zero,24434 <_dtoa_r+0x1048>
   23b44:	e701bb04 	addi	fp,fp,1772
   23b48:	003e5906 	br	234b0 <_dtoa_r+0xc4>
   23b4c:	9809883a 	mov	r4,r19
   23b50:	002d8240 	call	2d824 <__floatsidf>
   23b54:	880d883a 	mov	r6,r17
   23b58:	a00f883a 	mov	r7,r20
   23b5c:	1009883a 	mov	r4,r2
   23b60:	180b883a 	mov	r5,r3
   23b64:	002c6dc0 	call	2c6dc <__muldf3>
   23b68:	000d883a 	mov	r6,zero
   23b6c:	01d00734 	movhi	r7,16412
   23b70:	1009883a 	mov	r4,r2
   23b74:	180b883a 	mov	r5,r3
   23b78:	002b3080 	call	2b308 <__adddf3>
   23b7c:	d8800b15 	stw	r2,44(sp)
   23b80:	00bf3034 	movhi	r2,64704
   23b84:	18a7883a 	add	r19,r3,r2
   23b88:	8809883a 	mov	r4,r17
   23b8c:	a00b883a 	mov	r5,r20
   23b90:	000d883a 	mov	r6,zero
   23b94:	01d00534 	movhi	r7,16404
   23b98:	002cdb40 	call	2cdb4 <__subdf3>
   23b9c:	d9800b17 	ldw	r6,44(sp)
   23ba0:	980f883a 	mov	r7,r19
   23ba4:	1009883a 	mov	r4,r2
   23ba8:	180b883a 	mov	r5,r3
   23bac:	1029883a 	mov	r20,r2
   23bb0:	1823883a 	mov	r17,r3
   23bb4:	002c4e80 	call	2c4e8 <__gedf2>
   23bb8:	0083a716 	blt	zero,r2,24a58 <_dtoa_r+0x166c>
   23bbc:	d9800b17 	ldw	r6,44(sp)
   23bc0:	99e0003c 	xorhi	r7,r19,32768
   23bc4:	a009883a 	mov	r4,r20
   23bc8:	880b883a 	mov	r5,r17
   23bcc:	002c5e40 	call	2c5e4 <__ledf2>
   23bd0:	10001d16 	blt	r2,zero,23c48 <_dtoa_r+0x85c>
   23bd4:	d8801417 	ldw	r2,80(sp)
   23bd8:	10008816 	blt	r2,zero,23dfc <_dtoa_r+0xa10>
   23bdc:	d8c00617 	ldw	r3,24(sp)
   23be0:	18c003d0 	cmplti	r3,r3,15
   23be4:	18008526 	beq	r3,zero,23dfc <_dtoa_r+0xa10>
   23be8:	02c000f4 	movhi	r11,3
   23bec:	5ac1f604 	addi	r11,r11,2008
   23bf0:	d8800617 	ldw	r2,24(sp)
   23bf4:	100490fa 	slli	r2,r2,3
   23bf8:	5885883a 	add	r2,r11,r2
   23bfc:	10c00017 	ldw	r3,0(r2)
   23c00:	10800117 	ldw	r2,4(r2)
   23c04:	d8c00115 	stw	r3,4(sp)
   23c08:	d8800315 	stw	r2,12(sp)
   23c0c:	d8801f17 	ldw	r2,124(sp)
   23c10:	1000130e 	bge	r2,zero,23c60 <_dtoa_r+0x874>
   23c14:	04801216 	blt	zero,r18,23c60 <_dtoa_r+0x874>
   23c18:	90000b1e 	bne	r18,zero,23c48 <_dtoa_r+0x85c>
   23c1c:	d9000117 	ldw	r4,4(sp)
   23c20:	d9400317 	ldw	r5,12(sp)
   23c24:	000d883a 	mov	r6,zero
   23c28:	01d00534 	movhi	r7,16404
   23c2c:	002c6dc0 	call	2c6dc <__muldf3>
   23c30:	d9000217 	ldw	r4,8(sp)
   23c34:	100d883a 	mov	r6,r2
   23c38:	180f883a 	mov	r7,r3
   23c3c:	a80b883a 	mov	r5,r21
   23c40:	002c5e40 	call	2c5e4 <__ledf2>
   23c44:	00838416 	blt	zero,r2,24a58 <_dtoa_r+0x166c>
   23c48:	e011883a 	mov	r8,fp
   23c4c:	d8000315 	stw	zero,12(sp)
   23c50:	0023883a 	mov	r17,zero
   23c54:	d8801f17 	ldw	r2,124(sp)
   23c58:	00a4303a 	nor	r18,zero,r2
   23c5c:	0001da06 	br	243c8 <_dtoa_r+0xfdc>
   23c60:	dcc00117 	ldw	r19,4(sp)
   23c64:	dd000317 	ldw	r20,12(sp)
   23c68:	dd800217 	ldw	r22,8(sp)
   23c6c:	980d883a 	mov	r6,r19
   23c70:	a00f883a 	mov	r7,r20
   23c74:	b009883a 	mov	r4,r22
   23c78:	a80b883a 	mov	r5,r21
   23c7c:	002bc0c0 	call	2bc0c <__divdf3>
   23c80:	180b883a 	mov	r5,r3
   23c84:	1009883a 	mov	r4,r2
   23c88:	002d7a40 	call	2d7a4 <__fixdfsi>
   23c8c:	1009883a 	mov	r4,r2
   23c90:	1023883a 	mov	r17,r2
   23c94:	002d8240 	call	2d824 <__floatsidf>
   23c98:	980d883a 	mov	r6,r19
   23c9c:	a00f883a 	mov	r7,r20
   23ca0:	1009883a 	mov	r4,r2
   23ca4:	180b883a 	mov	r5,r3
   23ca8:	002c6dc0 	call	2c6dc <__muldf3>
   23cac:	100d883a 	mov	r6,r2
   23cb0:	b009883a 	mov	r4,r22
   23cb4:	a80b883a 	mov	r5,r21
   23cb8:	180f883a 	mov	r7,r3
   23cbc:	002cdb40 	call	2cdb4 <__subdf3>
   23cc0:	89000c04 	addi	r4,r17,48
   23cc4:	e1000005 	stb	r4,0(fp)
   23cc8:	91800060 	cmpeqi	r6,r18,1
   23ccc:	1009883a 	mov	r4,r2
   23cd0:	180b883a 	mov	r5,r3
   23cd4:	e4c00044 	addi	r19,fp,1
   23cd8:	3002891e 	bne	r6,zero,24700 <_dtoa_r+0x1314>
   23cdc:	ddc00215 	stw	r23,8(sp)
   23ce0:	05800044 	movi	r22,1
   23ce4:	ddc00117 	ldw	r23,4(sp)
   23ce8:	dc000415 	stw	r16,16(sp)
   23cec:	a023883a 	mov	r17,r20
   23cf0:	00001c06 	br	23d64 <_dtoa_r+0x978>
   23cf4:	b80d883a 	mov	r6,r23
   23cf8:	880f883a 	mov	r7,r17
   23cfc:	a809883a 	mov	r4,r21
   23d00:	a00b883a 	mov	r5,r20
   23d04:	002bc0c0 	call	2bc0c <__divdf3>
   23d08:	180b883a 	mov	r5,r3
   23d0c:	1009883a 	mov	r4,r2
   23d10:	002d7a40 	call	2d7a4 <__fixdfsi>
   23d14:	1009883a 	mov	r4,r2
   23d18:	1021883a 	mov	r16,r2
   23d1c:	002d8240 	call	2d824 <__floatsidf>
   23d20:	b80d883a 	mov	r6,r23
   23d24:	880f883a 	mov	r7,r17
   23d28:	1009883a 	mov	r4,r2
   23d2c:	180b883a 	mov	r5,r3
   23d30:	002c6dc0 	call	2c6dc <__muldf3>
   23d34:	a809883a 	mov	r4,r21
   23d38:	a00b883a 	mov	r5,r20
   23d3c:	100d883a 	mov	r6,r2
   23d40:	180f883a 	mov	r7,r3
   23d44:	002cdb40 	call	2cdb4 <__subdf3>
   23d48:	81000c04 	addi	r4,r16,48
   23d4c:	99000005 	stb	r4,0(r19)
   23d50:	b5800044 	addi	r22,r22,1
   23d54:	9cc00044 	addi	r19,r19,1
   23d58:	1009883a 	mov	r4,r2
   23d5c:	180b883a 	mov	r5,r3
   23d60:	b4826426 	beq	r22,r18,246f4 <_dtoa_r+0x1308>
   23d64:	000d883a 	mov	r6,zero
   23d68:	01d00934 	movhi	r7,16420
   23d6c:	002c6dc0 	call	2c6dc <__muldf3>
   23d70:	000d883a 	mov	r6,zero
   23d74:	000f883a 	mov	r7,zero
   23d78:	1009883a 	mov	r4,r2
   23d7c:	180b883a 	mov	r5,r3
   23d80:	102b883a 	mov	r21,r2
   23d84:	1829883a 	mov	r20,r3
   23d88:	002c4540 	call	2c454 <__eqdf2>
   23d8c:	103fd91e 	bne	r2,zero,23cf4 <_dtoa_r+0x908>
   23d90:	d8800617 	ldw	r2,24(sp)
   23d94:	ddc00217 	ldw	r23,8(sp)
   23d98:	dc000417 	ldw	r16,16(sp)
   23d9c:	15400044 	addi	r21,r2,1
   23da0:	9811883a 	mov	r8,r19
   23da4:	00009a06 	br	24010 <_dtoa_r+0xc24>
   23da8:	0502120e 	bge	zero,r20,245f4 <_dtoa_r+0x1208>
   23dac:	d8000815 	stw	zero,32(sp)
   23db0:	d8000515 	stw	zero,20(sp)
   23db4:	d8800417 	ldw	r2,16(sp)
   23db8:	d8c00117 	ldw	r3,4(sp)
   23dbc:	dd800615 	stw	r22,24(sp)
   23dc0:	1585883a 	add	r2,r2,r22
   23dc4:	d8800415 	stw	r2,16(sp)
   23dc8:	d8000315 	stw	zero,12(sp)
   23dcc:	188002a8 	cmpgeui	r2,r3,10
   23dd0:	103e2f26 	beq	r2,zero,23690 <_dtoa_r+0x2a4>
   23dd4:	00800044 	movi	r2,1
   23dd8:	04400044 	movi	r17,1
   23ddc:	d8000115 	stw	zero,4(sp)
   23de0:	d8800715 	stw	r2,28(sp)
   23de4:	04bfffc4 	movi	r18,-1
   23de8:	d8001f15 	stw	zero,124(sp)
   23dec:	80001115 	stw	zero,68(r16)
   23df0:	dc800a15 	stw	r18,40(sp)
   23df4:	000b883a 	mov	r5,zero
   23df8:	003e4606 	br	23714 <_dtoa_r+0x328>
   23dfc:	d8c00717 	ldw	r3,28(sp)
   23e00:	1800b41e 	bne	r3,zero,240d4 <_dtoa_r+0xce8>
   23e04:	dd000317 	ldw	r20,12(sp)
   23e08:	dcc00517 	ldw	r19,20(sp)
   23e0c:	d8000715 	stw	zero,28(sp)
   23e10:	0023883a 	mov	r17,zero
   23e14:	98000b26 	beq	r19,zero,23e44 <_dtoa_r+0xa58>
   23e18:	d8c00417 	ldw	r3,16(sp)
   23e1c:	00c0090e 	bge	zero,r3,23e44 <_dtoa_r+0xa58>
   23e20:	9805883a 	mov	r2,r19
   23e24:	1cc1ab16 	blt	r3,r19,244d4 <_dtoa_r+0x10e8>
   23e28:	d8c00517 	ldw	r3,20(sp)
   23e2c:	98a7c83a 	sub	r19,r19,r2
   23e30:	1887c83a 	sub	r3,r3,r2
   23e34:	d8c00515 	stw	r3,20(sp)
   23e38:	d8c00417 	ldw	r3,16(sp)
   23e3c:	1885c83a 	sub	r2,r3,r2
   23e40:	d8800415 	stw	r2,16(sp)
   23e44:	d8800317 	ldw	r2,12(sp)
   23e48:	10000826 	beq	r2,zero,23e6c <_dtoa_r+0xa80>
   23e4c:	d8800717 	ldw	r2,28(sp)
   23e50:	10000126 	beq	r2,zero,23e58 <_dtoa_r+0xa6c>
   23e54:	a0025a1e 	bne	r20,zero,247c0 <_dtoa_r+0x13d4>
   23e58:	d9800317 	ldw	r6,12(sp)
   23e5c:	b80b883a 	mov	r5,r23
   23e60:	8009883a 	mov	r4,r16
   23e64:	00271940 	call	27194 <__pow5mult>
   23e68:	102f883a 	mov	r23,r2
   23e6c:	01400044 	movi	r5,1
   23e70:	8009883a 	mov	r4,r16
   23e74:	0026e900 	call	26e90 <__i2b>
   23e78:	d8800315 	stw	r2,12(sp)
   23e7c:	b0015a1e 	bne	r22,zero,243e8 <_dtoa_r+0xffc>
   23e80:	d8800117 	ldw	r2,4(sp)
   23e84:	10800090 	cmplti	r2,r2,2
   23e88:	1001751e 	bne	r2,zero,24460 <_dtoa_r+0x1074>
   23e8c:	00800044 	movi	r2,1
   23e90:	d9400417 	ldw	r5,16(sp)
   23e94:	1145883a 	add	r2,r2,r5
   23e98:	108007cc 	andi	r2,r2,31
   23e9c:	10009826 	beq	r2,zero,24100 <_dtoa_r+0xd14>
   23ea0:	00c00804 	movi	r3,32
   23ea4:	1887c83a 	sub	r3,r3,r2
   23ea8:	19000150 	cmplti	r4,r3,5
   23eac:	20017e1e 	bne	r4,zero,244a8 <_dtoa_r+0x10bc>
   23eb0:	00c00704 	movi	r3,28
   23eb4:	1885c83a 	sub	r2,r3,r2
   23eb8:	d8c00517 	ldw	r3,20(sp)
   23ebc:	98a7883a 	add	r19,r19,r2
   23ec0:	1887883a 	add	r3,r3,r2
   23ec4:	2885883a 	add	r2,r5,r2
   23ec8:	d8c00515 	stw	r3,20(sp)
   23ecc:	d8800415 	stw	r2,16(sp)
   23ed0:	d8800517 	ldw	r2,20(sp)
   23ed4:	0080050e 	bge	zero,r2,23eec <_dtoa_r+0xb00>
   23ed8:	b80b883a 	mov	r5,r23
   23edc:	100d883a 	mov	r6,r2
   23ee0:	8009883a 	mov	r4,r16
   23ee4:	00272d40 	call	272d4 <__lshift>
   23ee8:	102f883a 	mov	r23,r2
   23eec:	d8800417 	ldw	r2,16(sp)
   23ef0:	0080050e 	bge	zero,r2,23f08 <_dtoa_r+0xb1c>
   23ef4:	d9400317 	ldw	r5,12(sp)
   23ef8:	100d883a 	mov	r6,r2
   23efc:	8009883a 	mov	r4,r16
   23f00:	00272d40 	call	272d4 <__lshift>
   23f04:	d8800315 	stw	r2,12(sp)
   23f08:	d8800817 	ldw	r2,32(sp)
   23f0c:	10004c1e 	bne	r2,zero,24040 <_dtoa_r+0xc54>
   23f10:	04811a0e 	bge	zero,r18,2437c <_dtoa_r+0xf90>
   23f14:	d8800717 	ldw	r2,28(sp)
   23f18:	1000a11e 	bne	r2,zero,241a0 <_dtoa_r+0xdb4>
   23f1c:	d8800617 	ldw	r2,24(sp)
   23f20:	15400044 	addi	r21,r2,1
   23f24:	dd800317 	ldw	r22,12(sp)
   23f28:	04c00044 	movi	r19,1
   23f2c:	00000706 	br	23f4c <_dtoa_r+0xb60>
   23f30:	b80b883a 	mov	r5,r23
   23f34:	000f883a 	mov	r7,zero
   23f38:	01800284 	movi	r6,10
   23f3c:	8009883a 	mov	r4,r16
   23f40:	0026b040 	call	26b04 <__multadd>
   23f44:	102f883a 	mov	r23,r2
   23f48:	9cc00044 	addi	r19,r19,1
   23f4c:	b00b883a 	mov	r5,r22
   23f50:	b809883a 	mov	r4,r23
   23f54:	00231f00 	call	231f0 <quorem>
   23f58:	15000c04 	addi	r20,r2,48
   23f5c:	e4c5883a 	add	r2,fp,r19
   23f60:	153fffc5 	stb	r20,-1(r2)
   23f64:	9cbff216 	blt	r19,r18,23f30 <_dtoa_r+0xb44>
   23f68:	04800116 	blt	zero,r18,23f70 <_dtoa_r+0xb84>
   23f6c:	04800044 	movi	r18,1
   23f70:	e4a5883a 	add	r18,fp,r18
   23f74:	d8000215 	stw	zero,8(sp)
   23f78:	b80b883a 	mov	r5,r23
   23f7c:	8009883a 	mov	r4,r16
   23f80:	01800044 	movi	r6,1
   23f84:	00272d40 	call	272d4 <__lshift>
   23f88:	d9400317 	ldw	r5,12(sp)
   23f8c:	1009883a 	mov	r4,r2
   23f90:	102f883a 	mov	r23,r2
   23f94:	002745c0 	call	2745c <__mcmp>
   23f98:	00800216 	blt	zero,r2,23fa4 <_dtoa_r+0xbb8>
   23f9c:	00017c06 	br	24590 <_dtoa_r+0x11a4>
   23fa0:	e4819026 	beq	fp,r18,245e4 <_dtoa_r+0x11f8>
   23fa4:	90ffffc3 	ldbu	r3,-1(r18)
   23fa8:	9011883a 	mov	r8,r18
   23fac:	94bfffc4 	addi	r18,r18,-1
   23fb0:	18803fcc 	andi	r2,r3,255
   23fb4:	1080201c 	xori	r2,r2,128
   23fb8:	10bfe004 	addi	r2,r2,-128
   23fbc:	10800e60 	cmpeqi	r2,r2,57
   23fc0:	103ff71e 	bne	r2,zero,23fa0 <_dtoa_r+0xbb4>
   23fc4:	18c00044 	addi	r3,r3,1
   23fc8:	90c00005 	stb	r3,0(r18)
   23fcc:	d9400317 	ldw	r5,12(sp)
   23fd0:	8009883a 	mov	r4,r16
   23fd4:	da000115 	stw	r8,4(sp)
   23fd8:	0026ae00 	call	26ae0 <_Bfree>
   23fdc:	da000117 	ldw	r8,4(sp)
   23fe0:	88000b26 	beq	r17,zero,24010 <_dtoa_r+0xc24>
   23fe4:	d9400217 	ldw	r5,8(sp)
   23fe8:	28000426 	beq	r5,zero,23ffc <_dtoa_r+0xc10>
   23fec:	2c400326 	beq	r5,r17,23ffc <_dtoa_r+0xc10>
   23ff0:	8009883a 	mov	r4,r16
   23ff4:	0026ae00 	call	26ae0 <_Bfree>
   23ff8:	da000117 	ldw	r8,4(sp)
   23ffc:	880b883a 	mov	r5,r17
   24000:	8009883a 	mov	r4,r16
   24004:	da000115 	stw	r8,4(sp)
   24008:	0026ae00 	call	26ae0 <_Bfree>
   2400c:	da000117 	ldw	r8,4(sp)
   24010:	b80b883a 	mov	r5,r23
   24014:	8009883a 	mov	r4,r16
   24018:	da000115 	stw	r8,4(sp)
   2401c:	0026ae00 	call	26ae0 <_Bfree>
   24020:	da000117 	ldw	r8,4(sp)
   24024:	d8802017 	ldw	r2,128(sp)
   24028:	40000005 	stb	zero,0(r8)
   2402c:	15400015 	stw	r21,0(r2)
   24030:	d8802217 	ldw	r2,136(sp)
   24034:	103d1e26 	beq	r2,zero,234b0 <_dtoa_r+0xc4>
   24038:	12000015 	stw	r8,0(r2)
   2403c:	003d1c06 	br	234b0 <_dtoa_r+0xc4>
   24040:	d9400317 	ldw	r5,12(sp)
   24044:	b809883a 	mov	r4,r23
   24048:	002745c0 	call	2745c <__mcmp>
   2404c:	103fb00e 	bge	r2,zero,23f10 <_dtoa_r+0xb24>
   24050:	b80b883a 	mov	r5,r23
   24054:	000f883a 	mov	r7,zero
   24058:	01800284 	movi	r6,10
   2405c:	8009883a 	mov	r4,r16
   24060:	0026b040 	call	26b04 <__multadd>
   24064:	d8c00617 	ldw	r3,24(sp)
   24068:	102f883a 	mov	r23,r2
   2406c:	d8800717 	ldw	r2,28(sp)
   24070:	1d7fffc4 	addi	r21,r3,-1
   24074:	1000411e 	bne	r2,zero,2417c <_dtoa_r+0xd90>
   24078:	dc800a17 	ldw	r18,40(sp)
   2407c:	0482940e 	bge	zero,r18,24ad0 <_dtoa_r+0x16e4>
   24080:	dd400617 	ldw	r21,24(sp)
   24084:	003fa706 	br	23f24 <_dtoa_r+0xb38>
   24088:	00800044 	movi	r2,1
   2408c:	d8800815 	stw	r2,32(sp)
   24090:	a0bfffc4 	addi	r2,r20,-1
   24094:	103d720e 	bge	r2,zero,23660 <_dtoa_r+0x274>
   24098:	00800044 	movi	r2,1
   2409c:	1505c83a 	sub	r2,r2,r20
   240a0:	d8800515 	stw	r2,20(sp)
   240a4:	d8000415 	stw	zero,16(sp)
   240a8:	003d6e06 	br	23664 <_dtoa_r+0x278>
   240ac:	b009883a 	mov	r4,r22
   240b0:	002d8240 	call	2d824 <__floatsidf>
   240b4:	980d883a 	mov	r6,r19
   240b8:	900f883a 	mov	r7,r18
   240bc:	1009883a 	mov	r4,r2
   240c0:	180b883a 	mov	r5,r3
   240c4:	002c4540 	call	2c454 <__eqdf2>
   240c8:	103d5226 	beq	r2,zero,23614 <_dtoa_r+0x228>
   240cc:	b5bfffc4 	addi	r22,r22,-1
   240d0:	003d5006 	br	23614 <_dtoa_r+0x228>
   240d4:	d8c00117 	ldw	r3,4(sp)
   240d8:	18c00088 	cmpgei	r3,r3,2
   240dc:	18013526 	beq	r3,zero,245b4 <_dtoa_r+0x11c8>
   240e0:	d8800317 	ldw	r2,12(sp)
   240e4:	953fffc4 	addi	r20,r18,-1
   240e8:	1500fc16 	blt	r2,r20,244dc <_dtoa_r+0x10f0>
   240ec:	1529c83a 	sub	r20,r2,r20
   240f0:	d8800517 	ldw	r2,20(sp)
   240f4:	9002620e 	bge	r18,zero,24a80 <_dtoa_r+0x1694>
   240f8:	14a7c83a 	sub	r19,r2,r18
   240fc:	00010306 	br	2450c <_dtoa_r+0x1120>
   24100:	00800704 	movi	r2,28
   24104:	d8c00517 	ldw	r3,20(sp)
   24108:	98a7883a 	add	r19,r19,r2
   2410c:	1887883a 	add	r3,r3,r2
   24110:	d8c00515 	stw	r3,20(sp)
   24114:	d8c00417 	ldw	r3,16(sp)
   24118:	1885883a 	add	r2,r3,r2
   2411c:	d8800415 	stw	r2,16(sp)
   24120:	003f6b06 	br	23ed0 <_dtoa_r+0xae4>
   24124:	d8c00117 	ldw	r3,4(sp)
   24128:	188000e0 	cmpeqi	r2,r3,3
   2412c:	1001151e 	bne	r2,zero,24584 <_dtoa_r+0x1198>
   24130:	18800108 	cmpgei	r2,r3,4
   24134:	10000226 	beq	r2,zero,24140 <_dtoa_r+0xd54>
   24138:	04400044 	movi	r17,1
   2413c:	003d5d06 	br	236b4 <_dtoa_r+0x2c8>
   24140:	188000a0 	cmpeqi	r2,r3,2
   24144:	10028d26 	beq	r2,zero,24b7c <_dtoa_r+0x1790>
   24148:	04400044 	movi	r17,1
   2414c:	d8000715 	stw	zero,28(sp)
   24150:	d8801f17 	ldw	r2,124(sp)
   24154:	0080be0e 	bge	zero,r2,24450 <_dtoa_r+0x1064>
   24158:	d8800a15 	stw	r2,40(sp)
   2415c:	1025883a 	mov	r18,r2
   24160:	100d883a 	mov	r6,r2
   24164:	003d6106 	br	236ec <_dtoa_r+0x300>
   24168:	01000804 	movi	r4,32
   2416c:	2089c83a 	sub	r4,r4,r2
   24170:	d8800217 	ldw	r2,8(sp)
   24174:	1108983a 	sll	r4,r2,r4
   24178:	003cf206 	br	23544 <_dtoa_r+0x158>
   2417c:	880b883a 	mov	r5,r17
   24180:	000f883a 	mov	r7,zero
   24184:	01800284 	movi	r6,10
   24188:	8009883a 	mov	r4,r16
   2418c:	0026b040 	call	26b04 <__multadd>
   24190:	dc800a17 	ldw	r18,40(sp)
   24194:	1023883a 	mov	r17,r2
   24198:	04825d0e 	bge	zero,r18,24b10 <_dtoa_r+0x1724>
   2419c:	dd400615 	stw	r21,24(sp)
   241a0:	04c0c616 	blt	zero,r19,244bc <_dtoa_r+0x10d0>
   241a4:	b0016e1e 	bne	r22,zero,24760 <_dtoa_r+0x1374>
   241a8:	8827883a 	mov	r19,r17
   241ac:	e0bfffc4 	addi	r2,fp,-1
   241b0:	1485883a 	add	r2,r2,r18
   241b4:	d8800515 	stw	r2,20(sp)
   241b8:	d8800217 	ldw	r2,8(sp)
   241bc:	e02d883a 	mov	r22,fp
   241c0:	df000815 	stw	fp,32(sp)
   241c4:	1080004c 	andi	r2,r2,1
   241c8:	d8800715 	stw	r2,28(sp)
   241cc:	dc800317 	ldw	r18,12(sp)
   241d0:	b809883a 	mov	r4,r23
   241d4:	900b883a 	mov	r5,r18
   241d8:	00231f00 	call	231f0 <quorem>
   241dc:	880b883a 	mov	r5,r17
   241e0:	b809883a 	mov	r4,r23
   241e4:	102b883a 	mov	r21,r2
   241e8:	002745c0 	call	2745c <__mcmp>
   241ec:	900b883a 	mov	r5,r18
   241f0:	980d883a 	mov	r6,r19
   241f4:	8009883a 	mov	r4,r16
   241f8:	1025883a 	mov	r18,r2
   241fc:	00274b40 	call	274b4 <__mdiff>
   24200:	100b883a 	mov	r5,r2
   24204:	10800317 	ldw	r2,12(r2)
   24208:	af000c04 	addi	fp,r21,48
   2420c:	1000261e 	bne	r2,zero,242a8 <_dtoa_r+0xebc>
   24210:	b809883a 	mov	r4,r23
   24214:	d9400415 	stw	r5,16(sp)
   24218:	002745c0 	call	2745c <__mcmp>
   2421c:	d9400417 	ldw	r5,16(sp)
   24220:	1029883a 	mov	r20,r2
   24224:	8009883a 	mov	r4,r16
   24228:	0026ae00 	call	26ae0 <_Bfree>
   2422c:	a000401e 	bne	r20,zero,24330 <_dtoa_r+0xf44>
   24230:	d8800117 	ldw	r2,4(sp)
   24234:	1000021e 	bne	r2,zero,24240 <_dtoa_r+0xe54>
   24238:	d8800717 	ldw	r2,28(sp)
   2423c:	1000cb26 	beq	r2,zero,2456c <_dtoa_r+0x1180>
   24240:	90020816 	blt	r18,zero,24a64 <_dtoa_r+0x1678>
   24244:	d8800517 	ldw	r2,20(sp)
   24248:	b7000005 	stb	fp,0(r22)
   2424c:	b4800044 	addi	r18,r22,1
   24250:	15815426 	beq	r2,r22,247a4 <_dtoa_r+0x13b8>
   24254:	b80b883a 	mov	r5,r23
   24258:	000f883a 	mov	r7,zero
   2425c:	01800284 	movi	r6,10
   24260:	8009883a 	mov	r4,r16
   24264:	0026b040 	call	26b04 <__multadd>
   24268:	102f883a 	mov	r23,r2
   2426c:	880b883a 	mov	r5,r17
   24270:	000f883a 	mov	r7,zero
   24274:	01800284 	movi	r6,10
   24278:	8009883a 	mov	r4,r16
   2427c:	8cc02826 	beq	r17,r19,24320 <_dtoa_r+0xf34>
   24280:	0026b040 	call	26b04 <__multadd>
   24284:	980b883a 	mov	r5,r19
   24288:	000f883a 	mov	r7,zero
   2428c:	01800284 	movi	r6,10
   24290:	8009883a 	mov	r4,r16
   24294:	1023883a 	mov	r17,r2
   24298:	0026b040 	call	26b04 <__multadd>
   2429c:	1027883a 	mov	r19,r2
   242a0:	902d883a 	mov	r22,r18
   242a4:	003fc906 	br	241cc <_dtoa_r+0xde0>
   242a8:	8009883a 	mov	r4,r16
   242ac:	e029883a 	mov	r20,fp
   242b0:	df000817 	ldw	fp,32(sp)
   242b4:	0026ae00 	call	26ae0 <_Bfree>
   242b8:	90000616 	blt	r18,zero,242d4 <_dtoa_r+0xee8>
   242bc:	d8800217 	ldw	r2,8(sp)
   242c0:	d8c00117 	ldw	r3,4(sp)
   242c4:	1080004c 	andi	r2,r2,1
   242c8:	1ca4b03a 	or	r18,r3,r18
   242cc:	1484b03a 	or	r2,r2,r18
   242d0:	1000201e 	bne	r2,zero,24354 <_dtoa_r+0xf68>
   242d4:	b80b883a 	mov	r5,r23
   242d8:	8009883a 	mov	r4,r16
   242dc:	01800044 	movi	r6,1
   242e0:	00272d40 	call	272d4 <__lshift>
   242e4:	d9400317 	ldw	r5,12(sp)
   242e8:	1009883a 	mov	r4,r2
   242ec:	102f883a 	mov	r23,r2
   242f0:	002745c0 	call	2745c <__mcmp>
   242f4:	0080990e 	bge	zero,r2,2455c <_dtoa_r+0x1170>
   242f8:	a0c00e60 	cmpeqi	r3,r20,57
   242fc:	1801ce1e 	bne	r3,zero,24a38 <_dtoa_r+0x164c>
   24300:	ad000c44 	addi	r20,r21,49
   24304:	d8800617 	ldw	r2,24(sp)
   24308:	dc400215 	stw	r17,8(sp)
   2430c:	b2000044 	addi	r8,r22,1
   24310:	b5000005 	stb	r20,0(r22)
   24314:	15400044 	addi	r21,r2,1
   24318:	9823883a 	mov	r17,r19
   2431c:	003f2b06 	br	23fcc <_dtoa_r+0xbe0>
   24320:	0026b040 	call	26b04 <__multadd>
   24324:	1023883a 	mov	r17,r2
   24328:	1027883a 	mov	r19,r2
   2432c:	003fdc06 	br	242a0 <_dtoa_r+0xeb4>
   24330:	90022316 	blt	r18,zero,24bc0 <_dtoa_r+0x17d4>
   24334:	d8800117 	ldw	r2,4(sp)
   24338:	14a4b03a 	or	r18,r2,r18
   2433c:	d8800717 	ldw	r2,28(sp)
   24340:	14a4b03a 	or	r18,r2,r18
   24344:	90021e26 	beq	r18,zero,24bc0 <_dtoa_r+0x17d4>
   24348:	053fbe0e 	bge	zero,r20,24244 <_dtoa_r+0xe58>
   2434c:	e029883a 	mov	r20,fp
   24350:	df000817 	ldw	fp,32(sp)
   24354:	a0800e60 	cmpeqi	r2,r20,57
   24358:	1001b71e 	bne	r2,zero,24a38 <_dtoa_r+0x164c>
   2435c:	d8800617 	ldw	r2,24(sp)
   24360:	a0c00044 	addi	r3,r20,1
   24364:	dc400215 	stw	r17,8(sp)
   24368:	b2000044 	addi	r8,r22,1
   2436c:	15400044 	addi	r21,r2,1
   24370:	b0c00005 	stb	r3,0(r22)
   24374:	9823883a 	mov	r17,r19
   24378:	003f1406 	br	23fcc <_dtoa_r+0xbe0>
   2437c:	d8800117 	ldw	r2,4(sp)
   24380:	108000d0 	cmplti	r2,r2,3
   24384:	103ee31e 	bne	r2,zero,23f14 <_dtoa_r+0xb28>
   24388:	9000d81e 	bne	r18,zero,246ec <_dtoa_r+0x1300>
   2438c:	d9400317 	ldw	r5,12(sp)
   24390:	8009883a 	mov	r4,r16
   24394:	000f883a 	mov	r7,zero
   24398:	01800144 	movi	r6,5
   2439c:	0026b040 	call	26b04 <__multadd>
   243a0:	100b883a 	mov	r5,r2
   243a4:	b809883a 	mov	r4,r23
   243a8:	d8800315 	stw	r2,12(sp)
   243ac:	002745c0 	call	2745c <__mcmp>
   243b0:	0080ce0e 	bge	zero,r2,246ec <_dtoa_r+0x1300>
   243b4:	00800c44 	movi	r2,49
   243b8:	e0800005 	stb	r2,0(fp)
   243bc:	d8800617 	ldw	r2,24(sp)
   243c0:	e2000044 	addi	r8,fp,1
   243c4:	14800044 	addi	r18,r2,1
   243c8:	d9400317 	ldw	r5,12(sp)
   243cc:	8009883a 	mov	r4,r16
   243d0:	da000115 	stw	r8,4(sp)
   243d4:	0026ae00 	call	26ae0 <_Bfree>
   243d8:	da000117 	ldw	r8,4(sp)
   243dc:	95400044 	addi	r21,r18,1
   243e0:	883f061e 	bne	r17,zero,23ffc <_dtoa_r+0xc10>
   243e4:	003f0a06 	br	24010 <_dtoa_r+0xc24>
   243e8:	100b883a 	mov	r5,r2
   243ec:	b00d883a 	mov	r6,r22
   243f0:	8009883a 	mov	r4,r16
   243f4:	00271940 	call	27194 <__pow5mult>
   243f8:	d8c00117 	ldw	r3,4(sp)
   243fc:	d8800315 	stw	r2,12(sp)
   24400:	18c00090 	cmplti	r3,r3,2
   24404:	1800461e 	bne	r3,zero,24520 <_dtoa_r+0x1134>
   24408:	002d883a 	mov	r22,zero
   2440c:	d8c00317 	ldw	r3,12(sp)
   24410:	18800417 	ldw	r2,16(r3)
   24414:	10800104 	addi	r2,r2,4
   24418:	100490ba 	slli	r2,r2,2
   2441c:	1885883a 	add	r2,r3,r2
   24420:	11000017 	ldw	r4,0(r2)
   24424:	0026d6c0 	call	26d6c <__hi0bits>
   24428:	00c00804 	movi	r3,32
   2442c:	1885c83a 	sub	r2,r3,r2
   24430:	003e9706 	br	23e90 <_dtoa_r+0xaa4>
   24434:	008000f4 	movhi	r2,3
   24438:	e701bb04 	addi	fp,fp,1772
   2443c:	1081bbc4 	addi	r2,r2,1775
   24440:	003db106 	br	23b08 <_dtoa_r+0x71c>
   24444:	00800044 	movi	r2,1
   24448:	d8800715 	stw	r2,28(sp)
   2444c:	003f4006 	br	24150 <_dtoa_r+0xd64>
   24450:	00800044 	movi	r2,1
   24454:	04800044 	movi	r18,1
   24458:	d8801f15 	stw	r2,124(sp)
   2445c:	003e6306 	br	23dec <_dtoa_r+0xa00>
   24460:	d8800217 	ldw	r2,8(sp)
   24464:	103e891e 	bne	r2,zero,23e8c <_dtoa_r+0xaa0>
   24468:	00800434 	movhi	r2,16
   2446c:	10bfffc4 	addi	r2,r2,-1
   24470:	a884703a 	and	r2,r21,r2
   24474:	103e851e 	bne	r2,zero,23e8c <_dtoa_r+0xaa0>
   24478:	a89ffc2c 	andhi	r2,r21,32752
   2447c:	10017c26 	beq	r2,zero,24a70 <_dtoa_r+0x1684>
   24480:	d8800517 	ldw	r2,20(sp)
   24484:	10800044 	addi	r2,r2,1
   24488:	d8800515 	stw	r2,20(sp)
   2448c:	d8800417 	ldw	r2,16(sp)
   24490:	10800044 	addi	r2,r2,1
   24494:	d8800415 	stw	r2,16(sp)
   24498:	00800044 	movi	r2,1
   2449c:	b001761e 	bne	r22,zero,24a78 <_dtoa_r+0x168c>
   244a0:	102d883a 	mov	r22,r2
   244a4:	003e7906 	br	23e8c <_dtoa_r+0xaa0>
   244a8:	18c00120 	cmpeqi	r3,r3,4
   244ac:	183e881e 	bne	r3,zero,23ed0 <_dtoa_r+0xae4>
   244b0:	00c00f04 	movi	r3,60
   244b4:	1885c83a 	sub	r2,r3,r2
   244b8:	003f1206 	br	24104 <_dtoa_r+0xd18>
   244bc:	880b883a 	mov	r5,r17
   244c0:	980d883a 	mov	r6,r19
   244c4:	8009883a 	mov	r4,r16
   244c8:	00272d40 	call	272d4 <__lshift>
   244cc:	1023883a 	mov	r17,r2
   244d0:	003f3406 	br	241a4 <_dtoa_r+0xdb8>
   244d4:	1805883a 	mov	r2,r3
   244d8:	003e5306 	br	23e28 <_dtoa_r+0xa3c>
   244dc:	d8800317 	ldw	r2,12(sp)
   244e0:	d8c00517 	ldw	r3,20(sp)
   244e4:	dd000315 	stw	r20,12(sp)
   244e8:	a085c83a 	sub	r2,r20,r2
   244ec:	b0ad883a 	add	r22,r22,r2
   244f0:	d8800417 	ldw	r2,16(sp)
   244f4:	1827883a 	mov	r19,r3
   244f8:	0029883a 	mov	r20,zero
   244fc:	1485883a 	add	r2,r2,r18
   24500:	d8800415 	stw	r2,16(sp)
   24504:	1c85883a 	add	r2,r3,r18
   24508:	d8800515 	stw	r2,20(sp)
   2450c:	01400044 	movi	r5,1
   24510:	8009883a 	mov	r4,r16
   24514:	0026e900 	call	26e90 <__i2b>
   24518:	1023883a 	mov	r17,r2
   2451c:	003e3d06 	br	23e14 <_dtoa_r+0xa28>
   24520:	d8800217 	ldw	r2,8(sp)
   24524:	103fb81e 	bne	r2,zero,24408 <_dtoa_r+0x101c>
   24528:	00800434 	movhi	r2,16
   2452c:	10bfffc4 	addi	r2,r2,-1
   24530:	a884703a 	and	r2,r21,r2
   24534:	103fb41e 	bne	r2,zero,24408 <_dtoa_r+0x101c>
   24538:	003fcf06 	br	24478 <_dtoa_r+0x108c>
   2453c:	d9000217 	ldw	r4,8(sp)
   24540:	a80b883a 	mov	r5,r21
   24544:	04c00084 	movi	r19,2
   24548:	003c9506 	br	237a0 <_dtoa_r+0x3b4>
   2454c:	00800084 	movi	r2,2
   24550:	d8800115 	stw	r2,4(sp)
   24554:	d8000715 	stw	zero,28(sp)
   24558:	003efd06 	br	24150 <_dtoa_r+0xd64>
   2455c:	103f691e 	bne	r2,zero,24304 <_dtoa_r+0xf18>
   24560:	a080004c 	andi	r2,r20,1
   24564:	103f641e 	bne	r2,zero,242f8 <_dtoa_r+0xf0c>
   24568:	003f6606 	br	24304 <_dtoa_r+0xf18>
   2456c:	e029883a 	mov	r20,fp
   24570:	a0800e60 	cmpeqi	r2,r20,57
   24574:	df000817 	ldw	fp,32(sp)
   24578:	10012f1e 	bne	r2,zero,24a38 <_dtoa_r+0x164c>
   2457c:	04bf6016 	blt	zero,r18,24300 <_dtoa_r+0xf14>
   24580:	003f6006 	br	24304 <_dtoa_r+0xf18>
   24584:	04400044 	movi	r17,1
   24588:	d8000715 	stw	zero,28(sp)
   2458c:	003c5006 	br	236d0 <_dtoa_r+0x2e4>
   24590:	1000021e 	bne	r2,zero,2459c <_dtoa_r+0x11b0>
   24594:	a0c0004c 	andi	r3,r20,1
   24598:	183e821e 	bne	r3,zero,23fa4 <_dtoa_r+0xbb8>
   2459c:	90bfffc7 	ldb	r2,-1(r18)
   245a0:	9011883a 	mov	r8,r18
   245a4:	94bfffc4 	addi	r18,r18,-1
   245a8:	10800c20 	cmpeqi	r2,r2,48
   245ac:	103ffb1e 	bne	r2,zero,2459c <_dtoa_r+0x11b0>
   245b0:	003e8606 	br	23fcc <_dtoa_r+0xbe0>
   245b4:	d8c00917 	ldw	r3,36(sp)
   245b8:	18009526 	beq	r3,zero,24810 <_dtoa_r+0x1424>
   245bc:	d8c00517 	ldw	r3,20(sp)
   245c0:	d9000417 	ldw	r4,16(sp)
   245c4:	10810cc4 	addi	r2,r2,1075
   245c8:	dd000317 	ldw	r20,12(sp)
   245cc:	2089883a 	add	r4,r4,r2
   245d0:	1885883a 	add	r2,r3,r2
   245d4:	1827883a 	mov	r19,r3
   245d8:	d9000415 	stw	r4,16(sp)
   245dc:	d8800515 	stw	r2,20(sp)
   245e0:	003fca06 	br	2450c <_dtoa_r+0x1120>
   245e4:	00800c44 	movi	r2,49
   245e8:	e0800005 	stb	r2,0(fp)
   245ec:	ad400044 	addi	r21,r21,1
   245f0:	003e7606 	br	23fcc <_dtoa_r+0xbe0>
   245f4:	00800044 	movi	r2,1
   245f8:	1505c83a 	sub	r2,r2,r20
   245fc:	d8800515 	stw	r2,20(sp)
   24600:	d8000415 	stw	zero,16(sp)
   24604:	d8000815 	stw	zero,32(sp)
   24608:	003dea06 	br	23db4 <_dtoa_r+0x9c8>
   2460c:	d8800617 	ldw	r2,24(sp)
   24610:	1000e326 	beq	r2,zero,249a0 <_dtoa_r+0x15b4>
   24614:	0091c83a 	sub	r8,zero,r2
   24618:	408003cc 	andi	r2,r8,15
   2461c:	100490fa 	slli	r2,r2,3
   24620:	02c000f4 	movhi	r11,3
   24624:	5ac1f604 	addi	r11,r11,2008
   24628:	5885883a 	add	r2,r11,r2
   2462c:	4011d13a 	srai	r8,r8,4
   24630:	11800017 	ldw	r6,0(r2)
   24634:	11c00117 	ldw	r7,4(r2)
   24638:	d9000217 	ldw	r4,8(sp)
   2463c:	a80b883a 	mov	r5,r21
   24640:	da000b15 	stw	r8,44(sp)
   24644:	002c6dc0 	call	2c6dc <__muldf3>
   24648:	da000b17 	ldw	r8,44(sp)
   2464c:	40013726 	beq	r8,zero,24b2c <_dtoa_r+0x1740>
   24650:	024000f4 	movhi	r9,3
   24654:	000b883a 	mov	r5,zero
   24658:	04c00084 	movi	r19,2
   2465c:	4a41ec04 	addi	r9,r9,1968
   24660:	dc800b15 	stw	r18,44(sp)
   24664:	1009883a 	mov	r4,r2
   24668:	9825883a 	mov	r18,r19
   2466c:	d8800c15 	stw	r2,48(sp)
   24670:	8027883a 	mov	r19,r16
   24674:	2805883a 	mov	r2,r5
   24678:	1829883a 	mov	r20,r3
   2467c:	4021883a 	mov	r16,r8
   24680:	4823883a 	mov	r17,r9
   24684:	180b883a 	mov	r5,r3
   24688:	8180004c 	andi	r6,r16,1
   2468c:	30000726 	beq	r6,zero,246ac <_dtoa_r+0x12c0>
   24690:	89800017 	ldw	r6,0(r17)
   24694:	89c00117 	ldw	r7,4(r17)
   24698:	94800044 	addi	r18,r18,1
   2469c:	002c6dc0 	call	2c6dc <__muldf3>
   246a0:	1009883a 	mov	r4,r2
   246a4:	180b883a 	mov	r5,r3
   246a8:	00800044 	movi	r2,1
   246ac:	8021d07a 	srai	r16,r16,1
   246b0:	8c400204 	addi	r17,r17,8
   246b4:	803ff41e 	bne	r16,zero,24688 <_dtoa_r+0x129c>
   246b8:	a007883a 	mov	r3,r20
   246bc:	2829883a 	mov	r20,r5
   246c0:	100b883a 	mov	r5,r2
   246c4:	29403fcc 	andi	r5,r5,255
   246c8:	9821883a 	mov	r16,r19
   246cc:	d8800c17 	ldw	r2,48(sp)
   246d0:	9027883a 	mov	r19,r18
   246d4:	2023883a 	mov	r17,r4
   246d8:	dc800b17 	ldw	r18,44(sp)
   246dc:	283c521e 	bne	r5,zero,23828 <_dtoa_r+0x43c>
   246e0:	1023883a 	mov	r17,r2
   246e4:	1829883a 	mov	r20,r3
   246e8:	003c4f06 	br	23828 <_dtoa_r+0x43c>
   246ec:	e011883a 	mov	r8,fp
   246f0:	003d5806 	br	23c54 <_dtoa_r+0x868>
   246f4:	8023883a 	mov	r17,r16
   246f8:	ddc00217 	ldw	r23,8(sp)
   246fc:	dc000417 	ldw	r16,16(sp)
   24700:	200d883a 	mov	r6,r4
   24704:	280f883a 	mov	r7,r5
   24708:	002b3080 	call	2b308 <__adddf3>
   2470c:	1009883a 	mov	r4,r2
   24710:	d9800117 	ldw	r6,4(sp)
   24714:	d9c00317 	ldw	r7,12(sp)
   24718:	1029883a 	mov	r20,r2
   2471c:	d8800617 	ldw	r2,24(sp)
   24720:	180b883a 	mov	r5,r3
   24724:	1825883a 	mov	r18,r3
   24728:	15400044 	addi	r21,r2,1
   2472c:	002c4e80 	call	2c4e8 <__gedf2>
   24730:	a82d883a 	mov	r22,r21
   24734:	00bcd016 	blt	zero,r2,23a78 <_dtoa_r+0x68c>
   24738:	d9800117 	ldw	r6,4(sp)
   2473c:	d9c00317 	ldw	r7,12(sp)
   24740:	a009883a 	mov	r4,r20
   24744:	900b883a 	mov	r5,r18
   24748:	002c4540 	call	2c454 <__eqdf2>
   2474c:	1000021e 	bne	r2,zero,24758 <_dtoa_r+0x136c>
   24750:	8880004c 	andi	r2,r17,1
   24754:	103cc81e 	bne	r2,zero,23a78 <_dtoa_r+0x68c>
   24758:	9811883a 	mov	r8,r19
   2475c:	003e2c06 	br	24010 <_dtoa_r+0xc24>
   24760:	89400117 	ldw	r5,4(r17)
   24764:	8009883a 	mov	r4,r16
   24768:	0026a3c0 	call	26a3c <_Balloc>
   2476c:	1027883a 	mov	r19,r2
   24770:	1000f226 	beq	r2,zero,24b3c <_dtoa_r+0x1750>
   24774:	89800417 	ldw	r6,16(r17)
   24778:	89400304 	addi	r5,r17,12
   2477c:	11000304 	addi	r4,r2,12
   24780:	31800084 	addi	r6,r6,2
   24784:	300c90ba 	slli	r6,r6,2
   24788:	002671c0 	call	2671c <memcpy>
   2478c:	980b883a 	mov	r5,r19
   24790:	01800044 	movi	r6,1
   24794:	8009883a 	mov	r4,r16
   24798:	00272d40 	call	272d4 <__lshift>
   2479c:	1027883a 	mov	r19,r2
   247a0:	003e8206 	br	241ac <_dtoa_r+0xdc0>
   247a4:	d8800617 	ldw	r2,24(sp)
   247a8:	e029883a 	mov	r20,fp
   247ac:	dc400215 	stw	r17,8(sp)
   247b0:	df000817 	ldw	fp,32(sp)
   247b4:	15400044 	addi	r21,r2,1
   247b8:	9823883a 	mov	r17,r19
   247bc:	003dee06 	br	23f78 <_dtoa_r+0xb8c>
   247c0:	880b883a 	mov	r5,r17
   247c4:	a00d883a 	mov	r6,r20
   247c8:	8009883a 	mov	r4,r16
   247cc:	00271940 	call	27194 <__pow5mult>
   247d0:	b80d883a 	mov	r6,r23
   247d4:	100b883a 	mov	r5,r2
   247d8:	8009883a 	mov	r4,r16
   247dc:	1023883a 	mov	r17,r2
   247e0:	0026f400 	call	26f40 <__multiply>
   247e4:	d8800915 	stw	r2,36(sp)
   247e8:	d8800317 	ldw	r2,12(sp)
   247ec:	b80b883a 	mov	r5,r23
   247f0:	8009883a 	mov	r4,r16
   247f4:	1529c83a 	sub	r20,r2,r20
   247f8:	dd000315 	stw	r20,12(sp)
   247fc:	0026ae00 	call	26ae0 <_Bfree>
   24800:	d8800917 	ldw	r2,36(sp)
   24804:	102f883a 	mov	r23,r2
   24808:	a03d9826 	beq	r20,zero,23e6c <_dtoa_r+0xa80>
   2480c:	003d9206 	br	23e58 <_dtoa_r+0xa6c>
   24810:	d8c01317 	ldw	r3,76(sp)
   24814:	00800d84 	movi	r2,54
   24818:	d9000517 	ldw	r4,20(sp)
   2481c:	10c5c83a 	sub	r2,r2,r3
   24820:	d8c00417 	ldw	r3,16(sp)
   24824:	dd000317 	ldw	r20,12(sp)
   24828:	2027883a 	mov	r19,r4
   2482c:	1887883a 	add	r3,r3,r2
   24830:	2085883a 	add	r2,r4,r2
   24834:	d8c00415 	stw	r3,16(sp)
   24838:	d8800515 	stw	r2,20(sp)
   2483c:	003f3306 	br	2450c <_dtoa_r+0x1120>
   24840:	d9000b17 	ldw	r4,44(sp)
   24844:	d9800f17 	ldw	r6,60(sp)
   24848:	d9c01017 	ldw	r7,64(sp)
   2484c:	980b883a 	mov	r5,r19
   24850:	dac01215 	stw	r11,72(sp)
   24854:	da000d15 	stw	r8,52(sp)
   24858:	002c6dc0 	call	2c6dc <__muldf3>
   2485c:	d9000e17 	ldw	r4,56(sp)
   24860:	d9400c17 	ldw	r5,48(sp)
   24864:	d8800715 	stw	r2,28(sp)
   24868:	e1000005 	stb	r4,0(fp)
   2486c:	d8c00915 	stw	r3,36(sp)
   24870:	29000058 	cmpnei	r4,r5,1
   24874:	da000d17 	ldw	r8,52(sp)
   24878:	dac01217 	ldw	r11,72(sp)
   2487c:	e167883a 	add	r19,fp,r5
   24880:	2000a126 	beq	r4,zero,24b08 <_dtoa_r+0x171c>
   24884:	dc000c15 	stw	r16,48(sp)
   24888:	dc800b15 	stw	r18,44(sp)
   2488c:	4021883a 	mov	r16,r8
   24890:	a009883a 	mov	r4,r20
   24894:	880b883a 	mov	r5,r17
   24898:	dac00d15 	stw	r11,52(sp)
   2489c:	000d883a 	mov	r6,zero
   248a0:	01d00934 	movhi	r7,16420
   248a4:	002c6dc0 	call	2c6dc <__muldf3>
   248a8:	180b883a 	mov	r5,r3
   248ac:	1009883a 	mov	r4,r2
   248b0:	1825883a 	mov	r18,r3
   248b4:	1029883a 	mov	r20,r2
   248b8:	002d7a40 	call	2d7a4 <__fixdfsi>
   248bc:	1009883a 	mov	r4,r2
   248c0:	1023883a 	mov	r17,r2
   248c4:	002d8240 	call	2d824 <__floatsidf>
   248c8:	a009883a 	mov	r4,r20
   248cc:	900b883a 	mov	r5,r18
   248d0:	100d883a 	mov	r6,r2
   248d4:	180f883a 	mov	r7,r3
   248d8:	84000044 	addi	r16,r16,1
   248dc:	8c400c04 	addi	r17,r17,48
   248e0:	002cdb40 	call	2cdb4 <__subdf3>
   248e4:	847fffc5 	stb	r17,-1(r16)
   248e8:	1009883a 	mov	r4,r2
   248ec:	180b883a 	mov	r5,r3
   248f0:	9c3fea1e 	bne	r19,r16,2489c <_dtoa_r+0x14b0>
   248f4:	dc800b17 	ldw	r18,44(sp)
   248f8:	dc000c17 	ldw	r16,48(sp)
   248fc:	dac00d17 	ldw	r11,52(sp)
   24900:	1029883a 	mov	r20,r2
   24904:	1823883a 	mov	r17,r3
   24908:	d9000717 	ldw	r4,28(sp)
   2490c:	d9400917 	ldw	r5,36(sp)
   24910:	000d883a 	mov	r6,zero
   24914:	01cff834 	movhi	r7,16352
   24918:	dac00b15 	stw	r11,44(sp)
   2491c:	002b3080 	call	2b308 <__adddf3>
   24920:	100d883a 	mov	r6,r2
   24924:	180f883a 	mov	r7,r3
   24928:	a009883a 	mov	r4,r20
   2492c:	880b883a 	mov	r5,r17
   24930:	002c4e80 	call	2c4e8 <__gedf2>
   24934:	00805916 	blt	zero,r2,24a9c <_dtoa_r+0x16b0>
   24938:	d9800717 	ldw	r6,28(sp)
   2493c:	d9c00917 	ldw	r7,36(sp)
   24940:	0009883a 	mov	r4,zero
   24944:	014ff834 	movhi	r5,16352
   24948:	002cdb40 	call	2cdb4 <__subdf3>
   2494c:	100d883a 	mov	r6,r2
   24950:	180f883a 	mov	r7,r3
   24954:	a009883a 	mov	r4,r20
   24958:	880b883a 	mov	r5,r17
   2495c:	002c5e40 	call	2c5e4 <__ledf2>
   24960:	dac00b17 	ldw	r11,44(sp)
   24964:	10000616 	blt	r2,zero,24980 <_dtoa_r+0x1594>
   24968:	d8801417 	ldw	r2,80(sp)
   2496c:	103d2516 	blt	r2,zero,23e04 <_dtoa_r+0xa18>
   24970:	d8800617 	ldw	r2,24(sp)
   24974:	108003c8 	cmpgei	r2,r2,15
   24978:	103d221e 	bne	r2,zero,23e04 <_dtoa_r+0xa18>
   2497c:	003c9c06 	br	23bf0 <_dtoa_r+0x804>
   24980:	98bfffc7 	ldb	r2,-1(r19)
   24984:	9811883a 	mov	r8,r19
   24988:	9cffffc4 	addi	r19,r19,-1
   2498c:	10800c20 	cmpeqi	r2,r2,48
   24990:	103ffb1e 	bne	r2,zero,24980 <_dtoa_r+0x1594>
   24994:	d8801117 	ldw	r2,68(sp)
   24998:	15400044 	addi	r21,r2,1
   2499c:	003d9c06 	br	24010 <_dtoa_r+0xc24>
   249a0:	dc400217 	ldw	r17,8(sp)
   249a4:	a829883a 	mov	r20,r21
   249a8:	04c00084 	movi	r19,2
   249ac:	003b9e06 	br	23828 <_dtoa_r+0x43c>
   249b0:	903c6626 	beq	r18,zero,23b4c <_dtoa_r+0x760>
   249b4:	d8800a17 	ldw	r2,40(sp)
   249b8:	00bc860e 	bge	zero,r2,23bd4 <_dtoa_r+0x7e8>
   249bc:	a00b883a 	mov	r5,r20
   249c0:	8809883a 	mov	r4,r17
   249c4:	000d883a 	mov	r6,zero
   249c8:	01d00934 	movhi	r7,16420
   249cc:	002c6dc0 	call	2c6dc <__muldf3>
   249d0:	99000044 	addi	r4,r19,1
   249d4:	1023883a 	mov	r17,r2
   249d8:	1829883a 	mov	r20,r3
   249dc:	002d8240 	call	2d824 <__floatsidf>
   249e0:	880d883a 	mov	r6,r17
   249e4:	a00f883a 	mov	r7,r20
   249e8:	1009883a 	mov	r4,r2
   249ec:	180b883a 	mov	r5,r3
   249f0:	002c6dc0 	call	2c6dc <__muldf3>
   249f4:	1009883a 	mov	r4,r2
   249f8:	000d883a 	mov	r6,zero
   249fc:	01d00734 	movhi	r7,16412
   24a00:	180b883a 	mov	r5,r3
   24a04:	002b3080 	call	2b308 <__adddf3>
   24a08:	d9000617 	ldw	r4,24(sp)
   24a0c:	d8800b15 	stw	r2,44(sp)
   24a10:	00bf3034 	movhi	r2,64704
   24a14:	18a7883a 	add	r19,r3,r2
   24a18:	d8800a17 	ldw	r2,40(sp)
   24a1c:	213fffc4 	addi	r4,r4,-1
   24a20:	d9001115 	stw	r4,68(sp)
   24a24:	d8800c15 	stw	r2,48(sp)
   24a28:	003b9a06 	br	23894 <_dtoa_r+0x4a8>
   24a2c:	00c00c44 	movi	r3,49
   24a30:	b5800044 	addi	r22,r22,1
   24a34:	003c1906 	br	23a9c <_dtoa_r+0x6b0>
   24a38:	00800e44 	movi	r2,57
   24a3c:	b0800005 	stb	r2,0(r22)
   24a40:	d8800617 	ldw	r2,24(sp)
   24a44:	dc400215 	stw	r17,8(sp)
   24a48:	b4800044 	addi	r18,r22,1
   24a4c:	15400044 	addi	r21,r2,1
   24a50:	9823883a 	mov	r17,r19
   24a54:	003d5306 	br	23fa4 <_dtoa_r+0xbb8>
   24a58:	d8000315 	stw	zero,12(sp)
   24a5c:	0023883a 	mov	r17,zero
   24a60:	003e5406 	br	243b4 <_dtoa_r+0xfc8>
   24a64:	e029883a 	mov	r20,fp
   24a68:	df000817 	ldw	fp,32(sp)
   24a6c:	003e2506 	br	24304 <_dtoa_r+0xf18>
   24a70:	0005883a 	mov	r2,zero
   24a74:	003e8906 	br	2449c <_dtoa_r+0x10b0>
   24a78:	102d883a 	mov	r22,r2
   24a7c:	003e6306 	br	2440c <_dtoa_r+0x1020>
   24a80:	d8c00417 	ldw	r3,16(sp)
   24a84:	1027883a 	mov	r19,r2
   24a88:	1485883a 	add	r2,r2,r18
   24a8c:	1c87883a 	add	r3,r3,r18
   24a90:	d8c00415 	stw	r3,16(sp)
   24a94:	d8800515 	stw	r2,20(sp)
   24a98:	003e9c06 	br	2450c <_dtoa_r+0x1120>
   24a9c:	d8801117 	ldw	r2,68(sp)
   24aa0:	15800044 	addi	r22,r2,1
   24aa4:	003bf406 	br	23a78 <_dtoa_r+0x68c>
   24aa8:	ddc00b17 	ldw	r23,44(sp)
   24aac:	dc000c17 	ldw	r16,48(sp)
   24ab0:	b011883a 	mov	r8,r22
   24ab4:	003fb706 	br	24994 <_dtoa_r+0x15a8>
   24ab8:	dc800d17 	ldw	r18,52(sp)
   24abc:	dd800e17 	ldw	r22,56(sp)
   24ac0:	ddc00b17 	ldw	r23,44(sp)
   24ac4:	dc000c17 	ldw	r16,48(sp)
   24ac8:	dd400f17 	ldw	r21,60(sp)
   24acc:	003c4106 	br	23bd4 <_dtoa_r+0x7e8>
   24ad0:	d8800117 	ldw	r2,4(sp)
   24ad4:	108000c8 	cmpgei	r2,r2,3
   24ad8:	1000081e 	bne	r2,zero,24afc <_dtoa_r+0x1710>
   24adc:	d9400317 	ldw	r5,12(sp)
   24ae0:	b809883a 	mov	r4,r23
   24ae4:	00231f00 	call	231f0 <quorem>
   24ae8:	15000c04 	addi	r20,r2,48
   24aec:	dd400617 	ldw	r21,24(sp)
   24af0:	dc800a17 	ldw	r18,40(sp)
   24af4:	e5000005 	stb	r20,0(fp)
   24af8:	003d1b06 	br	23f68 <_dtoa_r+0xb7c>
   24afc:	dc800a17 	ldw	r18,40(sp)
   24b00:	dd400615 	stw	r21,24(sp)
   24b04:	003e2006 	br	24388 <_dtoa_r+0xf9c>
   24b08:	4027883a 	mov	r19,r8
   24b0c:	003f7e06 	br	24908 <_dtoa_r+0x151c>
   24b10:	d8800117 	ldw	r2,4(sp)
   24b14:	108000c8 	cmpgei	r2,r2,3
   24b18:	103ff81e 	bne	r2,zero,24afc <_dtoa_r+0x1710>
   24b1c:	dd400615 	stw	r21,24(sp)
   24b20:	dc800a17 	ldw	r18,40(sp)
   24b24:	04fd9f0e 	bge	zero,r19,241a4 <_dtoa_r+0xdb8>
   24b28:	003e6406 	br	244bc <_dtoa_r+0x10d0>
   24b2c:	1023883a 	mov	r17,r2
   24b30:	1829883a 	mov	r20,r3
   24b34:	04c00084 	movi	r19,2
   24b38:	003b3b06 	br	23828 <_dtoa_r+0x43c>
   24b3c:	01c000f4 	movhi	r7,3
   24b40:	010000f4 	movhi	r4,3
   24b44:	39c1bc04 	addi	r7,r7,1776
   24b48:	000d883a 	mov	r6,zero
   24b4c:	0140ba84 	movi	r5,746
   24b50:	2101c104 	addi	r4,r4,1796
   24b54:	00298340 	call	29834 <__assert_func>
   24b58:	01c000f4 	movhi	r7,3
   24b5c:	010000f4 	movhi	r4,3
   24b60:	39c1bc04 	addi	r7,r7,1776
   24b64:	000d883a 	mov	r6,zero
   24b68:	01406a84 	movi	r5,426
   24b6c:	2101c104 	addi	r4,r4,1796
   24b70:	00298340 	call	29834 <__assert_func>
   24b74:	e701b804 	addi	fp,fp,1760
   24b78:	003a4d06 	br	234b0 <_dtoa_r+0xc4>
   24b7c:	80001115 	stw	zero,68(r16)
   24b80:	000b883a 	mov	r5,zero
   24b84:	8009883a 	mov	r4,r16
   24b88:	0026a3c0 	call	26a3c <_Balloc>
   24b8c:	1039883a 	mov	fp,r2
   24b90:	103ff126 	beq	r2,zero,24b58 <_dtoa_r+0x176c>
   24b94:	80801015 	stw	r2,64(r16)
   24b98:	00bfffc4 	movi	r2,-1
   24b9c:	d8800a15 	stw	r2,40(sp)
   24ba0:	00800044 	movi	r2,1
   24ba4:	04bfffc4 	movi	r18,-1
   24ba8:	d8800715 	stw	r2,28(sp)
   24bac:	d8001f15 	stw	zero,124(sp)
   24bb0:	003c0806 	br	23bd4 <_dtoa_r+0x7e8>
   24bb4:	80001115 	stw	zero,68(r16)
   24bb8:	000b883a 	mov	r5,zero
   24bbc:	003ad506 	br	23714 <_dtoa_r+0x328>
   24bc0:	a005883a 	mov	r2,r20
   24bc4:	e029883a 	mov	r20,fp
   24bc8:	df000817 	ldw	fp,32(sp)
   24bcc:	00bdcd0e 	bge	zero,r2,24304 <_dtoa_r+0xf18>
   24bd0:	003dc006 	br	242d4 <_dtoa_r+0xee8>

00024bd4 <__sflush_r>:
   24bd4:	2880030b 	ldhu	r2,12(r5)
   24bd8:	defffb04 	addi	sp,sp,-20
   24bdc:	dcc00315 	stw	r19,12(sp)
   24be0:	dc000015 	stw	r16,0(sp)
   24be4:	dfc00415 	stw	ra,16(sp)
   24be8:	dc800215 	stw	r18,8(sp)
   24bec:	dc400115 	stw	r17,4(sp)
   24bf0:	10c0020c 	andi	r3,r2,8
   24bf4:	2821883a 	mov	r16,r5
   24bf8:	2027883a 	mov	r19,r4
   24bfc:	18003c1e 	bne	r3,zero,24cf0 <__sflush_r+0x11c>
   24c00:	29000117 	ldw	r4,4(r5)
   24c04:	10c20014 	ori	r3,r2,2048
   24c08:	28c0030d 	sth	r3,12(r5)
   24c0c:	0100580e 	bge	zero,r4,24d70 <__sflush_r+0x19c>
   24c10:	82000a17 	ldw	r8,40(r16)
   24c14:	40003426 	beq	r8,zero,24ce8 <__sflush_r+0x114>
   24c18:	9c400017 	ldw	r17,0(r19)
   24c1c:	1084000c 	andi	r2,r2,4096
   24c20:	98000015 	stw	zero,0(r19)
   24c24:	81400717 	ldw	r5,28(r16)
   24c28:	1000561e 	bne	r2,zero,24d84 <__sflush_r+0x1b0>
   24c2c:	000d883a 	mov	r6,zero
   24c30:	01c00044 	movi	r7,1
   24c34:	9809883a 	mov	r4,r19
   24c38:	403ee83a 	callr	r8
   24c3c:	100d883a 	mov	r6,r2
   24c40:	10bfffd8 	cmpnei	r2,r2,-1
   24c44:	10005b26 	beq	r2,zero,24db4 <__sflush_r+0x1e0>
   24c48:	80c0030b 	ldhu	r3,12(r16)
   24c4c:	82000a17 	ldw	r8,40(r16)
   24c50:	18c0010c 	andi	r3,r3,4
   24c54:	18000626 	beq	r3,zero,24c70 <__sflush_r+0x9c>
   24c58:	80c00117 	ldw	r3,4(r16)
   24c5c:	80800c17 	ldw	r2,48(r16)
   24c60:	30cdc83a 	sub	r6,r6,r3
   24c64:	10000226 	beq	r2,zero,24c70 <__sflush_r+0x9c>
   24c68:	80800f17 	ldw	r2,60(r16)
   24c6c:	308dc83a 	sub	r6,r6,r2
   24c70:	81400717 	ldw	r5,28(r16)
   24c74:	000f883a 	mov	r7,zero
   24c78:	9809883a 	mov	r4,r19
   24c7c:	403ee83a 	callr	r8
   24c80:	10ffffd8 	cmpnei	r3,r2,-1
   24c84:	1800411e 	bne	r3,zero,24d8c <__sflush_r+0x1b8>
   24c88:	99400017 	ldw	r5,0(r19)
   24c8c:	28c007b0 	cmpltui	r3,r5,30
   24c90:	18002c26 	beq	r3,zero,24d44 <__sflush_r+0x170>
   24c94:	00f7f034 	movhi	r3,57280
   24c98:	18ffff84 	addi	r3,r3,-2
   24c9c:	1949d83a 	sra	r4,r3,r5
   24ca0:	80c0030b 	ldhu	r3,12(r16)
   24ca4:	2100004c 	andi	r4,r4,1
   24ca8:	2000271e 	bne	r4,zero,24d48 <__sflush_r+0x174>
   24cac:	81000417 	ldw	r4,16(r16)
   24cb0:	19bdffcc 	andi	r6,r3,63487
   24cb4:	8180030d 	sth	r6,12(r16)
   24cb8:	80000115 	stw	zero,4(r16)
   24cbc:	81000015 	stw	r4,0(r16)
   24cc0:	18c4000c 	andi	r3,r3,4096
   24cc4:	1800431e 	bne	r3,zero,24dd4 <__sflush_r+0x200>
   24cc8:	81400c17 	ldw	r5,48(r16)
   24ccc:	9c400015 	stw	r17,0(r19)
   24cd0:	28000526 	beq	r5,zero,24ce8 <__sflush_r+0x114>
   24cd4:	80801004 	addi	r2,r16,64
   24cd8:	28800226 	beq	r5,r2,24ce4 <__sflush_r+0x110>
   24cdc:	9809883a 	mov	r4,r19
   24ce0:	00253600 	call	25360 <_free_r>
   24ce4:	80000c15 	stw	zero,48(r16)
   24ce8:	0005883a 	mov	r2,zero
   24cec:	00001906 	br	24d54 <__sflush_r+0x180>
   24cf0:	2c800417 	ldw	r18,16(r5)
   24cf4:	903ffc26 	beq	r18,zero,24ce8 <__sflush_r+0x114>
   24cf8:	2c400017 	ldw	r17,0(r5)
   24cfc:	108000cc 	andi	r2,r2,3
   24d00:	2c800015 	stw	r18,0(r5)
   24d04:	8ca3c83a 	sub	r17,r17,r18
   24d08:	10001c1e 	bne	r2,zero,24d7c <__sflush_r+0x1a8>
   24d0c:	28800517 	ldw	r2,20(r5)
   24d10:	80800215 	stw	r2,8(r16)
   24d14:	04400316 	blt	zero,r17,24d24 <__sflush_r+0x150>
   24d18:	003ff306 	br	24ce8 <__sflush_r+0x114>
   24d1c:	90a5883a 	add	r18,r18,r2
   24d20:	047ff10e 	bge	zero,r17,24ce8 <__sflush_r+0x114>
   24d24:	80800917 	ldw	r2,36(r16)
   24d28:	81400717 	ldw	r5,28(r16)
   24d2c:	880f883a 	mov	r7,r17
   24d30:	900d883a 	mov	r6,r18
   24d34:	9809883a 	mov	r4,r19
   24d38:	103ee83a 	callr	r2
   24d3c:	88a3c83a 	sub	r17,r17,r2
   24d40:	00bff616 	blt	zero,r2,24d1c <__sflush_r+0x148>
   24d44:	80c0030b 	ldhu	r3,12(r16)
   24d48:	18c01014 	ori	r3,r3,64
   24d4c:	80c0030d 	sth	r3,12(r16)
   24d50:	00bfffc4 	movi	r2,-1
   24d54:	dfc00417 	ldw	ra,16(sp)
   24d58:	dcc00317 	ldw	r19,12(sp)
   24d5c:	dc800217 	ldw	r18,8(sp)
   24d60:	dc400117 	ldw	r17,4(sp)
   24d64:	dc000017 	ldw	r16,0(sp)
   24d68:	dec00504 	addi	sp,sp,20
   24d6c:	f800283a 	ret
   24d70:	29000f17 	ldw	r4,60(r5)
   24d74:	013fa616 	blt	zero,r4,24c10 <__sflush_r+0x3c>
   24d78:	003fdb06 	br	24ce8 <__sflush_r+0x114>
   24d7c:	0005883a 	mov	r2,zero
   24d80:	003fe306 	br	24d10 <__sflush_r+0x13c>
   24d84:	81801417 	ldw	r6,80(r16)
   24d88:	003fb106 	br	24c50 <__sflush_r+0x7c>
   24d8c:	80c0030b 	ldhu	r3,12(r16)
   24d90:	81000417 	ldw	r4,16(r16)
   24d94:	80000115 	stw	zero,4(r16)
   24d98:	197dffcc 	andi	r5,r3,63487
   24d9c:	8140030d 	sth	r5,12(r16)
   24da0:	81000015 	stw	r4,0(r16)
   24da4:	18c4000c 	andi	r3,r3,4096
   24da8:	183fc726 	beq	r3,zero,24cc8 <__sflush_r+0xf4>
   24dac:	80801415 	stw	r2,80(r16)
   24db0:	003fc506 	br	24cc8 <__sflush_r+0xf4>
   24db4:	98800017 	ldw	r2,0(r19)
   24db8:	103fa326 	beq	r2,zero,24c48 <__sflush_r+0x74>
   24dbc:	10c00760 	cmpeqi	r3,r2,29
   24dc0:	1800021e 	bne	r3,zero,24dcc <__sflush_r+0x1f8>
   24dc4:	10800598 	cmpnei	r2,r2,22
   24dc8:	103fde1e 	bne	r2,zero,24d44 <__sflush_r+0x170>
   24dcc:	9c400015 	stw	r17,0(r19)
   24dd0:	003fc506 	br	24ce8 <__sflush_r+0x114>
   24dd4:	283fbc1e 	bne	r5,zero,24cc8 <__sflush_r+0xf4>
   24dd8:	003ff406 	br	24dac <__sflush_r+0x1d8>

00024ddc <_fflush_r>:
   24ddc:	defffd04 	addi	sp,sp,-12
   24de0:	dc000115 	stw	r16,4(sp)
   24de4:	dfc00215 	stw	ra,8(sp)
   24de8:	2021883a 	mov	r16,r4
   24dec:	20000226 	beq	r4,zero,24df8 <_fflush_r+0x1c>
   24df0:	20800e17 	ldw	r2,56(r4)
   24df4:	10000726 	beq	r2,zero,24e14 <_fflush_r+0x38>
   24df8:	2880030f 	ldh	r2,12(r5)
   24dfc:	10000a1e 	bne	r2,zero,24e28 <_fflush_r+0x4c>
   24e00:	0005883a 	mov	r2,zero
   24e04:	dfc00217 	ldw	ra,8(sp)
   24e08:	dc000117 	ldw	r16,4(sp)
   24e0c:	dec00304 	addi	sp,sp,12
   24e10:	f800283a 	ret
   24e14:	d9400015 	stw	r5,0(sp)
   24e18:	00251f40 	call	251f4 <__sinit>
   24e1c:	d9400017 	ldw	r5,0(sp)
   24e20:	2880030f 	ldh	r2,12(r5)
   24e24:	103ff626 	beq	r2,zero,24e00 <_fflush_r+0x24>
   24e28:	8009883a 	mov	r4,r16
   24e2c:	dfc00217 	ldw	ra,8(sp)
   24e30:	dc000117 	ldw	r16,4(sp)
   24e34:	dec00304 	addi	sp,sp,12
   24e38:	0024bd41 	jmpi	24bd4 <__sflush_r>

00024e3c <fflush>:
   24e3c:	20001726 	beq	r4,zero,24e9c <fflush+0x60>
   24e40:	008000f4 	movhi	r2,3
   24e44:	200b883a 	mov	r5,r4
   24e48:	110a3b17 	ldw	r4,10476(r2)
   24e4c:	20000226 	beq	r4,zero,24e58 <fflush+0x1c>
   24e50:	20800e17 	ldw	r2,56(r4)
   24e54:	10000526 	beq	r2,zero,24e6c <fflush+0x30>
   24e58:	2880030f 	ldh	r2,12(r5)
   24e5c:	1000021e 	bne	r2,zero,24e68 <fflush+0x2c>
   24e60:	0005883a 	mov	r2,zero
   24e64:	f800283a 	ret
   24e68:	0024bd41 	jmpi	24bd4 <__sflush_r>
   24e6c:	defffd04 	addi	sp,sp,-12
   24e70:	d9400115 	stw	r5,4(sp)
   24e74:	d9000015 	stw	r4,0(sp)
   24e78:	dfc00215 	stw	ra,8(sp)
   24e7c:	00251f40 	call	251f4 <__sinit>
   24e80:	d9400117 	ldw	r5,4(sp)
   24e84:	d9000017 	ldw	r4,0(sp)
   24e88:	2880030f 	ldh	r2,12(r5)
   24e8c:	10000826 	beq	r2,zero,24eb0 <fflush+0x74>
   24e90:	dfc00217 	ldw	ra,8(sp)
   24e94:	dec00304 	addi	sp,sp,12
   24e98:	0024bd41 	jmpi	24bd4 <__sflush_r>
   24e9c:	008000f4 	movhi	r2,3
   24ea0:	110a3a17 	ldw	r4,10472(r2)
   24ea4:	014000b4 	movhi	r5,2
   24ea8:	29537704 	addi	r5,r5,19932
   24eac:	0025ba41 	jmpi	25ba4 <_fwalk_reent>
   24eb0:	0005883a 	mov	r2,zero
   24eb4:	dfc00217 	ldw	ra,8(sp)
   24eb8:	dec00304 	addi	sp,sp,12
   24ebc:	f800283a 	ret

00024ec0 <__fp_lock>:
   24ec0:	0005883a 	mov	r2,zero
   24ec4:	f800283a 	ret

00024ec8 <_cleanup_r>:
   24ec8:	014000f4 	movhi	r5,3
   24ecc:	29667f04 	addi	r5,r5,-26116
   24ed0:	0025ba41 	jmpi	25ba4 <_fwalk_reent>

00024ed4 <__fp_unlock>:
   24ed4:	0005883a 	mov	r2,zero
   24ed8:	f800283a 	ret

00024edc <__sinit.part.0>:
   24edc:	00c000b4 	movhi	r3,2
   24ee0:	20800117 	ldw	r2,4(r4)
   24ee4:	18d3b204 	addi	r3,r3,20168
   24ee8:	20c00f15 	stw	r3,60(r4)
   24eec:	2140bb04 	addi	r5,r4,748
   24ef0:	00c000c4 	movi	r3,3
   24ef4:	20c0b915 	stw	r3,740(r4)
   24ef8:	2140ba15 	stw	r5,744(r4)
   24efc:	2000b815 	stw	zero,736(r4)
   24f00:	10001705 	stb	zero,92(r2)
   24f04:	10001745 	stb	zero,93(r2)
   24f08:	10001785 	stb	zero,94(r2)
   24f0c:	100017c5 	stb	zero,95(r2)
   24f10:	10001805 	stb	zero,96(r2)
   24f14:	10001845 	stb	zero,97(r2)
   24f18:	10001885 	stb	zero,98(r2)
   24f1c:	100018c5 	stb	zero,99(r2)
   24f20:	00c00104 	movi	r3,4
   24f24:	10c00315 	stw	r3,12(r2)
   24f28:	020000f4 	movhi	r8,3
   24f2c:	20c00217 	ldw	r3,8(r4)
   24f30:	01c000f4 	movhi	r7,3
   24f34:	018000f4 	movhi	r6,3
   24f38:	014000f4 	movhi	r5,3
   24f3c:	42207704 	addi	r8,r8,-32292
   24f40:	39e08e04 	addi	r7,r7,-32200
   24f44:	31a0ae04 	addi	r6,r6,-32072
   24f48:	2960c504 	addi	r5,r5,-31980
   24f4c:	02400074 	movhi	r9,1
   24f50:	10000015 	stw	zero,0(r2)
   24f54:	10000115 	stw	zero,4(r2)
   24f58:	10000215 	stw	zero,8(r2)
   24f5c:	10001915 	stw	zero,100(r2)
   24f60:	10000415 	stw	zero,16(r2)
   24f64:	10000515 	stw	zero,20(r2)
   24f68:	10000615 	stw	zero,24(r2)
   24f6c:	10800715 	stw	r2,28(r2)
   24f70:	12000815 	stw	r8,32(r2)
   24f74:	11c00915 	stw	r7,36(r2)
   24f78:	11800a15 	stw	r6,40(r2)
   24f7c:	11400b15 	stw	r5,44(r2)
   24f80:	4a400284 	addi	r9,r9,10
   24f84:	1a400315 	stw	r9,12(r3)
   24f88:	18000015 	stw	zero,0(r3)
   24f8c:	18000115 	stw	zero,4(r3)
   24f90:	18000215 	stw	zero,8(r3)
   24f94:	18001915 	stw	zero,100(r3)
   24f98:	18000415 	stw	zero,16(r3)
   24f9c:	18001705 	stb	zero,92(r3)
   24fa0:	18001745 	stb	zero,93(r3)
   24fa4:	18001785 	stb	zero,94(r3)
   24fa8:	180017c5 	stb	zero,95(r3)
   24fac:	18001805 	stb	zero,96(r3)
   24fb0:	18001845 	stb	zero,97(r3)
   24fb4:	18001885 	stb	zero,98(r3)
   24fb8:	180018c5 	stb	zero,99(r3)
   24fbc:	20800317 	ldw	r2,12(r4)
   24fc0:	024000b4 	movhi	r9,2
   24fc4:	18000515 	stw	zero,20(r3)
   24fc8:	18000615 	stw	zero,24(r3)
   24fcc:	18c00715 	stw	r3,28(r3)
   24fd0:	1a000815 	stw	r8,32(r3)
   24fd4:	19c00915 	stw	r7,36(r3)
   24fd8:	19800a15 	stw	r6,40(r3)
   24fdc:	19400b15 	stw	r5,44(r3)
   24fe0:	4a400484 	addi	r9,r9,18
   24fe4:	10000015 	stw	zero,0(r2)
   24fe8:	10000115 	stw	zero,4(r2)
   24fec:	10000215 	stw	zero,8(r2)
   24ff0:	10001915 	stw	zero,100(r2)
   24ff4:	12400315 	stw	r9,12(r2)
   24ff8:	10000415 	stw	zero,16(r2)
   24ffc:	10000515 	stw	zero,20(r2)
   25000:	10000615 	stw	zero,24(r2)
   25004:	10001705 	stb	zero,92(r2)
   25008:	10001745 	stb	zero,93(r2)
   2500c:	10001785 	stb	zero,94(r2)
   25010:	100017c5 	stb	zero,95(r2)
   25014:	10001805 	stb	zero,96(r2)
   25018:	10001845 	stb	zero,97(r2)
   2501c:	10001885 	stb	zero,98(r2)
   25020:	100018c5 	stb	zero,99(r2)
   25024:	10800715 	stw	r2,28(r2)
   25028:	12000815 	stw	r8,32(r2)
   2502c:	11c00915 	stw	r7,36(r2)
   25030:	11800a15 	stw	r6,40(r2)
   25034:	11400b15 	stw	r5,44(r2)
   25038:	00800044 	movi	r2,1
   2503c:	20800e15 	stw	r2,56(r4)
   25040:	f800283a 	ret

00025044 <__sfmoreglue>:
   25044:	defffc04 	addi	sp,sp,-16
   25048:	dc400115 	stw	r17,4(sp)
   2504c:	2c7fffc4 	addi	r17,r5,-1
   25050:	8c401a24 	muli	r17,r17,104
   25054:	dc800215 	stw	r18,8(sp)
   25058:	2825883a 	mov	r18,r5
   2505c:	89401d04 	addi	r5,r17,116
   25060:	dc000015 	stw	r16,0(sp)
   25064:	dfc00315 	stw	ra,12(sp)
   25068:	0025e980 	call	25e98 <_malloc_r>
   2506c:	1021883a 	mov	r16,r2
   25070:	10000726 	beq	r2,zero,25090 <__sfmoreglue+0x4c>
   25074:	11000304 	addi	r4,r2,12
   25078:	10000015 	stw	zero,0(r2)
   2507c:	14800115 	stw	r18,4(r2)
   25080:	11000215 	stw	r4,8(r2)
   25084:	89801a04 	addi	r6,r17,104
   25088:	000b883a 	mov	r5,zero
   2508c:	00269440 	call	26944 <memset>
   25090:	8005883a 	mov	r2,r16
   25094:	dfc00317 	ldw	ra,12(sp)
   25098:	dc800217 	ldw	r18,8(sp)
   2509c:	dc400117 	ldw	r17,4(sp)
   250a0:	dc000017 	ldw	r16,0(sp)
   250a4:	dec00404 	addi	sp,sp,16
   250a8:	f800283a 	ret

000250ac <__sfp>:
   250ac:	defffc04 	addi	sp,sp,-16
   250b0:	008000f4 	movhi	r2,3
   250b4:	dc400115 	stw	r17,4(sp)
   250b8:	144a3a17 	ldw	r17,10472(r2)
   250bc:	dc800215 	stw	r18,8(sp)
   250c0:	dfc00315 	stw	ra,12(sp)
   250c4:	88800e17 	ldw	r2,56(r17)
   250c8:	dc000015 	stw	r16,0(sp)
   250cc:	2025883a 	mov	r18,r4
   250d0:	10002d26 	beq	r2,zero,25188 <__sfp+0xdc>
   250d4:	8c40b804 	addi	r17,r17,736
   250d8:	88800117 	ldw	r2,4(r17)
   250dc:	8c000217 	ldw	r16,8(r17)
   250e0:	10bfffc4 	addi	r2,r2,-1
   250e4:	1000030e 	bge	r2,zero,250f4 <__sfp+0x48>
   250e8:	00002306 	br	25178 <__sfp+0xcc>
   250ec:	84001a04 	addi	r16,r16,104
   250f0:	28002126 	beq	r5,zero,25178 <__sfp+0xcc>
   250f4:	80c0030f 	ldh	r3,12(r16)
   250f8:	10bfffc4 	addi	r2,r2,-1
   250fc:	117fffd8 	cmpnei	r5,r2,-1
   25100:	183ffa1e 	bne	r3,zero,250ec <__sfp+0x40>
   25104:	00bffff4 	movhi	r2,65535
   25108:	10800044 	addi	r2,r2,1
   2510c:	80800315 	stw	r2,12(r16)
   25110:	80001915 	stw	zero,100(r16)
   25114:	80000015 	stw	zero,0(r16)
   25118:	80000215 	stw	zero,8(r16)
   2511c:	80000115 	stw	zero,4(r16)
   25120:	80000415 	stw	zero,16(r16)
   25124:	80000515 	stw	zero,20(r16)
   25128:	80000615 	stw	zero,24(r16)
   2512c:	80001705 	stb	zero,92(r16)
   25130:	80001745 	stb	zero,93(r16)
   25134:	80001785 	stb	zero,94(r16)
   25138:	800017c5 	stb	zero,95(r16)
   2513c:	80001805 	stb	zero,96(r16)
   25140:	80001845 	stb	zero,97(r16)
   25144:	80001885 	stb	zero,98(r16)
   25148:	800018c5 	stb	zero,99(r16)
   2514c:	80000c15 	stw	zero,48(r16)
   25150:	80000d15 	stw	zero,52(r16)
   25154:	80001115 	stw	zero,68(r16)
   25158:	80001215 	stw	zero,72(r16)
   2515c:	8005883a 	mov	r2,r16
   25160:	dfc00317 	ldw	ra,12(sp)
   25164:	dc800217 	ldw	r18,8(sp)
   25168:	dc400117 	ldw	r17,4(sp)
   2516c:	dc000017 	ldw	r16,0(sp)
   25170:	dec00404 	addi	sp,sp,16
   25174:	f800283a 	ret
   25178:	8c000017 	ldw	r16,0(r17)
   2517c:	80000526 	beq	r16,zero,25194 <__sfp+0xe8>
   25180:	8023883a 	mov	r17,r16
   25184:	003fd406 	br	250d8 <__sfp+0x2c>
   25188:	8809883a 	mov	r4,r17
   2518c:	0024edc0 	call	24edc <__sinit.part.0>
   25190:	003fd006 	br	250d4 <__sfp+0x28>
   25194:	01406b04 	movi	r5,428
   25198:	9009883a 	mov	r4,r18
   2519c:	0025e980 	call	25e98 <_malloc_r>
   251a0:	1021883a 	mov	r16,r2
   251a4:	10000a26 	beq	r2,zero,251d0 <__sfp+0x124>
   251a8:	10000015 	stw	zero,0(r2)
   251ac:	11000304 	addi	r4,r2,12
   251b0:	00800104 	movi	r2,4
   251b4:	80800115 	stw	r2,4(r16)
   251b8:	81000215 	stw	r4,8(r16)
   251bc:	01806804 	movi	r6,416
   251c0:	000b883a 	mov	r5,zero
   251c4:	00269440 	call	26944 <memset>
   251c8:	8c000015 	stw	r16,0(r17)
   251cc:	003fec06 	br	25180 <__sfp+0xd4>
   251d0:	88000015 	stw	zero,0(r17)
   251d4:	00800304 	movi	r2,12
   251d8:	90800015 	stw	r2,0(r18)
   251dc:	003fdf06 	br	2515c <__sfp+0xb0>

000251e0 <_cleanup>:
   251e0:	008000f4 	movhi	r2,3
   251e4:	110a3a17 	ldw	r4,10472(r2)
   251e8:	014000f4 	movhi	r5,3
   251ec:	29667f04 	addi	r5,r5,-26116
   251f0:	0025ba41 	jmpi	25ba4 <_fwalk_reent>

000251f4 <__sinit>:
   251f4:	20800e17 	ldw	r2,56(r4)
   251f8:	10000126 	beq	r2,zero,25200 <__sinit+0xc>
   251fc:	f800283a 	ret
   25200:	0024edc1 	jmpi	24edc <__sinit.part.0>

00025204 <__sfp_lock_acquire>:
   25204:	f800283a 	ret

00025208 <__sfp_lock_release>:
   25208:	f800283a 	ret

0002520c <__sinit_lock_acquire>:
   2520c:	f800283a 	ret

00025210 <__sinit_lock_release>:
   25210:	f800283a 	ret

00025214 <__fp_lock_all>:
   25214:	008000f4 	movhi	r2,3
   25218:	110a3b17 	ldw	r4,10476(r2)
   2521c:	014000b4 	movhi	r5,2
   25220:	2953b004 	addi	r5,r5,20160
   25224:	0025b0c1 	jmpi	25b0c <_fwalk>

00025228 <__fp_unlock_all>:
   25228:	008000f4 	movhi	r2,3
   2522c:	110a3b17 	ldw	r4,10476(r2)
   25230:	014000b4 	movhi	r5,2
   25234:	2953b504 	addi	r5,r5,20180
   25238:	0025b0c1 	jmpi	25b0c <_fwalk>

0002523c <_malloc_trim_r>:
   2523c:	defffa04 	addi	sp,sp,-24
   25240:	dcc00315 	stw	r19,12(sp)
   25244:	04c000f4 	movhi	r19,3
   25248:	dd000415 	stw	r20,16(sp)
   2524c:	dc800215 	stw	r18,8(sp)
   25250:	dc400115 	stw	r17,4(sp)
   25254:	dc000015 	stw	r16,0(sp)
   25258:	2829883a 	mov	r20,r5
   2525c:	dfc00515 	stw	ra,20(sp)
   25260:	9cc44504 	addi	r19,r19,4372
   25264:	2025883a 	mov	r18,r4
   25268:	002e0c00 	call	2e0c0 <__malloc_lock>
   2526c:	98800217 	ldw	r2,8(r19)
   25270:	14400117 	ldw	r17,4(r2)
   25274:	00bfff04 	movi	r2,-4
   25278:	88a2703a 	and	r17,r17,r2
   2527c:	8c03fbc4 	addi	r16,r17,4079
   25280:	8521c83a 	sub	r16,r16,r20
   25284:	8020d33a 	srli	r16,r16,12
   25288:	843fffc4 	addi	r16,r16,-1
   2528c:	8020933a 	slli	r16,r16,12
   25290:	80840008 	cmpgei	r2,r16,4096
   25294:	10000626 	beq	r2,zero,252b0 <_malloc_trim_r+0x74>
   25298:	000b883a 	mov	r5,zero
   2529c:	9009883a 	mov	r4,r18
   252a0:	00281840 	call	28184 <_sbrk_r>
   252a4:	98c00217 	ldw	r3,8(r19)
   252a8:	1c47883a 	add	r3,r3,r17
   252ac:	10c00b26 	beq	r2,r3,252dc <_malloc_trim_r+0xa0>
   252b0:	9009883a 	mov	r4,r18
   252b4:	002e0e40 	call	2e0e4 <__malloc_unlock>
   252b8:	0005883a 	mov	r2,zero
   252bc:	dfc00517 	ldw	ra,20(sp)
   252c0:	dd000417 	ldw	r20,16(sp)
   252c4:	dcc00317 	ldw	r19,12(sp)
   252c8:	dc800217 	ldw	r18,8(sp)
   252cc:	dc400117 	ldw	r17,4(sp)
   252d0:	dc000017 	ldw	r16,0(sp)
   252d4:	dec00604 	addi	sp,sp,24
   252d8:	f800283a 	ret
   252dc:	040bc83a 	sub	r5,zero,r16
   252e0:	9009883a 	mov	r4,r18
   252e4:	00281840 	call	28184 <_sbrk_r>
   252e8:	10bfffd8 	cmpnei	r2,r2,-1
   252ec:	10000d26 	beq	r2,zero,25324 <_malloc_trim_r+0xe8>
   252f0:	008000f4 	movhi	r2,3
   252f4:	10916317 	ldw	r2,17804(r2)
   252f8:	98c00217 	ldw	r3,8(r19)
   252fc:	8c23c83a 	sub	r17,r17,r16
   25300:	8c400054 	ori	r17,r17,1
   25304:	1405c83a 	sub	r2,r2,r16
   25308:	1c400115 	stw	r17,4(r3)
   2530c:	9009883a 	mov	r4,r18
   25310:	00c000f4 	movhi	r3,3
   25314:	18916315 	stw	r2,17804(r3)
   25318:	002e0e40 	call	2e0e4 <__malloc_unlock>
   2531c:	00800044 	movi	r2,1
   25320:	003fe606 	br	252bc <_malloc_trim_r+0x80>
   25324:	000b883a 	mov	r5,zero
   25328:	9009883a 	mov	r4,r18
   2532c:	00281840 	call	28184 <_sbrk_r>
   25330:	99000217 	ldw	r4,8(r19)
   25334:	1107c83a 	sub	r3,r2,r4
   25338:	19400410 	cmplti	r5,r3,16
   2533c:	283fdc1e 	bne	r5,zero,252b0 <_malloc_trim_r+0x74>
   25340:	014000f4 	movhi	r5,3
   25344:	294a3c17 	ldw	r5,10480(r5)
   25348:	18c00054 	ori	r3,r3,1
   2534c:	20c00115 	stw	r3,4(r4)
   25350:	1145c83a 	sub	r2,r2,r5
   25354:	014000f4 	movhi	r5,3
   25358:	28916315 	stw	r2,17804(r5)
   2535c:	003fd406 	br	252b0 <_malloc_trim_r+0x74>

00025360 <_free_r>:
   25360:	28005f26 	beq	r5,zero,254e0 <_free_r+0x180>
   25364:	defffd04 	addi	sp,sp,-12
   25368:	dc400115 	stw	r17,4(sp)
   2536c:	dc000015 	stw	r16,0(sp)
   25370:	2023883a 	mov	r17,r4
   25374:	2821883a 	mov	r16,r5
   25378:	dfc00215 	stw	ra,8(sp)
   2537c:	002e0c00 	call	2e0c0 <__malloc_lock>
   25380:	81ffff17 	ldw	r7,-4(r16)
   25384:	00bfff84 	movi	r2,-2
   25388:	80fffe04 	addi	r3,r16,-8
   2538c:	3884703a 	and	r2,r7,r2
   25390:	018000f4 	movhi	r6,3
   25394:	1889883a 	add	r4,r3,r2
   25398:	31844504 	addi	r6,r6,4372
   2539c:	21400117 	ldw	r5,4(r4)
   253a0:	32000217 	ldw	r8,8(r6)
   253a4:	027fff04 	movi	r9,-4
   253a8:	2a4a703a 	and	r5,r5,r9
   253ac:	41006526 	beq	r8,r4,25544 <_free_r+0x1e4>
   253b0:	21400115 	stw	r5,4(r4)
   253b4:	39c0004c 	andi	r7,r7,1
   253b8:	2151883a 	add	r8,r4,r5
   253bc:	3800281e 	bne	r7,zero,25460 <_free_r+0x100>
   253c0:	82bffe17 	ldw	r10,-8(r16)
   253c4:	42000117 	ldw	r8,4(r8)
   253c8:	01c000f4 	movhi	r7,3
   253cc:	1a87c83a 	sub	r3,r3,r10
   253d0:	1a400217 	ldw	r9,8(r3)
   253d4:	39c44704 	addi	r7,r7,4380
   253d8:	1285883a 	add	r2,r2,r10
   253dc:	4200004c 	andi	r8,r8,1
   253e0:	49c04d26 	beq	r9,r7,25518 <_free_r+0x1b8>
   253e4:	1a800317 	ldw	r10,12(r3)
   253e8:	4a800315 	stw	r10,12(r9)
   253ec:	52400215 	stw	r9,8(r10)
   253f0:	40006926 	beq	r8,zero,25598 <_free_r+0x238>
   253f4:	11400054 	ori	r5,r2,1
   253f8:	19400115 	stw	r5,4(r3)
   253fc:	20800015 	stw	r2,0(r4)
   25400:	11008028 	cmpgeui	r4,r2,512
   25404:	20001e1e 	bne	r4,zero,25480 <_free_r+0x120>
   25408:	1008d0fa 	srli	r4,r2,3
   2540c:	100ad17a 	srli	r5,r2,5
   25410:	31c00117 	ldw	r7,4(r6)
   25414:	20800044 	addi	r2,r4,1
   25418:	100490fa 	slli	r2,r2,3
   2541c:	01000044 	movi	r4,1
   25420:	2148983a 	sll	r4,r4,r5
   25424:	3085883a 	add	r2,r6,r2
   25428:	11400017 	ldw	r5,0(r2)
   2542c:	21c8b03a 	or	r4,r4,r7
   25430:	11fffe04 	addi	r7,r2,-8
   25434:	19c00315 	stw	r7,12(r3)
   25438:	19400215 	stw	r5,8(r3)
   2543c:	31000115 	stw	r4,4(r6)
   25440:	10c00015 	stw	r3,0(r2)
   25444:	28c00315 	stw	r3,12(r5)
   25448:	8809883a 	mov	r4,r17
   2544c:	dfc00217 	ldw	ra,8(sp)
   25450:	dc400117 	ldw	r17,4(sp)
   25454:	dc000017 	ldw	r16,0(sp)
   25458:	dec00304 	addi	sp,sp,12
   2545c:	002e0e41 	jmpi	2e0e4 <__malloc_unlock>
   25460:	41c00117 	ldw	r7,4(r8)
   25464:	39c0004c 	andi	r7,r7,1
   25468:	38001e26 	beq	r7,zero,254e4 <_free_r+0x184>
   2546c:	11400054 	ori	r5,r2,1
   25470:	817fff15 	stw	r5,-4(r16)
   25474:	20800015 	stw	r2,0(r4)
   25478:	11008028 	cmpgeui	r4,r2,512
   2547c:	203fe226 	beq	r4,zero,25408 <_free_r+0xa8>
   25480:	1008d27a 	srli	r4,r2,9
   25484:	21400168 	cmpgeui	r5,r4,5
   25488:	2800451e 	bne	r5,zero,255a0 <_free_r+0x240>
   2548c:	1008d1ba 	srli	r4,r2,6
   25490:	21c00e44 	addi	r7,r4,57
   25494:	380e90fa 	slli	r7,r7,3
   25498:	21000e04 	addi	r4,r4,56
   2549c:	31cf883a 	add	r7,r6,r7
   254a0:	39400017 	ldw	r5,0(r7)
   254a4:	39fffe04 	addi	r7,r7,-8
   254a8:	39405326 	beq	r7,r5,255f8 <_free_r+0x298>
   254ac:	01bfff04 	movi	r6,-4
   254b0:	00000206 	br	254bc <_free_r+0x15c>
   254b4:	29400217 	ldw	r5,8(r5)
   254b8:	39400326 	beq	r7,r5,254c8 <_free_r+0x168>
   254bc:	29000117 	ldw	r4,4(r5)
   254c0:	2188703a 	and	r4,r4,r6
   254c4:	113ffb36 	bltu	r2,r4,254b4 <_free_r+0x154>
   254c8:	29c00317 	ldw	r7,12(r5)
   254cc:	19c00315 	stw	r7,12(r3)
   254d0:	19400215 	stw	r5,8(r3)
   254d4:	38c00215 	stw	r3,8(r7)
   254d8:	28c00315 	stw	r3,12(r5)
   254dc:	003fda06 	br	25448 <_free_r+0xe8>
   254e0:	f800283a 	ret
   254e4:	01c000f4 	movhi	r7,3
   254e8:	1145883a 	add	r2,r2,r5
   254ec:	39c44704 	addi	r7,r7,4380
   254f0:	21400217 	ldw	r5,8(r4)
   254f4:	29c03726 	beq	r5,r7,255d4 <_free_r+0x274>
   254f8:	22000317 	ldw	r8,12(r4)
   254fc:	11c00054 	ori	r7,r2,1
   25500:	1889883a 	add	r4,r3,r2
   25504:	2a000315 	stw	r8,12(r5)
   25508:	41400215 	stw	r5,8(r8)
   2550c:	19c00115 	stw	r7,4(r3)
   25510:	20800015 	stw	r2,0(r4)
   25514:	003fba06 	br	25400 <_free_r+0xa0>
   25518:	40004f1e 	bne	r8,zero,25658 <_free_r+0x2f8>
   2551c:	21800217 	ldw	r6,8(r4)
   25520:	21000317 	ldw	r4,12(r4)
   25524:	288b883a 	add	r5,r5,r2
   25528:	28800054 	ori	r2,r5,1
   2552c:	31000315 	stw	r4,12(r6)
   25530:	21800215 	stw	r6,8(r4)
   25534:	18800115 	stw	r2,4(r3)
   25538:	1947883a 	add	r3,r3,r5
   2553c:	19400015 	stw	r5,0(r3)
   25540:	003fc106 	br	25448 <_free_r+0xe8>
   25544:	39c0004c 	andi	r7,r7,1
   25548:	114b883a 	add	r5,r2,r5
   2554c:	3800071e 	bne	r7,zero,2556c <_free_r+0x20c>
   25550:	81fffe17 	ldw	r7,-8(r16)
   25554:	19c7c83a 	sub	r3,r3,r7
   25558:	18800317 	ldw	r2,12(r3)
   2555c:	19000217 	ldw	r4,8(r3)
   25560:	29cb883a 	add	r5,r5,r7
   25564:	20800315 	stw	r2,12(r4)
   25568:	11000215 	stw	r4,8(r2)
   2556c:	008000f4 	movhi	r2,3
   25570:	29000054 	ori	r4,r5,1
   25574:	108a3d17 	ldw	r2,10484(r2)
   25578:	19000115 	stw	r4,4(r3)
   2557c:	30c00215 	stw	r3,8(r6)
   25580:	28bfb136 	bltu	r5,r2,25448 <_free_r+0xe8>
   25584:	008000f4 	movhi	r2,3
   25588:	11515817 	ldw	r5,17760(r2)
   2558c:	8809883a 	mov	r4,r17
   25590:	002523c0 	call	2523c <_malloc_trim_r>
   25594:	003fac06 	br	25448 <_free_r+0xe8>
   25598:	1145883a 	add	r2,r2,r5
   2559c:	003fd406 	br	254f0 <_free_r+0x190>
   255a0:	21400568 	cmpgeui	r5,r4,21
   255a4:	28000726 	beq	r5,zero,255c4 <_free_r+0x264>
   255a8:	21401568 	cmpgeui	r5,r4,85
   255ac:	2800191e 	bne	r5,zero,25614 <_free_r+0x2b4>
   255b0:	1008d33a 	srli	r4,r2,12
   255b4:	21c01bc4 	addi	r7,r4,111
   255b8:	380e90fa 	slli	r7,r7,3
   255bc:	21001b84 	addi	r4,r4,110
   255c0:	003fb606 	br	2549c <_free_r+0x13c>
   255c4:	21c01704 	addi	r7,r4,92
   255c8:	380e90fa 	slli	r7,r7,3
   255cc:	210016c4 	addi	r4,r4,91
   255d0:	003fb206 	br	2549c <_free_r+0x13c>
   255d4:	30c00515 	stw	r3,20(r6)
   255d8:	30c00415 	stw	r3,16(r6)
   255dc:	11000054 	ori	r4,r2,1
   255e0:	19c00315 	stw	r7,12(r3)
   255e4:	19c00215 	stw	r7,8(r3)
   255e8:	19000115 	stw	r4,4(r3)
   255ec:	1887883a 	add	r3,r3,r2
   255f0:	18800015 	stw	r2,0(r3)
   255f4:	003f9406 	br	25448 <_free_r+0xe8>
   255f8:	2009d0ba 	srai	r4,r4,2
   255fc:	00800044 	movi	r2,1
   25600:	32000117 	ldw	r8,4(r6)
   25604:	1104983a 	sll	r2,r2,r4
   25608:	1204b03a 	or	r2,r2,r8
   2560c:	30800115 	stw	r2,4(r6)
   25610:	003fae06 	br	254cc <_free_r+0x16c>
   25614:	21405568 	cmpgeui	r5,r4,341
   25618:	2800051e 	bne	r5,zero,25630 <_free_r+0x2d0>
   2561c:	1008d3fa 	srli	r4,r2,15
   25620:	21c01e04 	addi	r7,r4,120
   25624:	380e90fa 	slli	r7,r7,3
   25628:	21001dc4 	addi	r4,r4,119
   2562c:	003f9b06 	br	2549c <_free_r+0x13c>
   25630:	21015568 	cmpgeui	r4,r4,1365
   25634:	2000051e 	bne	r4,zero,2564c <_free_r+0x2ec>
   25638:	1008d4ba 	srli	r4,r2,18
   2563c:	21c01f44 	addi	r7,r4,125
   25640:	380e90fa 	slli	r7,r7,3
   25644:	21001f04 	addi	r4,r4,124
   25648:	003f9406 	br	2549c <_free_r+0x13c>
   2564c:	01c0fe04 	movi	r7,1016
   25650:	01001f84 	movi	r4,126
   25654:	003f9106 	br	2549c <_free_r+0x13c>
   25658:	11400054 	ori	r5,r2,1
   2565c:	19400115 	stw	r5,4(r3)
   25660:	20800015 	stw	r2,0(r4)
   25664:	003f7806 	br	25448 <_free_r+0xe8>

00025668 <__sfvwrite_r>:
   25668:	30800217 	ldw	r2,8(r6)
   2566c:	1000c326 	beq	r2,zero,2597c <__sfvwrite_r+0x314>
   25670:	2a80030b 	ldhu	r10,12(r5)
   25674:	defff504 	addi	sp,sp,-44
   25678:	df000915 	stw	fp,36(sp)
   2567c:	dcc00415 	stw	r19,16(sp)
   25680:	dc000115 	stw	r16,4(sp)
   25684:	dfc00a15 	stw	ra,40(sp)
   25688:	ddc00815 	stw	r23,32(sp)
   2568c:	dd800715 	stw	r22,28(sp)
   25690:	dd400615 	stw	r21,24(sp)
   25694:	dd000515 	stw	r20,20(sp)
   25698:	dc800315 	stw	r18,12(sp)
   2569c:	dc400215 	stw	r17,8(sp)
   256a0:	5080020c 	andi	r2,r10,8
   256a4:	3039883a 	mov	fp,r6
   256a8:	2027883a 	mov	r19,r4
   256ac:	2821883a 	mov	r16,r5
   256b0:	10002226 	beq	r2,zero,2573c <__sfvwrite_r+0xd4>
   256b4:	28800417 	ldw	r2,16(r5)
   256b8:	10002026 	beq	r2,zero,2573c <__sfvwrite_r+0xd4>
   256bc:	5080008c 	andi	r2,r10,2
   256c0:	e4400017 	ldw	r17,0(fp)
   256c4:	10002526 	beq	r2,zero,2575c <__sfvwrite_r+0xf4>
   256c8:	80800917 	ldw	r2,36(r16)
   256cc:	81400717 	ldw	r5,28(r16)
   256d0:	05600034 	movhi	r21,32768
   256d4:	0029883a 	mov	r20,zero
   256d8:	0025883a 	mov	r18,zero
   256dc:	ad7f0004 	addi	r21,r21,-1024
   256e0:	a00d883a 	mov	r6,r20
   256e4:	9809883a 	mov	r4,r19
   256e8:	90001026 	beq	r18,zero,2572c <__sfvwrite_r+0xc4>
   256ec:	900f883a 	mov	r7,r18
   256f0:	ac80012e 	bgeu	r21,r18,256f8 <__sfvwrite_r+0x90>
   256f4:	a80f883a 	mov	r7,r21
   256f8:	103ee83a 	callr	r2
   256fc:	00809a0e 	bge	zero,r2,25968 <__sfvwrite_r+0x300>
   25700:	e0c00217 	ldw	r3,8(fp)
   25704:	a0a9883a 	add	r20,r20,r2
   25708:	90a5c83a 	sub	r18,r18,r2
   2570c:	1885c83a 	sub	r2,r3,r2
   25710:	e0800215 	stw	r2,8(fp)
   25714:	10008326 	beq	r2,zero,25924 <__sfvwrite_r+0x2bc>
   25718:	80800917 	ldw	r2,36(r16)
   2571c:	81400717 	ldw	r5,28(r16)
   25720:	a00d883a 	mov	r6,r20
   25724:	9809883a 	mov	r4,r19
   25728:	903ff01e 	bne	r18,zero,256ec <__sfvwrite_r+0x84>
   2572c:	8d000017 	ldw	r20,0(r17)
   25730:	8c800117 	ldw	r18,4(r17)
   25734:	8c400204 	addi	r17,r17,8
   25738:	003fe906 	br	256e0 <__sfvwrite_r+0x78>
   2573c:	800b883a 	mov	r5,r16
   25740:	9809883a 	mov	r4,r19
   25744:	00230a40 	call	230a4 <__swsetup_r>
   25748:	10008a1e 	bne	r2,zero,25974 <__sfvwrite_r+0x30c>
   2574c:	8280030b 	ldhu	r10,12(r16)
   25750:	e4400017 	ldw	r17,0(fp)
   25754:	5080008c 	andi	r2,r10,2
   25758:	103fdb1e 	bne	r2,zero,256c8 <__sfvwrite_r+0x60>
   2575c:	5080004c 	andi	r2,r10,1
   25760:	10004e1e 	bne	r2,zero,2589c <__sfvwrite_r+0x234>
   25764:	00a00034 	movhi	r2,32768
   25768:	81c00017 	ldw	r7,0(r16)
   2576c:	80c00217 	ldw	r3,8(r16)
   25770:	10bfffc4 	addi	r2,r2,-1
   25774:	002d883a 	mov	r22,zero
   25778:	0025883a 	mov	r18,zero
   2577c:	d8800015 	stw	r2,0(sp)
   25780:	3809883a 	mov	r4,r7
   25784:	1829883a 	mov	r20,r3
   25788:	90004026 	beq	r18,zero,2588c <__sfvwrite_r+0x224>
   2578c:	5080800c 	andi	r2,r10,512
   25790:	10009426 	beq	r2,zero,259e4 <__sfvwrite_r+0x37c>
   25794:	182b883a 	mov	r21,r3
   25798:	90c0b936 	bltu	r18,r3,25a80 <__sfvwrite_r+0x418>
   2579c:	5081200c 	andi	r2,r10,1152
   257a0:	10002426 	beq	r2,zero,25834 <__sfvwrite_r+0x1cc>
   257a4:	80800517 	ldw	r2,20(r16)
   257a8:	81000417 	ldw	r4,16(r16)
   257ac:	108000e4 	muli	r2,r2,3
   257b0:	392fc83a 	sub	r23,r7,r4
   257b4:	b8c00044 	addi	r3,r23,1
   257b8:	1012d7fa 	srli	r9,r2,31
   257bc:	1c87883a 	add	r3,r3,r18
   257c0:	4893883a 	add	r9,r9,r2
   257c4:	4829d07a 	srai	r20,r9,1
   257c8:	a00b883a 	mov	r5,r20
   257cc:	a0c0022e 	bgeu	r20,r3,257d8 <__sfvwrite_r+0x170>
   257d0:	1829883a 	mov	r20,r3
   257d4:	180b883a 	mov	r5,r3
