
nivela_bidirectionala.elf:     file format elf32-littlenios2
nivela_bidirectionala.elf
architecture: nios2:r1, flags 0x00000112:
EXEC_P, HAS_SYMS, D_PAGED
start address 0x0002023c

Program Header:
    LOAD off    0x00001000 vaddr 0x00020000 paddr 0x00020000 align 2**12
         filesz 0x00000020 memsz 0x00000020 flags r-x
    LOAD off    0x00001020 vaddr 0x00020020 paddr 0x00020020 align 2**12
         filesz 0x00010cec memsz 0x00010cec flags r-x
    LOAD off    0x00011d0c vaddr 0x00030d0c paddr 0x0003293c align 2**12
         filesz 0x00001c30 memsz 0x00001c30 flags rw-
    LOAD off    0x0000056c vaddr 0x0003456c paddr 0x0003456c align 2**12
         filesz 0x00000000 memsz 0x0000016c flags rw-

Sections:
Idx Name          Size      VMA       LMA       File off  Algn
  0 .entry        00000020  00020000  00020000  00001000  2**5
                  CONTENTS, ALLOC, LOAD, READONLY, CODE
  1 .exceptions   0000021c  00020020  00020020  00001020  2**2
                  CONTENTS, ALLOC, LOAD, READONLY, CODE
  2 .text         000103bc  0002023c  0002023c  0000123c  2**2
                  CONTENTS, ALLOC, LOAD, READONLY, CODE
  3 .rodata       00000714  000305f8  000305f8  000115f8  2**2
                  CONTENTS, ALLOC, LOAD, READONLY, DATA
  4 .rwdata       00001c30  00030d0c  0003293c  00011d0c  2**2
                  CONTENTS, ALLOC, LOAD, DATA, SMALL_DATA
  5 .bss          0000016c  0003456c  0003456c  0001456c  2**2
                  ALLOC, SMALL_DATA
  6 .onchip_memory2_0 00000000  000346d8  000346d8  0001393c  2**0
                  CONTENTS
  7 .comment      0000002d  00000000  00000000  0001393c  2**0
                  CONTENTS, READONLY
  8 .debug_aranges 00001148  00000000  00000000  00013970  2**3
                  CONTENTS, READONLY, DEBUGGING, OCTETS
  9 .debug_info   0002e6a0  00000000  00000000  00014ab8  2**0
                  CONTENTS, READONLY, DEBUGGING, OCTETS
 10 .debug_abbrev 0000c2c2  00000000  00000000  00043158  2**0
                  CONTENTS, READONLY, DEBUGGING, OCTETS
 11 .debug_line   00011312  00000000  00000000  0004f41a  2**0
                  CONTENTS, READONLY, DEBUGGING, OCTETS
 12 .debug_frame  00002634  00000000  00000000  0006072c  2**2
                  CONTENTS, READONLY, DEBUGGING, OCTETS
 13 .debug_str    00002953  00000000  00000000  00062d60  2**0
                  CONTENTS, READONLY, DEBUGGING, OCTETS
 14 .debug_alt_sim_info 00000040  00000000  00000000  000656b4  2**2
                  CONTENTS, READONLY, DEBUGGING, OCTETS
 15 .debug_ranges 00000070  00000000  00000000  000656f8  2**3
                  CONTENTS, READONLY, DEBUGGING, OCTETS
 16 .debug_line_str 000021c3  00000000  00000000  00065768  2**0
                  CONTENTS, READONLY, DEBUGGING, OCTETS
 17 .debug_loclists 0001505d  00000000  00000000  0006792b  2**0
                  CONTENTS, READONLY, DEBUGGING, OCTETS
 18 .debug_rnglists 0000178b  00000000  00000000  0007c988  2**0
                  CONTENTS, READONLY, DEBUGGING, OCTETS
 19 .thread_model 00000003  00000000  00000000  00081846  2**0
                  CONTENTS, READONLY
 20 .cpu          0000000c  00000000  00000000  00081849  2**0
                  CONTENTS, READONLY
 21 .qsys         00000001  00000000  00000000  00081855  2**0
                  CONTENTS, READONLY
 22 .simulation_enabled 00000001  00000000  00000000  00081856  2**0
                  CONTENTS, READONLY
 23 .sysid_hash   00000004  00000000  00000000  00081857  2**0
                  CONTENTS, READONLY
 24 .sysid_base   00000004  00000000  00000000  0008185b  2**0
                  CONTENTS, READONLY
 25 .sysid_time   00000004  00000000  00000000  0008185f  2**0
                  CONTENTS, READONLY
 26 .stderr_dev   0000000b  00000000  00000000  00081863  2**0
                  CONTENTS, READONLY
 27 .stdin_dev    0000000b  00000000  00000000  0008186e  2**0
                  CONTENTS, READONLY
 28 .stdout_dev   0000000b  00000000  00000000  00081879  2**0
                  CONTENTS, READONLY
 29 .sopc_system_name 00000010  00000000  00000000  00081884  2**0
                  CONTENTS, READONLY
 30 .quartus_project_dir 0000003c  00000000  00000000  00081894  2**0
                  CONTENTS, READONLY
 31 .jdi          00005780  00000000  00000000  000818d0  2**0
                  CONTENTS, READONLY
 32 .sopcinfo     0007fddd  00000000  00000000  00087050  2**0
                  CONTENTS, READONLY
SYMBOL TABLE:
00020000 l    d  .entry	00000000 .entry
00020020 l    d  .exceptions	00000000 .exceptions
0002023c l    d  .text	00000000 .text
000305f8 l    d  .rodata	00000000 .rodata
00030d0c l    d  .rwdata	00000000 .rwdata
0003456c l    d  .bss	00000000 .bss
000346d8 l    d  .onchip_memory2_0	00000000 .onchip_memory2_0
00000000 l    d  .comment	00000000 .comment
00000000 l    d  .debug_aranges	00000000 .debug_aranges
00000000 l    d  .debug_info	00000000 .debug_info
00000000 l    d  .debug_abbrev	00000000 .debug_abbrev
00000000 l    d  .debug_line	00000000 .debug_line
00000000 l    d  .debug_frame	00000000 .debug_frame
00000000 l    d  .debug_str	00000000 .debug_str
00000000 l    d  .debug_alt_sim_info	00000000 .debug_alt_sim_info
00000000 l    d  .debug_ranges	00000000 .debug_ranges
00000000 l    d  .debug_line_str	00000000 .debug_line_str
00000000 l    d  .debug_loclists	00000000 .debug_loclists
00000000 l    d  .debug_rnglists	00000000 .debug_rnglists
00000000 l    df *ABS*	00000000 crt0.o
00020274 l       .text	00000000 alt_after_alt_main
00000000 l    df *ABS*	00000000 alt_irq_handler.c
00000000 l    df *ABS*	00000000 alt_instruction_exception_entry.c
00000000 l    df *ABS*	00000000 accelerometer.c
00000000 l    df *ABS*	00000000 adc.c
00000000 l    df *ABS*	00000000 global.c
00000000 l    df *ABS*	00000000 hex_displays.c
00000000 l    df *ABS*	00000000 main.c
00034574 l     O .bss	00000004 state_x.1
00034578 l     O .bss	00000004 state_y.0
00000000 l    df *ABS*	00000000 tests.c
00000000 l    df *ABS*	00000000 lib2-divmod.c
00000000 l    df *ABS*	00000000 printf.c
00000000 l    df *ABS*	00000000 puts.c
00000000 l    df *ABS*	00000000 strlen.c
00000000 l    df *ABS*	00000000 vfprintf.c
000306dc l     O .rodata	00000010 zeroes.0
00023010 l     F .text	000000c4 __sbprintf
000306ec l     O .rodata	00000010 blanks.1
00000000 l    df *ABS*	00000000 wsetup.c
00000000 l    df *ABS*	00000000 dtoa.c
00023220 l     F .text	000001fc quorem
00000000 l    df *ABS*	00000000 fflush.c
00000000 l    df *ABS*	00000000 findfp.c
00024ef0 l     F .text	00000008 __fp_lock
00024f04 l     F .text	00000008 __fp_unlock
00024f0c l     F .text	00000168 __sinit.part.0
00000000 l    df *ABS*	00000000 mallocr.c
00000000 l    df *ABS*	00000000 fvwrite.c
00000000 l    df *ABS*	00000000 fwalk.c
00000000 l    df *ABS*	00000000 impure.c
00030d0c l     O .rwdata	00000424 impure_data
00000000 l    df *ABS*	00000000 localeconv.c
00000000 l    df *ABS*	00000000 makebuf.c
00000000 l    df *ABS*	00000000 mallocr.c
00000000 l    df *ABS*	00000000 memchr.c
00000000 l    df *ABS*	00000000 memcpy.c
00000000 l    df *ABS*	00000000 memmove.c
00000000 l    df *ABS*	00000000 memset.c
00000000 l    df *ABS*	00000000 mprec.c
00030798 l     O .rodata	0000000c p05.0
00000000 l    df *ABS*	00000000 mallocr.c
00000000 l    df *ABS*	00000000 sbrkr.c
00000000 l    df *ABS*	00000000 stdio.c
00000000 l    df *ABS*	00000000 vfprintf.c
0002834c l     F .text	000000f4 __sprint_r.part.0
000308bc l     O .rodata	00000010 zeroes.0
000296e4 l     F .text	000000c4 __sbprintf
000308cc l     O .rodata	00000010 blanks.1
00000000 l    df *ABS*	00000000 writer.c
00000000 l    df *ABS*	00000000 closer.c
00000000 l    df *ABS*	00000000 assert.c
00000000 l    df *ABS*	00000000 mallocr.c
00000000 l    df *ABS*	00000000 errno.c
00000000 l    df *ABS*	00000000 fclose.c
00000000 l    df *ABS*	00000000 fiprintf.c
00000000 l    df *ABS*	00000000 fputwc.c
00000000 l    df *ABS*	00000000 fstatr.c
00000000 l    df *ABS*	00000000 int_errno.c
00000000 l    df *ABS*	00000000 isattyr.c
00000000 l    df *ABS*	00000000 locale.c
00000000 l    df *ABS*	00000000 lseekr.c
00000000 l    df *ABS*	00000000 mbtowc_r.c
00000000 l    df *ABS*	00000000 readr.c
00000000 l    df *ABS*	00000000 strcmp.c
00000000 l    df *ABS*	00000000 vfiprintfr_1.c
00000000 l    df *ABS*	00000000 wbuf.c
00000000 l    df *ABS*	00000000 wcrtomb.c
00000000 l    df *ABS*	00000000 wctomb_r.c
00000000 l    df *ABS*	00000000 abort.c
00000000 l    df *ABS*	00000000 ctype_.c
00000000 l    df *ABS*	00000000 signal.c
00000000 l    df *ABS*	00000000 signalr.c
00000000 l    df *ABS*	00000000 libgcc2.c
00000000 l    df *ABS*	00000000 libgcc2.c
00000000 l    df *ABS*	00000000 adddf3.c
00000000 l    df *ABS*	00000000 divdf3.c
00000000 l    df *ABS*	00000000 eqdf2.c
00000000 l    df *ABS*	00000000 gedf2.c
00000000 l    df *ABS*	00000000 ledf2.c
00000000 l    df *ABS*	00000000 muldf3.c
00000000 l    df *ABS*	00000000 subdf3.c
00000000 l    df *ABS*	00000000 unorddf2.c
00000000 l    df *ABS*	00000000 fixdfsi.c
00000000 l    df *ABS*	00000000 floatsidf.c
00000000 l    df *ABS*	00000000 floatunsidf.c
00000000 l    df *ABS*	00000000 libgcc2.c
00000000 l    df *ABS*	00000000 libgcc2.c
00000000 l    df *ABS*	00000000 alt_close.c
0002d9ec l     F .text	0000003c alt_get_errno
00000000 l    df *ABS*	00000000 alt_dev.c
0002daf8 l     F .text	0000002c alt_dev_null_write
00000000 l    df *ABS*	00000000 alt_errno.c
00000000 l    df *ABS*	00000000 alt_exit.c
00000000 l    df *ABS*	00000000 alt_fstat.c
0002db60 l     F .text	0000003c alt_get_errno
00000000 l    df *ABS*	00000000 alt_getpid.c
00000000 l    df *ABS*	00000000 alt_isatty.c
0002dc6c l     F .text	0000003c alt_get_errno
00000000 l    df *ABS*	00000000 alt_kill.c
0002dd4c l     F .text	0000003c alt_get_errno
00000000 l    df *ABS*	00000000 alt_load.c
0002de78 l     F .text	00000068 alt_load_section
00000000 l    df *ABS*	00000000 alt_lseek.c
0002df64 l     F .text	0000003c alt_get_errno
00000000 l    df *ABS*	00000000 alt_main.c
00000000 l    df *ABS*	00000000 alt_malloc_lock.c
00000000 l    df *ABS*	00000000 alt_read.c
0002e138 l     F .text	0000003c alt_get_errno
00000000 l    df *ABS*	00000000 alt_release_fd.c
00000000 l    df *ABS*	00000000 alt_sbrk.c
0003292c l     O .rwdata	00000004 heap_end
00000000 l    df *ABS*	00000000 alt_usleep.c
00000000 l    df *ABS*	00000000 alt_write.c
0002e3b0 l     F .text	0000003c alt_get_errno
00000000 l    df *ABS*	00000000 alt_sys_init.c
0002e4e4 l     F .text	00000034 alt_dev_reg
0003184c l     O .rwdata	00001060 jtag_uart_0
000328ac l     O .rwdata	0000002c accelerometer_spi_0
000328d8 l     O .rwdata	0000002c adc_0
00000000 l    df *ABS*	00000000 altera_avalon_jtag_uart_fd.c
00000000 l    df *ABS*	00000000 altera_avalon_jtag_uart_init.c
0002e7d0 l     F .text	00000218 altera_avalon_jtag_uart_irq
0002e9e8 l     F .text	000000a8 altera_avalon_jtag_uart_timeout
00000000 l    df *ABS*	00000000 altera_avalon_jtag_uart_ioctl.c
00000000 l    df *ABS*	00000000 altera_avalon_jtag_uart_read.c
00000000 l    df *ABS*	00000000 altera_avalon_jtag_uart_write.c
00000000 l    df *ABS*	00000000 altera_up_avalon_accelerometer_spi.c
00000000 l    df *ABS*	00000000 altera_up_avalon_adc.c
00000000 l    df *ABS*	00000000 alt_alarm_start.c
00000000 l    df *ABS*	00000000 alt_busy_sleep.c
00000000 l    df *ABS*	00000000 alt_dcache_flush_all.c
00000000 l    df *ABS*	00000000 alt_dev_llist_insert.c
0002f828 l     F .text	0000003c alt_get_errno
00000000 l    df *ABS*	00000000 alt_do_ctors.c
00000000 l    df *ABS*	00000000 alt_do_dtors.c
00000000 l    df *ABS*	00000000 alt_find_dev.c
00000000 l    df *ABS*	00000000 alt_icache_flush_all.c
00000000 l    df *ABS*	00000000 alt_io_redirect.c
0002fa84 l     F .text	000000b0 alt_open_fd
00000000 l    df *ABS*	00000000 alt_irq_register.c
00000000 l    df *ABS*	00000000 alt_irq_vars.c
00000000 l    df *ABS*	00000000 alt_open.c
0002fd30 l     F .text	0000003c alt_get_errno
0002fd6c l     F .text	000000b8 alt_file_locked
00000000 l    df *ABS*	00000000 alt_tick.c
00000000 l    df *ABS*	00000000 altera_nios2_gen2_irq.c
00000000 l    df *ABS*	00000000 alt_find_file.c
00000000 l    df *ABS*	00000000 alt_get_fd.c
00000000 l    df *ABS*	00000000 atexit.c
00000000 l    df *ABS*	00000000 exit.c
00000000 l    df *ABS*	00000000 memcmp.c
00000000 l    df *ABS*	00000000 __atexit.c
00000000 l    df *ABS*	00000000 __call_atexit.c
000345ac g     O .bss	00000004 alt_instruction_exception_handler
00027a74 g     F .text	00000070 _mprec_log10
00027b60 g     F .text	00000060 __any_on
00029dec g     F .text	00000058 _isatty_r
000307a4 g     O .rodata	00000028 __mprec_tinytens
0002e074 g     F .text	0000007c alt_main
00020ad4 g     F .text	000000d0 _puts_r
000345d8 g     O .bss	00000100 alt_irq
00029f38 g     F .text	00000064 _lseek_r
0003293c g       *ABS*	00000000 __flash_rwdata_start
0002c484 g     F .text	00000094 .hidden __eqdf2
000346d8 g       *ABS*	00000000 __alt_heap_start
0002a874 g     F .text	00000060 _kill_r
00020a9c g     F .text	00000038 printf
0002a26c g     F .text	0000006c _wcrtomb_r
0002a410 g     F .text	00000090 _signal_r
000282e8 g     F .text	0000005c __sseek
00025224 g     F .text	00000010 __sinit
0002a10c g     F .text	00000148 __swbuf_r
00029e44 g     F .text	00000074 _setlocale_r
00025074 g     F .text	00000068 __sfmoreglue
000207dc g     F .text	000000dc test_hex_displays
0002e114 g     F .text	00000024 __malloc_unlock
0002684c g     F .text	00000128 memmove
00025210 g     F .text	00000014 _cleanup
00026a6c g     F .text	000000a4 _Balloc
0002c518 g     F .text	000000fc .hidden __gtdf2
00030148 g     F .text	00000024 altera_nios2_gen2_irq_init
00029a20 g     F .text	0000000c __errno
00020000 g     F .entry	0000000c __reset
00025c7c g     F .text	00000008 __localeconv_l
0002f184 g     F .text	000000d4 alt_up_accelerometer_spi_read_x_axis
00020020 g       *ABS*	00000000 __flash_exceptions_start
00029d8c g     F .text	00000060 _fstat_r
00034588 g     O .bss	00000004 errno
00028260 g     F .text	00000008 __seofread
00034594 g     O .bss	00000004 alt_argv
0003a904 g       *ABS*	00000000 _gp
0002e380 g     F .text	00000030 usleep
0002dc4c g     F .text	00000020 getpid
0002044c g     F .text	00000064 hex_init
000316cc g     O .rwdata	00000180 alt_fd_list
00020420 g     F .text	0000002c get_hex_address
0002f9d4 g     F .text	00000090 alt_find_dev
0002674c g     F .text	00000100 memcpy
00024ef8 g     F .text	0000000c _cleanup_r
0002d854 g     F .text	000000b8 .hidden __floatsidf
0002fb34 g     F .text	0000007c alt_io_redirect
0002c614 g     F .text	000000f8 .hidden __ltdf2
000305f8 g       *ABS*	00000000 __DTOR_END__
00020ba4 g     F .text	00000010 puts
00030314 g     F .text	00000074 alt_exception_cause_generated_bad_addr
000279cc g     F .text	000000a8 __ratio
000296c8 g     F .text	0000001c __vfiprintf_internal
0002ebec g     F .text	00000220 altera_avalon_jtag_uart_read
00020a6c g     F .text	00000030 _printf_r
00020000 g       *ABS*	00000000 __alt_mem_onchip_memory2_0
000209ac g     F .text	00000064 .hidden __udivsi3
0002dca8 g     F .text	000000a4 isatty
0002a4a0 g     F .text	000000b0 _raise_r
00029864 g     F .text	00000064 __assert_func
000307f4 g     O .rodata	000000c8 __mprec_tens
00034584 g     O .bss	00000004 __malloc_top_pad
0002a8d4 g     F .text	00000004 _getpid_r
00025c84 g     F .text	0000000c _localeconv_r
00026ec0 g     F .text	000000b0 __i2b
00025698 g     F .text	000004a4 __sfvwrite_r
0002a550 g     F .text	000000bc __sigtramp_r
000281b4 g     F .text	00000058 _sbrk_r
00029fec g     F .text	00000064 _read_r
00032924 g     O .rwdata	00000004 alt_max_fd
00029a2c g     F .text	000000f8 _fclose_r
00024e6c g     F .text	00000084 fflush
00034580 g     O .bss	00000004 __malloc_max_sbrked_mem
0002fbb0 g     F .text	00000180 alt_irq_register
0002b338 g     F .text	00000904 .hidden __adddf3
00027774 g     F .text	00000100 __b2d
0002ae28 g     F .text	00000510 .hidden __umoddi3
0002dfa0 g     F .text	000000d4 lseek
00032904 g     O .rwdata	00000004 _global_impure_ptr
00027bc0 g     F .text	000005f4 _realloc_r
000346d8 g       *ABS*	00000000 __bss_end
0002f400 g     F .text	0000003c alt_up_adc_open_dev
0003001c g     F .text	0000012c alt_tick
0002a8d8 g     F .text	00000550 .hidden __udivdi3
00029cf0 g     F .text	00000024 _fputwc_r
000307cc g     O .rodata	00000028 __mprec_bigtens
00026c64 g     F .text	00000138 __s2b
0002a39c g     F .text	00000018 abort
0002d90c g     F .text	00000090 .hidden __floatunsidf
0002748c g     F .text	00000058 __mcmp
00025244 g     F .text	00000014 __fp_lock_all
0002ff78 g     F .text	000000a4 alt_alarm_stop
0003459c g     O .bss	00000004 alt_irq_active
000200fc g     F .exceptions	000000cc alt_irq_handler
000316a4 g     O .rwdata	00000028 alt_dev_null
00034570 g     O .bss	00000004 adc_device
0002f808 g     F .text	00000020 alt_dcache_flush_all
00026d9c g     F .text	00000074 __hi0bits
0002d7d4 g     F .text	00000080 .hidden __fixdfsi
0003293c g       *ABS*	00000000 __ram_rwdata_end
0003291c g     O .rwdata	00000008 alt_dev_list
0002e3ec g     F .text	000000f8 write
00030d0c g       *ABS*	00000000 __ram_rodata_end
0002db9c g     F .text	000000b0 fstat
0002dd88 g     F .text	000000f0 kill
0002c614 g     F .text	000000f8 .hidden __ledf2
000271c4 g     F .text	00000140 __pow5mult
00028458 g     F .text	00001270 ___vfiprintf_internal_r
00020a10 g     F .text	0000005c .hidden __umodsi3
000346d8 g       *ABS*	00000000 end
0002e71c g     F .text	000000b4 altera_avalon_jtag_uart_init
000201c8 g     F .exceptions	00000074 alt_instruction_exception_entry
000305f8 g       *ABS*	00000000 __CTOR_LIST__
00040000 g       *ABS*	00000000 __alt_stack_pointer
0002d99c g     F .text	00000050 .hidden __clzsi2
00020504 g     F .text	00000078 set_hex_state
0002ee0c g     F .text	00000228 altera_avalon_jtag_uart_write
00025234 g     F .text	00000004 __sfp_lock_acquire
0002667c g     F .text	000000d0 memchr
00020c4c g     F .text	000023a8 ___vfprintf_internal_r
00025390 g     F .text	00000308 _free_r
00030a30 g     O .rodata	00000180 _ctype_b
00029eb8 g     F .text	0000000c __locale_mb_cur_max
000304d8 g     F .text	00000120 __call_exitprocs
0003290c g     O .rwdata	00000004 __malloc_sbrk_base
0002023c g     F .text	0000003c _start
000345a0 g     O .bss	00000004 _alt_tick_rate
00027304 g     F .text	00000188 __lshift
000345a4 g     O .bss	00000008 _alt_nticks
0002a6c0 g     F .text	00000098 signal
0002e174 g     F .text	000000fc read
0002e554 g     F .text	00000064 alt_sys_init
0002f070 g     F .text	00000044 alt_up_accelerometer_spi_read_address_register
00030448 g     F .text	00000090 __register_exitproc
00026f70 g     F .text	00000254 __multiply
0002ea90 g     F .text	00000068 altera_avalon_jtag_uart_close
00030d0c g       *ABS*	00000000 __ram_rwdata_start
000305f8 g       *ABS*	00000000 __ram_rodata_start
000345b0 g     O .bss	00000028 __malloc_current_mallinfo
00027874 g     F .text	00000158 __d2b
0002e5b8 g     F .text	00000060 altera_avalon_jtag_uart_read_fd
00030274 g     F .text	000000a0 alt_get_fd
0002f6b0 g     F .text	00000158 alt_busy_sleep
0002f258 g     F .text	000000d4 alt_up_accelerometer_spi_read_y_axis
0002980c g     F .text	00000058 _close_r
000303d0 g     F .text	00000078 memcmp
0002e678 g     F .text	00000050 altera_avalon_jtag_uart_close_fd
000346d8 g       *ABS*	00000000 __alt_stack_base
0002e6c8 g     F .text	00000054 altera_avalon_jtag_uart_ioctl_fd
000202fc g     F .text	0000008c print_accelerometer_axis
000230d4 g     F .text	0000014c __swsetup_r
0002bc3c g     F .text	00000848 .hidden __divdf3
000250dc g     F .text	00000134 __sfp
00027ae4 g     F .text	0000007c __copybits
00031130 g     O .rwdata	00000408 __malloc_av_
00025240 g     F .text	00000004 __sinit_lock_release
0002c70c g     F .text	000006d8 .hidden __muldf3
0002820c g     F .text	00000054 __sread
0003016c g     F .text	00000108 alt_find_file
0002f864 g     F .text	000000a8 alt_dev_llist_insert
0002e0f0 g     F .text	00000024 __malloc_lock
0002e2c8 g     F .text	000000b8 sbrk
00024e0c g     F .text	00000060 _fflush_r
000298dc g     F .text	00000144 _calloc_r
0003456c g       *ABS*	00000000 __bss_start
00026974 g     F .text	000000f8 memset
0002057c g     F .text	00000260 main
00034598 g     O .bss	00000004 alt_envp
00020388 g     F .text	00000054 applyHysteresis
0003457c g     O .bss	00000004 __malloc_max_total_mem
0002e618 g     F .text	00000060 altera_avalon_jtag_uart_write_fd
0002a254 g     F .text	00000018 __swbuf
00028344 g     F .text	00000008 __sclose
00040000 g       *ABS*	00000000 __alt_heap_limit
00029b24 g     F .text	00000010 fclose
0002341c g     F .text	000017e8 _dtoa_r
00025ec8 g     F .text	000007b4 _malloc_r
0002a36c g     F .text	00000030 __ascii_wctomb
00032928 g     O .rwdata	00000004 alt_errno
00029b34 g     F .text	00000020 _fiprintf_r
0002a758 g     F .text	00000060 _init_signal
0002f43c g     F .text	00000114 alt_up_adc_read
00025b3c g     F .text	00000098 _fwalk
000203dc g     F .text	00000044 getAdcValue
00029f9c g     F .text	0000000c _mbtowc_r
000204b0 g     F .text	00000054 set_hex_value
000208b8 g     F .text	00000080 .hidden __divsi3
0002526c g     F .text	00000124 _malloc_trim_r
000305f8 g       *ABS*	00000000 __CTOR_END__
0002a050 g     F .text	000000b8 strcmp
000305f8 g       *ABS*	00000000 __flash_rodata_start
000305f8 g       *ABS*	00000000 __DTOR_LIST__
0002c484 g     F .text	00000094 .hidden __nedf2
0002e518 g     F .text	0000003c alt_irq_init
0002e270 g     F .text	00000058 alt_release_fd
00030bb0 g     O .rodata	00000100 .hidden __clz_tab
0003458c g     O .bss	00000004 _PathLocale
00030388 g     F .text	00000014 atexit
000297a8 g     F .text	00000064 _write_r
00029ec4 g     F .text	00000074 setlocale
00032908 g     O .rwdata	00000004 _impure_ptr
00034590 g     O .bss	00000004 alt_argc
00024c04 g     F .text	00000208 __sflush_r
0002f970 g     F .text	00000064 _do_dtors
00020020 g       .exceptions	00000000 alt_irq_entry
00029fa8 g     F .text	00000044 __ascii_mbtowc
00027714 g     F .text	00000060 __ulp
00025258 g     F .text	00000014 __fp_unlock_all
00032914 g     O .rwdata	00000008 alt_fs_list
00020020 g       *ABS*	00000000 __ram_exceptions_start
0002f034 g     F .text	0000003c alt_up_accelerometer_spi_open_dev
00025c90 g     F .text	0000000c localeconv
00025e3c g     F .text	0000008c __swhatbuf_r
0003456c g     O .bss	00000004 accelerometer_device
0003293c g       *ABS*	00000000 _edata
000346d8 g       *ABS*	00000000 _end
00029b8c g     F .text	00000164 __fputwc
0002023c g       *ABS*	00000000 __ram_exceptions_end
0002eaf8 g     F .text	000000f4 altera_avalon_jtag_uart_ioctl
00028268 g     F .text	00000080 __swrite
00032910 g     O .rwdata	00000004 __malloc_trim_threshold
0003039c g     F .text	00000034 exit
00029b54 g     F .text	00000038 fiprintf
0002a108 g     F .text	00000004 _vfiprintf_r
00025bd4 g     F .text	000000a8 _fwalk_reent
000274e4 g     F .text	00000230 __mdiff
00020938 g     F .text	00000074 .hidden __modsi3
0002f32c g     F .text	000000d4 alt_up_accelerometer_spi_read_z_axis
00040000 g       *ABS*	00000000 __alt_data_end
00020020 g     F .exceptions	00000000 alt_exception
00025238 g     F .text	00000004 __sfp_lock_release
0003092c g     O .rodata	00000101 _ctype_
0002d780 g     F .text	00000054 .hidden __unorddf2
0002db24 g     F .text	0000003c _exit
0002f550 g     F .text	00000160 alt_alarm_start
0002f0b4 g     F .text	00000068 alt_up_accelerometer_spi_read
0002f11c g     F .text	00000068 alt_up_accelerometer_spi_write
00025c9c g     F .text	000001a0 __smakebuf_r
00020bb4 g     F .text	00000098 strlen
0002a3b4 g     F .text	0000005c _init_signal_r
0002fe24 g     F .text	00000154 open
0002c518 g     F .text	000000fc .hidden __gedf2
000298c8 g     F .text	00000014 __assert
00020278 g     F .text	00000084 read_ADXL345_deviceID
00028440 g     F .text	00000018 __sprint_r
0002fa64 g     F .text	00000020 alt_icache_flush_all
00032930 g     O .rwdata	00000004 alt_priority_mask
00022ff4 g     F .text	0000001c __vfprintf_internal
0002a360 g     F .text	0000000c _wctomb_r
0002cde4 g     F .text	0000099c .hidden __subdf3
00026e10 g     F .text	000000b0 __lo0bits
00032934 g     O .rwdata	00000008 alt_alarm_list
0002f90c g     F .text	00000064 _do_ctors
0002a7b8 g     F .text	000000bc __sigtramp
0002a2d8 g     F .text	00000088 wcrtomb
0002da28 g     F .text	000000d0 close
00031538 g     O .rwdata	0000016c __global_locale
0002dee0 g     F .text	00000084 alt_load
00029d14 g     F .text	00000078 fputwc
0002a60c g     F .text	000000b4 raise
0002523c g     F .text	00000004 __sinit_lock_acquire
00026b34 g     F .text	00000130 __multadd
00026b10 g     F .text	00000024 _Bfree



Disassembly of section .entry:

00020000 <__reset>:
 * Jump to the _start entry point in the .text section if reset code
 * is allowed or if optimizing for RTL simulation.
 */
#if defined(ALT_ALLOW_CODE_AT_RESET) || defined(ALT_SIM_OPTIMIZE)
    /* Jump to the _start entry point in the .text section. */
    movhi r1, %hi(_start)
   20000:	004000b4 	movhi	at,2
    ori r1, r1, %lo(_start)
   20004:	08408f14 	ori	at,at,572
    jmp r1
   20008:	0800683a 	jmp	at
	...

Disassembly of section .exceptions:

00020020 <alt_exception>:

#else /* ALT_EXCEPTION_STACK disabled */
        /* 
         * Reserve space on normal stack for registers about to be pushed.
         */
        addi  sp, sp, -76
   20020:	deffed04 	addi	sp,sp,-76
         * documentation for details).
         *
         * Leave a gap in the stack frame at 4(sp) for the muldiv handler to
         * store zero into.
         */
        stw   ra,  0(sp)
   20024:	dfc00015 	stw	ra,0(sp)
        stw   r1,   8(sp)
   20028:	d8400215 	stw	at,8(sp)
        stw   r2,  12(sp)
   2002c:	d8800315 	stw	r2,12(sp)
        stw   r3,  16(sp)
   20030:	d8c00415 	stw	r3,16(sp)
        stw   r4,  20(sp)
   20034:	d9000515 	stw	r4,20(sp)
        stw   r5,  24(sp)
   20038:	d9400615 	stw	r5,24(sp)
        stw   r6,  28(sp)
   2003c:	d9800715 	stw	r6,28(sp)
        stw   r7,  32(sp)
   20040:	d9c00815 	stw	r7,32(sp)
        rdctl r5, estatus   /* Read early to avoid usage stall */
   20044:	000b307a 	rdctl	r5,estatus
        stw   r8,  36(sp)
   20048:	da000915 	stw	r8,36(sp)
        stw   r9,  40(sp)
   2004c:	da400a15 	stw	r9,40(sp)
        stw   r10, 44(sp)
   20050:	da800b15 	stw	r10,44(sp)
        stw   r11, 48(sp)
   20054:	dac00c15 	stw	r11,48(sp)
        stw   r12, 52(sp)
   20058:	db000d15 	stw	r12,52(sp)
        stw   r13, 56(sp)
   2005c:	db400e15 	stw	r13,56(sp)
        stw   r14, 60(sp)
   20060:	db800f15 	stw	r14,60(sp)
        stw   r15, 64(sp)
   20064:	dbc01015 	stw	r15,64(sp)
        /*
         * ea-4 contains the address of the instruction being executed
         * when the exception occured. For interrupt exceptions, we will
         * will be re-issue the isntruction. Store it in 72(sp)
         */
        stw   r5,  68(sp)  /* estatus */
   20068:	d9401115 	stw	r5,68(sp)
        addi  r15, ea, -4  /* instruction that caused exception */
   2006c:	ebffff04 	addi	r15,ea,-4
        stw   r15,  72(sp)
   20070:	dbc01215 	stw	r15,72(sp)
#else
        /*
         * Test to see if the exception was a software exception or caused 
         * by an external interrupt, and vector accordingly.
         */
        rdctl r4, ipending
   20074:	0009313a 	rdctl	r4,ipending
        andi  r2, r5, 1
   20078:	2880004c 	andi	r2,r5,1
        beq   r2, zero, .Lnot_irq
   2007c:	10000326 	beq	r2,zero,2008c <alt_exception+0x6c>
        beq   r4, zero, .Lnot_irq
   20080:	20000226 	beq	r4,zero,2008c <alt_exception+0x6c>
        /*
         * Now that all necessary registers have been preserved, call 
         * alt_irq_handler() to process the interrupts.
         */

        call alt_irq_handler
   20084:	00200fc0 	call	200fc <alt_irq_handler>

        .section .exceptions.irqreturn, "xa"

        br    .Lexception_exit
   20088:	00000706 	br	200a8 <alt_exception+0x88>
         * upon completion, so we write ea (address of instruction *after*
         * the one where the exception occured) into 72(sp). The actual
         * instruction that caused the exception is written in r2, which these
         * handlers will utilize.
         */
        stw ea, 72(sp) /* EA is PC+4 so will skip over instruction causing exception */
   2008c:	df401215 	stw	ea,72(sp)
.Lunknown_16bit:
        addi.n r4, r4, 2 /* Need PC+2 to skip over instruction causing exception */
        stw r4, 72(sp)

#else /* CDX is not Enabled and all instructions are 32bits */
        ldw r2, -4(ea) /* Instruction value that caused exception */
   20090:	e8bfff17 	ldw	r2,-4(ea)
   20094:	e93fff04 	addi	r4,ea,-4
   20098:	00201c80 	call	201c8 <alt_instruction_exception_entry>
   2009c:	1000021e 	bne	r2,zero,200a8 <alt_exception+0x88>
   200a0:	ebffff04 	addi	r15,ea,-4
   200a4:	dbc01215 	stw	r15,72(sp)
        /* 
         * Restore the saved registers, so that all general purpose registers 
         * have been restored to their state at the time the interrupt occured.
         */

        ldw   r5,  68(sp)
   200a8:	d9401117 	ldw	r5,68(sp)
        ldw   ea,  72(sp)  /* This becomes the PC once eret is executed */
   200ac:	df401217 	ldw	ea,72(sp)
        ldw   ra,   0(sp)
   200b0:	dfc00017 	ldw	ra,0(sp)

        wrctl estatus, r5
   200b4:	2801707a 	wrctl	estatus,r5

        ldw   r1,   8(sp)
   200b8:	d8400217 	ldw	at,8(sp)
        ldw   r2,  12(sp)
   200bc:	d8800317 	ldw	r2,12(sp)
        ldw   r3,  16(sp)
   200c0:	d8c00417 	ldw	r3,16(sp)
        ldw   r4,  20(sp)
   200c4:	d9000517 	ldw	r4,20(sp)
        ldw   r5,  24(sp)
   200c8:	d9400617 	ldw	r5,24(sp)
        ldw   r6,  28(sp)
   200cc:	d9800717 	ldw	r6,28(sp)
        ldw   r7,  32(sp)
   200d0:	d9c00817 	ldw	r7,32(sp)

#if defined(ALT_EXCEPTION_STACK) && defined(ALT_STACK_CHECK)
        ldw   et, %gprel(alt_exception_old_stack_limit)(gp)
#endif

        ldw   r8,  36(sp)
   200d4:	da000917 	ldw	r8,36(sp)
        ldw   r9,  40(sp)
   200d8:	da400a17 	ldw	r9,40(sp)
        ldw   r10, 44(sp)
   200dc:	da800b17 	ldw	r10,44(sp)
        ldw   r11, 48(sp)
   200e0:	dac00c17 	ldw	r11,48(sp)
        ldw   r12, 52(sp)
   200e4:	db000d17 	ldw	r12,52(sp)
        ldw   r13, 56(sp)
   200e8:	db400e17 	ldw	r13,56(sp)
        ldw   r14, 60(sp)
   200ec:	db800f17 	ldw	r14,60(sp)
        ldw   r15, 64(sp)
   200f0:	dbc01017 	ldw	r15,64(sp)
        stw   et, %gprel(alt_stack_limit_value)(gp)
        stw   zero, %gprel(alt_exception_old_stack_limit)(gp)
#endif /* ALT_STACK_CHECK */
        ldw   sp,  76(sp)
#else /* ALT_EXCEPTION_STACK disabled */
        addi  sp, sp, 76
   200f4:	dec01304 	addi	sp,sp,76

        /*
         * Return to the interrupted instruction.
         */

        eret
   200f8:	ef80083a 	eret

000200fc <alt_irq_handler>:
 * instruction is present if the macro ALT_CI_INTERRUPT_VECTOR defined.
 */

void alt_irq_handler (void) __attribute__ ((section (".exceptions")));
void alt_irq_handler (void)
{
   200fc:	defff904 	addi	sp,sp,-28
   20100:	dfc00615 	stw	ra,24(sp)
   20104:	df000515 	stw	fp,20(sp)
   20108:	df000504 	addi	fp,sp,20
  
  /*
   * Notify the operating system that we are at interrupt level.
   */ 
  
  ALT_OS_INT_ENTER();
   2010c:	0001883a 	nop
#ifndef NIOS2_EIC_PRESENT
static ALT_INLINE alt_u32 ALT_ALWAYS_INLINE alt_irq_pending (void)
{
  alt_u32 active;

  NIOS2_READ_IPENDING (active);
   20110:	0005313a 	rdctl	r2,ipending
   20114:	e0bffc15 	stw	r2,-16(fp)

  return active;
   20118:	e0bffc17 	ldw	r2,-16(fp)
   * Consider the case where the high priority interupt is asserted during
   * the interrupt entry sequence for a lower priority interrupt to see why
   * this is the case.
   */

  active = alt_irq_pending ();
   2011c:	e0bfff15 	stw	r2,-4(fp)

  do
  {
    i = 0;
   20120:	e03ffd15 	stw	zero,-12(fp)
    mask = 1;
   20124:	00800044 	movi	r2,1
   20128:	e0bffe15 	stw	r2,-8(fp)
     * called to clear the interrupt condition.
     */

    do
    {
      if (active & mask)
   2012c:	e0ffff17 	ldw	r3,-4(fp)
   20130:	e0bffe17 	ldw	r2,-8(fp)
   20134:	1884703a 	and	r2,r3,r2
   20138:	10001226 	beq	r2,zero,20184 <alt_irq_handler+0x88>
      { 
#ifdef ALT_ENHANCED_INTERRUPT_API_PRESENT
        alt_irq[i].handler(alt_irq[i].context); 
#else
        alt_irq[i].handler(alt_irq[i].context, i); 
   2013c:	e0bffd17 	ldw	r2,-12(fp)
   20140:	100690fa 	slli	r3,r2,3
   20144:	008000f4 	movhi	r2,3
   20148:	1885883a 	add	r2,r3,r2
   2014c:	10d17617 	ldw	r3,17880(r2)
   20150:	e0bffd17 	ldw	r2,-12(fp)
   20154:	100890fa 	slli	r4,r2,3
   20158:	008000f4 	movhi	r2,3
   2015c:	2085883a 	add	r2,r4,r2
   20160:	10917717 	ldw	r2,17884(r2)
   20164:	e17ffd17 	ldw	r5,-12(fp)
   20168:	1009883a 	mov	r4,r2
   2016c:	183ee83a 	callr	r3
#endif
        break;
   20170:	0001883a 	nop
  NIOS2_READ_IPENDING (active);
   20174:	0005313a 	rdctl	r2,ipending
   20178:	e0bffb15 	stw	r2,-20(fp)
  return active;
   2017c:	e0bffb17 	ldw	r2,-20(fp)
   20180:	00000706 	br	201a0 <alt_irq_handler+0xa4>
      }
      mask <<= 1;
   20184:	e0bffe17 	ldw	r2,-8(fp)
   20188:	1085883a 	add	r2,r2,r2
   2018c:	e0bffe15 	stw	r2,-8(fp)
      i++;
   20190:	e0bffd17 	ldw	r2,-12(fp)
   20194:	10800044 	addi	r2,r2,1
   20198:	e0bffd15 	stw	r2,-12(fp)
      if (active & mask)
   2019c:	003fe306 	br	2012c <alt_irq_handler+0x30>

    } while (1);

    active = alt_irq_pending ();
   201a0:	e0bfff15 	stw	r2,-4(fp)
    
  } while (active);
   201a4:	e0bfff17 	ldw	r2,-4(fp)
   201a8:	103fdd1e 	bne	r2,zero,20120 <alt_irq_handler+0x24>

  /*
   * Notify the operating system that interrupt processing is complete.
   */ 

  ALT_OS_INT_EXIT();
   201ac:	0001883a 	nop
}
   201b0:	0001883a 	nop
   201b4:	e037883a 	mov	sp,fp
   201b8:	dfc00117 	ldw	ra,4(sp)
   201bc:	df000017 	ldw	fp,0(sp)
   201c0:	dec00204 	addi	sp,sp,8
   201c4:	f800283a 	ret

000201c8 <alt_instruction_exception_entry>:
 * that handler if it has been registered. Absent a handler, it will
 * break break or hang as discussed below.
 */
int 
alt_instruction_exception_entry (alt_u32 exception_pc)
{
   201c8:	defffb04 	addi	sp,sp,-20
   201cc:	dfc00415 	stw	ra,16(sp)
   201d0:	df000315 	stw	fp,12(sp)
   201d4:	df000304 	addi	fp,sp,12
   201d8:	e13ffd15 	stw	r4,-12(fp)
 * NIOS2_EXCEPTION_CAUSE_NOT_PRESENT. Your handling routine should
 * check the validity of the cause argument before proceeding.
 */
#ifdef NIOS2_HAS_EXTRA_EXCEPTION_INFO
  /* Get exception cause & "badaddr" */
  NIOS2_READ_EXCEPTION(cause);
   201dc:	000531fa 	rdctl	r2,exception
   201e0:	e0bfff15 	stw	r2,-4(fp)
  cause = ( (cause & NIOS2_EXCEPTION_REG_CAUSE_MASK) >>
   201e4:	e0bfff17 	ldw	r2,-4(fp)
   201e8:	1004d0ba 	srli	r2,r2,2
   201ec:	108007cc 	andi	r2,r2,31
   201f0:	e0bfff15 	stw	r2,-4(fp)
              NIOS2_EXCEPTION_REG_CAUSE_OFST );

  NIOS2_READ_BADADDR(badaddr);
   201f4:	0005333a 	rdctl	r2,badaddr
   201f8:	e0bffe15 	stw	r2,-8(fp)
#else
  cause = NIOS2_EXCEPTION_CAUSE_NOT_PRESENT;
  badaddr = 0;
#endif /* NIOS2_HAS_EXTRA_EXCEPTION_INFO */

  if(alt_instruction_exception_handler) {
   201fc:	d0a72a17 	ldw	r2,-25432(gp)
   20200:	10000726 	beq	r2,zero,20220 <alt_instruction_exception_entry+0x58>
     * Call handler. Its return value indicates whether the exception-causing
     * instruction should be re-issued. The code that called us,
     * alt_eceptions_entry.S, will look at this value and adjust the ea
     * register as necessary
     */
    return alt_instruction_exception_handler(cause, exception_pc, badaddr);
   20204:	d0a72a17 	ldw	r2,-25432(gp)
   20208:	e0ffff17 	ldw	r3,-4(fp)
   2020c:	e1bffe17 	ldw	r6,-8(fp)
   20210:	e17ffd17 	ldw	r5,-12(fp)
   20214:	1809883a 	mov	r4,r3
   20218:	103ee83a 	callr	r2
   2021c:	00000206 	br	20228 <alt_instruction_exception_entry+0x60>
   *    (a peripheral which negates its interrupt output before its
   *    interrupt handler has been executed will cause spurious interrupts)
   */
  else {
#ifdef NIOS2_HAS_DEBUG_STUB
    NIOS2_BREAK();
   20220:	003da03a 	break	0
      ;
#endif /* NIOS2_HAS_DEBUG_STUB */
  }

  /* We should not get here. Remove compiler warning. */
  return NIOS2_EXCEPTION_RETURN_REISSUE_INST;
   20224:	0005883a 	mov	r2,zero
}
   20228:	e037883a 	mov	sp,fp
   2022c:	dfc00117 	ldw	ra,4(sp)
   20230:	df000017 	ldw	fp,0(sp)
   20234:	dec00204 	addi	sp,sp,8
   20238:	f800283a 	ret

Disassembly of section .text:

0002023c <_start>:

    /*
     * Now that the caches are initialized, set up the stack pointer and global pointer.
     * The values provided by the linker are assumed to be correctly aligned.
     */
    movhi sp, %hi(__alt_stack_pointer)
   2023c:	06c00134 	movhi	sp,4
    ori sp, sp, %lo(__alt_stack_pointer)
   20240:	dec00014 	ori	sp,sp,0
    movhi gp, %hi(_gp)
   20244:	068000f4 	movhi	gp,3
    ori gp, gp, %lo(_gp)
   20248:	d6aa4114 	ori	gp,gp,43268
 */
#ifndef ALT_SIM_OPTIMIZE
    /* Log that the BSS is about to be cleared. */
    ALT_LOG_PUTS(alt_log_msg_bss)

    movhi r2, %hi(__bss_start)
   2024c:	008000f4 	movhi	r2,3
    ori r2, r2, %lo(__bss_start)
   20250:	10915b14 	ori	r2,r2,17772

    movhi r3, %hi(__bss_end)
   20254:	00c000f4 	movhi	r3,3
    ori r3, r3, %lo(__bss_end)
   20258:	18d1b614 	ori	r3,r3,18136

    beq r2, r3, 1f
   2025c:	10c00326 	beq	r2,r3,2026c <_start+0x30>

0:
    stw zero, (r2)
   20260:	10000015 	stw	zero,0(r2)
    addi r2, r2, 4
   20264:	10800104 	addi	r2,r2,4
    bltu r2, r3, 0b
   20268:	10fffd36 	bltu	r2,r3,20260 <_start+0x24>
     * section aren't defined until alt_load() has been called).
     */
    mov   et, zero
#endif

    call alt_load
   2026c:	002dee00 	call	2dee0 <alt_load>

    /* Log that alt_main is about to be called. */
    ALT_LOG_PUTS(alt_log_msg_alt_main)

    /* Call the C entry point. It should never return. */
    call alt_main
   20270:	002e0740 	call	2e074 <alt_main>

00020274 <alt_after_alt_main>:

    /* Wait in infinite loop in case alt_main does return. */
alt_after_alt_main:
    br alt_after_alt_main
   20274:	003fff06 	br	20274 <alt_after_alt_main>

00020278 <read_ADXL345_deviceID>:
 *      Author: razva
 */
#include "accelerometer.h"

void read_ADXL345_deviceID (alt_up_accelerometer_spi_dev *accelerometer_dev)
{
   20278:	defffa04 	addi	sp,sp,-24
   2027c:	dfc00515 	stw	ra,20(sp)
   20280:	df000415 	stw	fp,16(sp)
   20284:	df000404 	addi	fp,sp,16
   20288:	e13ffc15 	stw	r4,-16(fp)
    alt_u32 device_id_address = 0x00;	// Accelerometer ID address
   2028c:	e03fff15 	stw	zero,-4(fp)
    alt_u8 data = 0;
   20290:	e03ffdc5 	stb	zero,-9(fp)

    int error = alt_up_accelerometer_spi_read(accelerometer_dev, device_id_address, &data);
   20294:	e0bfff17 	ldw	r2,-4(fp)
   20298:	10803fcc 	andi	r2,r2,255
   2029c:	e0fffdc4 	addi	r3,fp,-9
   202a0:	180d883a 	mov	r6,r3
   202a4:	100b883a 	mov	r5,r2
   202a8:	e13ffc17 	ldw	r4,-16(fp)
   202ac:	002f0b40 	call	2f0b4 <alt_up_accelerometer_spi_read>
   202b0:	e0bffe15 	stw	r2,-8(fp)

    if (!error)
   202b4:	e0bffe17 	ldw	r2,-8(fp)
   202b8:	1000071e 	bne	r2,zero,202d8 <read_ADXL345_deviceID+0x60>
    {
        printf("Accelerometer ID: 0x%X", data);
   202bc:	e0bffdc3 	ldbu	r2,-9(fp)
   202c0:	10803fcc 	andi	r2,r2,255
   202c4:	100b883a 	mov	r5,r2
   202c8:	010000f4 	movhi	r4,3
   202cc:	21017e04 	addi	r4,r4,1528
   202d0:	0020a9c0 	call	20a9c <printf>
    }
    else
    	printf("Wrong Accelerometer ID\r\n");
}
   202d4:	00000306 	br	202e4 <read_ADXL345_deviceID+0x6c>
    	printf("Wrong Accelerometer ID\r\n");
   202d8:	010000f4 	movhi	r4,3
   202dc:	21018404 	addi	r4,r4,1552
   202e0:	0020ba40 	call	20ba4 <puts>
}
   202e4:	0001883a 	nop
   202e8:	e037883a 	mov	sp,fp
   202ec:	dfc00117 	ldw	ra,4(sp)
   202f0:	df000017 	ldw	fp,0(sp)
   202f4:	dec00204 	addi	sp,sp,8
   202f8:	f800283a 	ret

000202fc <print_accelerometer_axis>:

void print_accelerometer_axis(alt_up_accelerometer_spi_dev *accelerometer_dev)
{
   202fc:	defffa04 	addi	sp,sp,-24
   20300:	dfc00515 	stw	ra,20(sp)
   20304:	df000415 	stw	fp,16(sp)
   20308:	df000404 	addi	fp,sp,16
   2030c:	e13ffc15 	stw	r4,-16(fp)
	alt_32 x = 0;
   20310:	e03fff15 	stw	zero,-4(fp)
	alt_32 y = 0;
   20314:	e03ffe15 	stw	zero,-8(fp)
	alt_32 z = 0;
   20318:	e03ffd15 	stw	zero,-12(fp)
	alt_up_accelerometer_spi_read_x_axis(accelerometer_dev, &x);
   2031c:	e0bfff04 	addi	r2,fp,-4
   20320:	100b883a 	mov	r5,r2
   20324:	e13ffc17 	ldw	r4,-16(fp)
   20328:	002f1840 	call	2f184 <alt_up_accelerometer_spi_read_x_axis>
	alt_up_accelerometer_spi_read_y_axis(accelerometer_dev, &y);
   2032c:	e0bffe04 	addi	r2,fp,-8
   20330:	100b883a 	mov	r5,r2
   20334:	e13ffc17 	ldw	r4,-16(fp)
   20338:	002f2580 	call	2f258 <alt_up_accelerometer_spi_read_y_axis>
	alt_up_accelerometer_spi_read_z_axis(accelerometer_dev, &z);
   2033c:	e0bffd04 	addi	r2,fp,-12
   20340:	100b883a 	mov	r5,r2
   20344:	e13ffc17 	ldw	r4,-16(fp)
   20348:	002f32c0 	call	2f32c <alt_up_accelerometer_spi_read_z_axis>
	printf("x: %d, y: %d, z: %d \r\n", x, y, z);
   2034c:	e0bfff17 	ldw	r2,-4(fp)
   20350:	e0fffe17 	ldw	r3,-8(fp)
   20354:	e13ffd17 	ldw	r4,-12(fp)
   20358:	200f883a 	mov	r7,r4
   2035c:	180d883a 	mov	r6,r3
   20360:	100b883a 	mov	r5,r2
   20364:	010000f4 	movhi	r4,3
   20368:	21018a04 	addi	r4,r4,1576
   2036c:	0020a9c0 	call	20a9c <printf>
}
   20370:	0001883a 	nop
   20374:	e037883a 	mov	sp,fp
   20378:	dfc00117 	ldw	ra,4(sp)
   2037c:	df000017 	ldw	fp,0(sp)
   20380:	dec00204 	addi	sp,sp,8
   20384:	f800283a 	ret

00020388 <applyHysteresis>:

int applyHysteresis(int current_value, int previous_value, int threshold)
{
   20388:	defffc04 	addi	sp,sp,-16
   2038c:	df000315 	stw	fp,12(sp)
   20390:	df000304 	addi	fp,sp,12
   20394:	e13fff15 	stw	r4,-4(fp)
   20398:	e17ffe15 	stw	r5,-8(fp)
   2039c:	e1bffd15 	stw	r6,-12(fp)
    if (abs(current_value - previous_value) > threshold) {
   203a0:	e0ffff17 	ldw	r3,-4(fp)
   203a4:	e0bffe17 	ldw	r2,-8(fp)
   203a8:	1885c83a 	sub	r2,r3,r2
   203ac:	1000010e 	bge	r2,zero,203b4 <applyHysteresis+0x2c>
   203b0:	0085c83a 	sub	r2,zero,r2
   203b4:	1007883a 	mov	r3,r2
   203b8:	e0bffd17 	ldw	r2,-12(fp)
   203bc:	10c0020e 	bge	r2,r3,203c8 <applyHysteresis+0x40>
        return current_value;
   203c0:	e0bfff17 	ldw	r2,-4(fp)
   203c4:	00000106 	br	203cc <applyHysteresis+0x44>
    } else {
        return previous_value;
   203c8:	e0bffe17 	ldw	r2,-8(fp)
    }
}
   203cc:	e037883a 	mov	sp,fp
   203d0:	df000017 	ldw	fp,0(sp)
   203d4:	dec00104 	addi	sp,sp,4
   203d8:	f800283a 	ret

000203dc <getAdcValue>:


#include "adc.h"

unsigned int getAdcValue(alt_up_adc_dev * adc)
{
   203dc:	defffd04 	addi	sp,sp,-12
   203e0:	dfc00215 	stw	ra,8(sp)
   203e4:	df000115 	stw	fp,4(sp)
   203e8:	df000104 	addi	fp,sp,4
   203ec:	e13fff15 	stw	r4,-4(fp)
	alt_up_adc_update (adc);
   203f0:	e0bfff17 	ldw	r2,-4(fp)
   203f4:	10800a17 	ldw	r2,40(r2)
   203f8:	0007883a 	mov	r3,zero
   203fc:	10c00035 	stwio	r3,0(r2)
	return alt_up_adc_read(adc, 0);
   20400:	000b883a 	mov	r5,zero
   20404:	e13fff17 	ldw	r4,-4(fp)
   20408:	002f43c0 	call	2f43c <alt_up_adc_read>
}
   2040c:	e037883a 	mov	sp,fp
   20410:	dfc00117 	ldw	ra,4(sp)
   20414:	df000017 	ldw	fp,0(sp)
   20418:	dec00204 	addi	sp,sp,8
   2041c:	f800283a 	ret

00020420 <get_hex_address>:
#include "hex_displays.h"

volatile uint32_t* get_hex_address(int hex_index)
{
   20420:	defffe04 	addi	sp,sp,-8
   20424:	df000115 	stw	fp,4(sp)
   20428:	df000104 	addi	fp,sp,4
   2042c:	e13fff15 	stw	r4,-4(fp)
    return (volatile uint32_t*)(HEX_BASE_ADDR + hex_index * HEX_OFFSET);
   20430:	e0bfff17 	ldw	r2,-4(fp)
   20434:	10904044 	addi	r2,r2,16641
   20438:	1004913a 	slli	r2,r2,4
}
   2043c:	e037883a 	mov	sp,fp
   20440:	df000017 	ldw	fp,0(sp)
   20444:	dec00104 	addi	sp,sp,4
   20448:	f800283a 	ret

0002044c <hex_init>:

void hex_init (uint32_t hexState)
{
   2044c:	defffc04 	addi	sp,sp,-16
   20450:	dfc00315 	stw	ra,12(sp)
   20454:	df000215 	stw	fp,8(sp)
   20458:	df000204 	addi	fp,sp,8
   2045c:	e13ffe15 	stw	r4,-8(fp)
	for(int i = 0; i < 6; i++)
   20460:	e03fff15 	stw	zero,-4(fp)
   20464:	00000806 	br	20488 <hex_init+0x3c>
	{
		IOWR_ALTERA_AVALON_PIO_DATA(get_hex_address(i), hexState);
   20468:	e13fff17 	ldw	r4,-4(fp)
   2046c:	00204200 	call	20420 <get_hex_address>
   20470:	1007883a 	mov	r3,r2
   20474:	e0bffe17 	ldw	r2,-8(fp)
   20478:	18800035 	stwio	r2,0(r3)
	for(int i = 0; i < 6; i++)
   2047c:	e0bfff17 	ldw	r2,-4(fp)
   20480:	10800044 	addi	r2,r2,1
   20484:	e0bfff15 	stw	r2,-4(fp)
   20488:	e0bfff17 	ldw	r2,-4(fp)
   2048c:	10800190 	cmplti	r2,r2,6
   20490:	103ff51e 	bne	r2,zero,20468 <hex_init+0x1c>
	}
}
   20494:	0001883a 	nop
   20498:	0001883a 	nop
   2049c:	e037883a 	mov	sp,fp
   204a0:	dfc00117 	ldw	ra,4(sp)
   204a4:	df000017 	ldw	fp,0(sp)
   204a8:	dec00204 	addi	sp,sp,8
   204ac:	f800283a 	ret

000204b0 <set_hex_value>:

void set_hex_value (alt_u8 value, alt_u8 hex_index) {
   204b0:	defffc04 	addi	sp,sp,-16
   204b4:	dfc00315 	stw	ra,12(sp)
   204b8:	df000215 	stw	fp,8(sp)
   204bc:	df000204 	addi	fp,sp,8
   204c0:	2005883a 	mov	r2,r4
   204c4:	2807883a 	mov	r3,r5
   204c8:	e0bfff05 	stb	r2,-4(fp)
   204cc:	1805883a 	mov	r2,r3
   204d0:	e0bffe05 	stb	r2,-8(fp)
	IOWR_ALTERA_AVALON_PIO_DATA(get_hex_address(hex_index), value);
   204d4:	e0bffe03 	ldbu	r2,-8(fp)
   204d8:	1009883a 	mov	r4,r2
   204dc:	00204200 	call	20420 <get_hex_address>
   204e0:	1007883a 	mov	r3,r2
   204e4:	e0bfff03 	ldbu	r2,-4(fp)
   204e8:	18800035 	stwio	r2,0(r3)
}
   204ec:	0001883a 	nop
   204f0:	e037883a 	mov	sp,fp
   204f4:	dfc00117 	ldw	ra,4(sp)
   204f8:	df000017 	ldw	fp,0(sp)
   204fc:	dec00204 	addi	sp,sp,8
   20500:	f800283a 	ret

00020504 <set_hex_state>:

void set_hex_state (alt_u8 state, alt_u8 hex_index)
{
   20504:	defffc04 	addi	sp,sp,-16
   20508:	dfc00315 	stw	ra,12(sp)
   2050c:	df000215 	stw	fp,8(sp)
   20510:	df000204 	addi	fp,sp,8
   20514:	2005883a 	mov	r2,r4
   20518:	2807883a 	mov	r3,r5
   2051c:	e0bfff05 	stb	r2,-4(fp)
   20520:	1805883a 	mov	r2,r3
   20524:	e0bffe05 	stb	r2,-8(fp)
	if(state)
   20528:	e0bfff03 	ldbu	r2,-4(fp)
   2052c:	10000726 	beq	r2,zero,2054c <set_hex_state+0x48>
		IOWR_ALTERA_AVALON_PIO_DATA(get_hex_address(hex_index), TURN_ON);	// Turn on 7Segment Display
   20530:	e0bffe03 	ldbu	r2,-8(fp)
   20534:	1009883a 	mov	r4,r2
   20538:	00204200 	call	20420 <get_hex_address>
   2053c:	1007883a 	mov	r3,r2
   20540:	00802004 	movi	r2,128
   20544:	18800035 	stwio	r2,0(r3)
	else
		IOWR_ALTERA_AVALON_PIO_DATA(get_hex_address(hex_index), TURN_OFF);	// Turn off 7Segment Display
}
   20548:	00000606 	br	20564 <set_hex_state+0x60>
		IOWR_ALTERA_AVALON_PIO_DATA(get_hex_address(hex_index), TURN_OFF);	// Turn off 7Segment Display
   2054c:	e0bffe03 	ldbu	r2,-8(fp)
   20550:	1009883a 	mov	r4,r2
   20554:	00204200 	call	20420 <get_hex_address>
   20558:	1007883a 	mov	r3,r2
   2055c:	00803fc4 	movi	r2,255
   20560:	18800035 	stwio	r2,0(r3)
}
   20564:	0001883a 	nop
   20568:	e037883a 	mov	sp,fp
   2056c:	dfc00117 	ldw	ra,4(sp)
   20570:	df000017 	ldw	fp,0(sp)
   20574:	dec00204 	addi	sp,sp,8
   20578:	f800283a 	ret

0002057c <main>:
alt_up_adc_dev* adc_device = NULL;

// ADC MAX VALUE: ~3943
// ADC MIN VALUE: 2 / 3
int main()
{
   2057c:	defff604 	addi	sp,sp,-40
   20580:	dfc00915 	stw	ra,36(sp)
   20584:	df000815 	stw	fp,32(sp)
   20588:	df000804 	addi	fp,sp,32
	printf("Program start\r\n");
   2058c:	010000f4 	movhi	r4,3
   20590:	21019004 	addi	r4,r4,1600
   20594:	0020ba40 	call	20ba4 <puts>
	hex_init(TURN_OFF);
   20598:	01003fc4 	movi	r4,255
   2059c:	002044c0 	call	2044c <hex_init>
	accelerometer_device = alt_up_accelerometer_spi_open_dev(ACCELEROMETER_SPI_0_NAME);
   205a0:	010000f4 	movhi	r4,3
   205a4:	21019404 	addi	r4,r4,1616
   205a8:	002f0340 	call	2f034 <alt_up_accelerometer_spi_open_dev>
   205ac:	d0a71a15 	stw	r2,-25496(gp)
	adc_device = alt_up_adc_open_dev(ADC_0_NAME);
   205b0:	010000f4 	movhi	r4,3
   205b4:	21019b04 	addi	r4,r4,1644
   205b8:	002f4000 	call	2f400 <alt_up_adc_open_dev>
   205bc:	d0a71b15 	stw	r2,-25492(gp)

	if (adc_device != NULL)
   205c0:	d0a71b17 	ldw	r2,-25492(gp)
   205c4:	10000326 	beq	r2,zero,205d4 <main+0x58>
		printf("ADC device is initialized \r\n");
   205c8:	010000f4 	movhi	r4,3
   205cc:	21019e04 	addi	r4,r4,1656
   205d0:	0020ba40 	call	20ba4 <puts>
	read_ADXL345_deviceID(accelerometer_device);
   205d4:	d0a71a17 	ldw	r2,-25496(gp)
   205d8:	1009883a 	mov	r4,r2
   205dc:	00202780 	call	20278 <read_ADXL345_deviceID>

	alt_32 y = 0, x = 0;
   205e0:	e03ff915 	stw	zero,-28(fp)
   205e4:	e03ff815 	stw	zero,-32(fp)
	static int state_x = 0;
	static int state_y = 0;
	int filtered_x, filtered_y;
	int y_inclination, x_sensibility = 86;
   205e8:	00801584 	movi	r2,86
   205ec:	e0bffe15 	stw	r2,-8(fp)
	while(1)
	{
		alt_up_accelerometer_spi_read_x_axis(accelerometer_device, &x);
   205f0:	d0a71a17 	ldw	r2,-25496(gp)
   205f4:	e0fff804 	addi	r3,fp,-32
   205f8:	180b883a 	mov	r5,r3
   205fc:	1009883a 	mov	r4,r2
   20600:	002f1840 	call	2f184 <alt_up_accelerometer_spi_read_x_axis>
		filtered_x = applyHysteresis(x, state_x, HYSTERESIS_THRESHOLD);
   20604:	e0bff817 	ldw	r2,-32(fp)
   20608:	d0e71c17 	ldw	r3,-25488(gp)
   2060c:	01800504 	movi	r6,20
   20610:	180b883a 	mov	r5,r3
   20614:	1009883a 	mov	r4,r2
   20618:	00203880 	call	20388 <applyHysteresis>
   2061c:	e0bffc15 	stw	r2,-16(fp)

		alt_up_accelerometer_spi_read_y_axis(accelerometer_device, &y);
   20620:	d0a71a17 	ldw	r2,-25496(gp)
   20624:	e0fff904 	addi	r3,fp,-28
   20628:	180b883a 	mov	r5,r3
   2062c:	1009883a 	mov	r4,r2
   20630:	002f2580 	call	2f258 <alt_up_accelerometer_spi_read_y_axis>
		filtered_y = applyHysteresis(y, state_y, HYSTERESIS_THRESHOLD);
   20634:	e0bff917 	ldw	r2,-28(fp)
   20638:	d0e71d17 	ldw	r3,-25484(gp)
   2063c:	01800504 	movi	r6,20
   20640:	180b883a 	mov	r5,r3
   20644:	1009883a 	mov	r4,r2
   20648:	00203880 	call	20388 <applyHysteresis>
   2064c:	e0bffb15 	stw	r2,-20(fp)
		//printf("x: %d  y: %d", filtered_x, filtered_y);
		x = (filtered_x * 6) / (2 * x_sensibility);
   20650:	e0bffc17 	ldw	r2,-16(fp)
   20654:	10c001a4 	muli	r3,r2,6
   20658:	e0bffe17 	ldw	r2,-8(fp)
   2065c:	1085883a 	add	r2,r2,r2
   20660:	100b883a 	mov	r5,r2
   20664:	1809883a 	mov	r4,r3
   20668:	00208b80 	call	208b8 <__divsi3>
   2066c:	e0bff815 	stw	r2,-32(fp)
		x += 2;
   20670:	e0bff817 	ldw	r2,-32(fp)
   20674:	10800084 	addi	r2,r2,2
   20678:	e0bff815 	stw	r2,-32(fp)
		x = (x < 0) ? 0 : (x >= 6) ? 5 : x;
   2067c:	e0bff817 	ldw	r2,-32(fp)
   20680:	10000516 	blt	r2,zero,20698 <main+0x11c>
   20684:	e0bff817 	ldw	r2,-32(fp)
   20688:	10c00190 	cmplti	r3,r2,6
   2068c:	1800031e 	bne	r3,zero,2069c <main+0x120>
   20690:	00800144 	movi	r2,5
   20694:	00000106 	br	2069c <main+0x120>
   20698:	0005883a 	mov	r2,zero
   2069c:	e0bff815 	stw	r2,-32(fp)
		if (IORD_ALTERA_AVALON_PIO_DATA(SW_0_BASE)) {
   206a0:	00800134 	movhi	r2,4
   206a4:	10842037 	ldwio	r2,4224(r2)
   206a8:	10001b26 	beq	r2,zero,20718 <main+0x19c>
		        y_inclination = (getAdcValue(adc_device) >> 4);
   206ac:	d0a71b17 	ldw	r2,-25492(gp)
   206b0:	1009883a 	mov	r4,r2
   206b4:	00203dc0 	call	203dc <getAdcValue>
   206b8:	1004d13a 	srli	r2,r2,4
   206bc:	e0bfff15 	stw	r2,-4(fp)
		        if (IORD_ALTERA_AVALON_PIO_DATA(SW_1_BASE))
   206c0:	00800134 	movhi	r2,4
   206c4:	10842437 	ldwio	r2,4240(r2)
   206c8:	10001026 	beq	r2,zero,2070c <main+0x190>
		        {
		            int raw_adc_value = getAdcValue(adc_device);
   206cc:	d0a71b17 	ldw	r2,-25492(gp)
   206d0:	1009883a 	mov	r4,r2
   206d4:	00203dc0 	call	203dc <getAdcValue>
   206d8:	e0bffa15 	stw	r2,-24(fp)
		            x_sensibility = 10 + DIV_3941((raw_adc_value - 2) * 190);	// 10 + ((raw_adc_value - 2) * (200 - 10)) / (3943 - 2)
   206dc:	e0bffa17 	ldw	r2,-24(fp)
   206e0:	10bfff84 	addi	r2,r2,-2
   206e4:	108327a4 	muli	r2,r2,3230
   206e8:	1005d43a 	srai	r2,r2,16
   206ec:	10800284 	addi	r2,r2,10
   206f0:	e0bffe15 	stw	r2,-8(fp)
		            x_sensibility = max(10, x_sensibility);
   206f4:	e0bffe17 	ldw	r2,-8(fp)
   206f8:	10c00288 	cmpgei	r3,r2,10
   206fc:	1800011e 	bne	r3,zero,20704 <main+0x188>
   20700:	00800284 	movi	r2,10
   20704:	e0bffe15 	stw	r2,-8(fp)
   20708:	00000506 	br	20720 <main+0x1a4>
		        }
		        else
		        {
		        	x_sensibility = 86;
   2070c:	00801584 	movi	r2,86
   20710:	e0bffe15 	stw	r2,-8(fp)
   20714:	00000206 	br	20720 <main+0x1a4>
		        }
		    } else {
		        y_inclination = Y_INCLINATION;
   20718:	00800c84 	movi	r2,50
   2071c:	e0bfff15 	stw	r2,-4(fp)
		    }
		//printf("adc value: %d \r\n", getAdcValue(adc_device));
		if (filtered_y > y_inclination)
   20720:	e0bffb17 	ldw	r2,-20(fp)
   20724:	e0ffff17 	ldw	r3,-4(fp)
   20728:	1880060e 	bge	r3,r2,20744 <main+0x1c8>
		{
			set_hex_value(TURN_ON_DOWN_LEDS, x);
   2072c:	e0bff817 	ldw	r2,-32(fp)
   20730:	10803fcc 	andi	r2,r2,255
   20734:	100b883a 	mov	r5,r2
   20738:	010028c4 	movi	r4,163
   2073c:	00204b00 	call	204b0 <set_hex_value>
   20740:	00000f06 	br	20780 <main+0x204>
		} else if (filtered_y < -y_inclination)
   20744:	e0bfff17 	ldw	r2,-4(fp)
   20748:	0085c83a 	sub	r2,zero,r2
   2074c:	e0fffb17 	ldw	r3,-20(fp)
   20750:	1880060e 	bge	r3,r2,2076c <main+0x1f0>
		{
			set_hex_value(TURN_ON_UP_LEDS, x);
   20754:	e0bff817 	ldw	r2,-32(fp)
   20758:	10803fcc 	andi	r2,r2,255
   2075c:	100b883a 	mov	r5,r2
   20760:	01002704 	movi	r4,156
   20764:	00204b00 	call	204b0 <set_hex_value>
   20768:	00000506 	br	20780 <main+0x204>
		} else
		{
			set_hex_value(TURN_ON_MIDDLE_LINE, x);
   2076c:	e0bff817 	ldw	r2,-32(fp)
   20770:	10803fcc 	andi	r2,r2,255
   20774:	100b883a 	mov	r5,r2
   20778:	01002fc4 	movi	r4,191
   2077c:	00204b00 	call	204b0 <set_hex_value>
		}
		for (int i = 0; i < 6; i++) { if (i != x) { set_hex_value(0xFF, i); } };
   20780:	e03ffd15 	stw	zero,-12(fp)
   20784:	00000b06 	br	207b4 <main+0x238>
   20788:	e0bff817 	ldw	r2,-32(fp)
   2078c:	e0fffd17 	ldw	r3,-12(fp)
   20790:	18800526 	beq	r3,r2,207a8 <main+0x22c>
   20794:	e0bffd17 	ldw	r2,-12(fp)
   20798:	10803fcc 	andi	r2,r2,255
   2079c:	100b883a 	mov	r5,r2
   207a0:	01003fc4 	movi	r4,255
   207a4:	00204b00 	call	204b0 <set_hex_value>
   207a8:	e0bffd17 	ldw	r2,-12(fp)
   207ac:	10800044 	addi	r2,r2,1
   207b0:	e0bffd15 	stw	r2,-12(fp)
   207b4:	e0bffd17 	ldw	r2,-12(fp)
   207b8:	10800190 	cmplti	r2,r2,6
   207bc:	103ff21e 	bne	r2,zero,20788 <main+0x20c>
		//printf("x_sensibility: %d    y_inclination: %d\r\n", x_sensibility, y_inclination);
		state_y = filtered_y;
   207c0:	e0bffb17 	ldw	r2,-20(fp)
   207c4:	d0a71d15 	stw	r2,-25484(gp)
		state_x = filtered_x;
   207c8:	e0bffc17 	ldw	r2,-16(fp)
   207cc:	d0a71c15 	stw	r2,-25488(gp)
		usleep(10000);
   207d0:	0109c404 	movi	r4,10000
   207d4:	002e3800 	call	2e380 <usleep>
		alt_up_accelerometer_spi_read_x_axis(accelerometer_device, &x);
   207d8:	003f8506 	br	205f0 <main+0x74>

000207dc <test_hex_displays>:
 */

#include "hex_displays.h"

void test_hex_displays()
{
   207dc:	defffa04 	addi	sp,sp,-24
   207e0:	dfc00515 	stw	ra,20(sp)
   207e4:	df000415 	stw	fp,16(sp)
   207e8:	df000404 	addi	fp,sp,16
	for(int i = 0; i < 6; i++)
   207ec:	e03fff15 	stw	zero,-4(fp)
   207f0:	00001106 	br	20838 <test_hex_displays+0x5c>
	{
		set_hex_value(1, i);
   207f4:	e0bfff17 	ldw	r2,-4(fp)
   207f8:	10803fcc 	andi	r2,r2,255
   207fc:	100b883a 	mov	r5,r2
   20800:	01000044 	movi	r4,1
   20804:	00204b00 	call	204b0 <set_hex_value>
		for(int j = 0; j < 1000000; j++)
   20808:	e03ffe15 	stw	zero,-8(fp)
   2080c:	00000306 	br	2081c <test_hex_displays+0x40>
   20810:	e0bffe17 	ldw	r2,-8(fp)
   20814:	10800044 	addi	r2,r2,1
   20818:	e0bffe15 	stw	r2,-8(fp)
   2081c:	e0fffe17 	ldw	r3,-8(fp)
   20820:	008003f4 	movhi	r2,15
   20824:	10908fc4 	addi	r2,r2,16959
   20828:	10fff90e 	bge	r2,r3,20810 <test_hex_displays+0x34>
	for(int i = 0; i < 6; i++)
   2082c:	e0bfff17 	ldw	r2,-4(fp)
   20830:	10800044 	addi	r2,r2,1
   20834:	e0bfff15 	stw	r2,-4(fp)
   20838:	e0bfff17 	ldw	r2,-4(fp)
   2083c:	10800190 	cmplti	r2,r2,6
   20840:	103fec1e 	bne	r2,zero,207f4 <test_hex_displays+0x18>
			;
	}
	for(int i = 0; i < 6; i++)
   20844:	e03ffd15 	stw	zero,-12(fp)
   20848:	00001106 	br	20890 <test_hex_displays+0xb4>
		{
			set_hex_value(0, i);
   2084c:	e0bffd17 	ldw	r2,-12(fp)
   20850:	10803fcc 	andi	r2,r2,255
   20854:	100b883a 	mov	r5,r2
   20858:	0009883a 	mov	r4,zero
   2085c:	00204b00 	call	204b0 <set_hex_value>
			for(int j = 0; j < 1000000; j++)
   20860:	e03ffc15 	stw	zero,-16(fp)
   20864:	00000306 	br	20874 <test_hex_displays+0x98>
   20868:	e0bffc17 	ldw	r2,-16(fp)
   2086c:	10800044 	addi	r2,r2,1
   20870:	e0bffc15 	stw	r2,-16(fp)
   20874:	e0fffc17 	ldw	r3,-16(fp)
   20878:	008003f4 	movhi	r2,15
   2087c:	10908fc4 	addi	r2,r2,16959
   20880:	10fff90e 	bge	r2,r3,20868 <test_hex_displays+0x8c>
	for(int i = 0; i < 6; i++)
   20884:	e0bffd17 	ldw	r2,-12(fp)
   20888:	10800044 	addi	r2,r2,1
   2088c:	e0bffd15 	stw	r2,-12(fp)
   20890:	e0bffd17 	ldw	r2,-12(fp)
   20894:	10800190 	cmplti	r2,r2,6
   20898:	103fec1e 	bne	r2,zero,2084c <test_hex_displays+0x70>
				;
		}
}
   2089c:	0001883a 	nop
   208a0:	0001883a 	nop
   208a4:	e037883a 	mov	sp,fp
   208a8:	dfc00117 	ldw	ra,4(sp)
   208ac:	df000017 	ldw	fp,0(sp)
   208b0:	dec00204 	addi	sp,sp,8
   208b4:	f800283a 	ret

000208b8 <__divsi3>:
   208b8:	20001a16 	blt	r4,zero,20924 <__divsi3+0x6c>
   208bc:	000f883a 	mov	r7,zero
   208c0:	2800020e 	bge	r5,zero,208cc <__divsi3+0x14>
   208c4:	014bc83a 	sub	r5,zero,r5
   208c8:	39c0005c 	xori	r7,r7,1
   208cc:	200d883a 	mov	r6,r4
   208d0:	00c00044 	movi	r3,1
   208d4:	2900092e 	bgeu	r5,r4,208fc <__divsi3+0x44>
   208d8:	00800804 	movi	r2,32
   208dc:	00c00044 	movi	r3,1
   208e0:	00000106 	br	208e8 <__divsi3+0x30>
   208e4:	10001226 	beq	r2,zero,20930 <__divsi3+0x78>
   208e8:	294b883a 	add	r5,r5,r5
   208ec:	10bfffc4 	addi	r2,r2,-1
   208f0:	18c7883a 	add	r3,r3,r3
   208f4:	293ffb36 	bltu	r5,r4,208e4 <__divsi3+0x2c>
   208f8:	18000d26 	beq	r3,zero,20930 <__divsi3+0x78>
   208fc:	0005883a 	mov	r2,zero
   20900:	31400236 	bltu	r6,r5,2090c <__divsi3+0x54>
   20904:	314dc83a 	sub	r6,r6,r5
   20908:	10c4b03a 	or	r2,r2,r3
   2090c:	1806d07a 	srli	r3,r3,1
   20910:	280ad07a 	srli	r5,r5,1
   20914:	183ffa1e 	bne	r3,zero,20900 <__divsi3+0x48>
   20918:	38000126 	beq	r7,zero,20920 <__divsi3+0x68>
   2091c:	0085c83a 	sub	r2,zero,r2
   20920:	f800283a 	ret
   20924:	0109c83a 	sub	r4,zero,r4
   20928:	01c00044 	movi	r7,1
   2092c:	003fe406 	br	208c0 <__divsi3+0x8>
   20930:	0005883a 	mov	r2,zero
   20934:	003ff806 	br	20918 <__divsi3+0x60>

00020938 <__modsi3>:
   20938:	20001716 	blt	r4,zero,20998 <__modsi3+0x60>
   2093c:	000f883a 	mov	r7,zero
   20940:	2005883a 	mov	r2,r4
   20944:	2800010e 	bge	r5,zero,2094c <__modsi3+0x14>
   20948:	014bc83a 	sub	r5,zero,r5
   2094c:	00c00044 	movi	r3,1
   20950:	2900092e 	bgeu	r5,r4,20978 <__modsi3+0x40>
   20954:	01800804 	movi	r6,32
   20958:	00c00044 	movi	r3,1
   2095c:	00000106 	br	20964 <__modsi3+0x2c>
   20960:	30001026 	beq	r6,zero,209a4 <__modsi3+0x6c>
   20964:	294b883a 	add	r5,r5,r5
   20968:	31bfffc4 	addi	r6,r6,-1
   2096c:	18c7883a 	add	r3,r3,r3
   20970:	293ffb36 	bltu	r5,r4,20960 <__modsi3+0x28>
   20974:	18000b26 	beq	r3,zero,209a4 <__modsi3+0x6c>
   20978:	1806d07a 	srli	r3,r3,1
   2097c:	11400136 	bltu	r2,r5,20984 <__modsi3+0x4c>
   20980:	1145c83a 	sub	r2,r2,r5
   20984:	280ad07a 	srli	r5,r5,1
   20988:	183ffb1e 	bne	r3,zero,20978 <__modsi3+0x40>
   2098c:	38000126 	beq	r7,zero,20994 <__modsi3+0x5c>
   20990:	0085c83a 	sub	r2,zero,r2
   20994:	f800283a 	ret
   20998:	0109c83a 	sub	r4,zero,r4
   2099c:	01c00044 	movi	r7,1
   209a0:	003fe706 	br	20940 <__modsi3+0x8>
   209a4:	2005883a 	mov	r2,r4
   209a8:	003ff806 	br	2098c <__modsi3+0x54>

000209ac <__udivsi3>:
   209ac:	200d883a 	mov	r6,r4
   209b0:	2900152e 	bgeu	r5,r4,20a08 <__udivsi3+0x5c>
   209b4:	28001416 	blt	r5,zero,20a08 <__udivsi3+0x5c>
   209b8:	00800804 	movi	r2,32
   209bc:	00c00044 	movi	r3,1
   209c0:	00000206 	br	209cc <__udivsi3+0x20>
   209c4:	10000e26 	beq	r2,zero,20a00 <__udivsi3+0x54>
   209c8:	28000416 	blt	r5,zero,209dc <__udivsi3+0x30>
   209cc:	294b883a 	add	r5,r5,r5
   209d0:	10bfffc4 	addi	r2,r2,-1
   209d4:	18c7883a 	add	r3,r3,r3
   209d8:	293ffa36 	bltu	r5,r4,209c4 <__udivsi3+0x18>
   209dc:	18000826 	beq	r3,zero,20a00 <__udivsi3+0x54>
   209e0:	0005883a 	mov	r2,zero
   209e4:	31400236 	bltu	r6,r5,209f0 <__udivsi3+0x44>
   209e8:	314dc83a 	sub	r6,r6,r5
   209ec:	10c4b03a 	or	r2,r2,r3
   209f0:	1806d07a 	srli	r3,r3,1
   209f4:	280ad07a 	srli	r5,r5,1
   209f8:	183ffa1e 	bne	r3,zero,209e4 <__udivsi3+0x38>
   209fc:	f800283a 	ret
   20a00:	0005883a 	mov	r2,zero
   20a04:	f800283a 	ret
   20a08:	00c00044 	movi	r3,1
   20a0c:	003ff406 	br	209e0 <__udivsi3+0x34>

00020a10 <__umodsi3>:
   20a10:	2005883a 	mov	r2,r4
   20a14:	2900132e 	bgeu	r5,r4,20a64 <__umodsi3+0x54>
   20a18:	28001216 	blt	r5,zero,20a64 <__umodsi3+0x54>
   20a1c:	01800804 	movi	r6,32
   20a20:	00c00044 	movi	r3,1
   20a24:	00000206 	br	20a30 <__umodsi3+0x20>
   20a28:	30000c26 	beq	r6,zero,20a5c <__umodsi3+0x4c>
   20a2c:	28000416 	blt	r5,zero,20a40 <__umodsi3+0x30>
   20a30:	294b883a 	add	r5,r5,r5
   20a34:	31bfffc4 	addi	r6,r6,-1
   20a38:	18c7883a 	add	r3,r3,r3
   20a3c:	293ffa36 	bltu	r5,r4,20a28 <__umodsi3+0x18>
   20a40:	18000626 	beq	r3,zero,20a5c <__umodsi3+0x4c>
   20a44:	1806d07a 	srli	r3,r3,1
   20a48:	11400136 	bltu	r2,r5,20a50 <__umodsi3+0x40>
   20a4c:	1145c83a 	sub	r2,r2,r5
   20a50:	280ad07a 	srli	r5,r5,1
   20a54:	183ffb1e 	bne	r3,zero,20a44 <__umodsi3+0x34>
   20a58:	f800283a 	ret
   20a5c:	2005883a 	mov	r2,r4
   20a60:	f800283a 	ret
   20a64:	00c00044 	movi	r3,1
   20a68:	003ff606 	br	20a44 <__umodsi3+0x34>

00020a6c <_printf_r>:
   20a6c:	defffd04 	addi	sp,sp,-12
   20a70:	2805883a 	mov	r2,r5
   20a74:	dfc00015 	stw	ra,0(sp)
   20a78:	d9800115 	stw	r6,4(sp)
   20a7c:	d9c00215 	stw	r7,8(sp)
   20a80:	21400217 	ldw	r5,8(r4)
   20a84:	d9c00104 	addi	r7,sp,4
   20a88:	100d883a 	mov	r6,r2
   20a8c:	0020c4c0 	call	20c4c <___vfprintf_internal_r>
   20a90:	dfc00017 	ldw	ra,0(sp)
   20a94:	dec00304 	addi	sp,sp,12
   20a98:	f800283a 	ret

00020a9c <printf>:
   20a9c:	defffc04 	addi	sp,sp,-16
   20aa0:	dfc00015 	stw	ra,0(sp)
   20aa4:	d9400115 	stw	r5,4(sp)
   20aa8:	d9800215 	stw	r6,8(sp)
   20aac:	d9c00315 	stw	r7,12(sp)
   20ab0:	008000f4 	movhi	r2,3
   20ab4:	108a4217 	ldw	r2,10504(r2)
   20ab8:	200b883a 	mov	r5,r4
   20abc:	d9800104 	addi	r6,sp,4
   20ac0:	11000217 	ldw	r4,8(r2)
   20ac4:	0022ff40 	call	22ff4 <__vfprintf_internal>
   20ac8:	dfc00017 	ldw	ra,0(sp)
   20acc:	dec00404 	addi	sp,sp,16
   20ad0:	f800283a 	ret

00020ad4 <_puts_r>:
   20ad4:	defff504 	addi	sp,sp,-44
   20ad8:	dc000815 	stw	r16,32(sp)
   20adc:	2021883a 	mov	r16,r4
   20ae0:	2809883a 	mov	r4,r5
   20ae4:	dc400915 	stw	r17,36(sp)
   20ae8:	dfc00a15 	stw	ra,40(sp)
   20aec:	2823883a 	mov	r17,r5
   20af0:	0020bb40 	call	20bb4 <strlen>
   20af4:	11000044 	addi	r4,r2,1
   20af8:	d8800515 	stw	r2,20(sp)
   20afc:	00800044 	movi	r2,1
   20b00:	00c000f4 	movhi	r3,3
   20b04:	d8800715 	stw	r2,28(sp)
   20b08:	d8800404 	addi	r2,sp,16
   20b0c:	18c1a504 	addi	r3,r3,1684
   20b10:	d8800115 	stw	r2,4(sp)
   20b14:	00800084 	movi	r2,2
   20b18:	dc400415 	stw	r17,16(sp)
   20b1c:	d8c00615 	stw	r3,24(sp)
   20b20:	d9000315 	stw	r4,12(sp)
   20b24:	d8800215 	stw	r2,8(sp)
   20b28:	81400217 	ldw	r5,8(r16)
   20b2c:	80000226 	beq	r16,zero,20b38 <_puts_r+0x64>
   20b30:	80800e17 	ldw	r2,56(r16)
   20b34:	10001426 	beq	r2,zero,20b88 <_puts_r+0xb4>
   20b38:	2880030b 	ldhu	r2,12(r5)
   20b3c:	10c8000c 	andi	r3,r2,8192
   20b40:	1800061e 	bne	r3,zero,20b5c <_puts_r+0x88>
   20b44:	28c01917 	ldw	r3,100(r5)
   20b48:	0137ffc4 	movi	r4,-8193
   20b4c:	10880014 	ori	r2,r2,8192
   20b50:	1906703a 	and	r3,r3,r4
   20b54:	2880030d 	sth	r2,12(r5)
   20b58:	28c01915 	stw	r3,100(r5)
   20b5c:	d9800104 	addi	r6,sp,4
   20b60:	8009883a 	mov	r4,r16
   20b64:	00256980 	call	25698 <__sfvwrite_r>
   20b68:	1007883a 	mov	r3,r2
   20b6c:	00800284 	movi	r2,10
   20b70:	18000a1e 	bne	r3,zero,20b9c <_puts_r+0xc8>
   20b74:	dfc00a17 	ldw	ra,40(sp)
   20b78:	dc400917 	ldw	r17,36(sp)
   20b7c:	dc000817 	ldw	r16,32(sp)
   20b80:	dec00b04 	addi	sp,sp,44
   20b84:	f800283a 	ret
   20b88:	8009883a 	mov	r4,r16
   20b8c:	d9400015 	stw	r5,0(sp)
   20b90:	00252240 	call	25224 <__sinit>
   20b94:	d9400017 	ldw	r5,0(sp)
   20b98:	003fe706 	br	20b38 <_puts_r+0x64>
   20b9c:	00bfffc4 	movi	r2,-1
   20ba0:	003ff406 	br	20b74 <_puts_r+0xa0>

00020ba4 <puts>:
   20ba4:	008000f4 	movhi	r2,3
   20ba8:	200b883a 	mov	r5,r4
   20bac:	110a4217 	ldw	r4,10504(r2)
   20bb0:	0020ad41 	jmpi	20ad4 <_puts_r>

00020bb4 <strlen>:
   20bb4:	208000cc 	andi	r2,r4,3
   20bb8:	10000926 	beq	r2,zero,20be0 <strlen+0x2c>
   20bbc:	2005883a 	mov	r2,r4
   20bc0:	00000306 	br	20bd0 <strlen+0x1c>
   20bc4:	10800044 	addi	r2,r2,1
   20bc8:	10c000cc 	andi	r3,r2,3
   20bcc:	18000526 	beq	r3,zero,20be4 <strlen+0x30>
   20bd0:	10c00007 	ldb	r3,0(r2)
   20bd4:	183ffb1e 	bne	r3,zero,20bc4 <strlen+0x10>
   20bd8:	1105c83a 	sub	r2,r2,r4
   20bdc:	f800283a 	ret
   20be0:	2005883a 	mov	r2,r4
   20be4:	11400017 	ldw	r5,0(r2)
   20be8:	01ffbff4 	movhi	r7,65279
   20bec:	39ffbfc4 	addi	r7,r7,-257
   20bf0:	29c7883a 	add	r3,r5,r7
   20bf4:	01a02074 	movhi	r6,32897
   20bf8:	014a303a 	nor	r5,zero,r5
   20bfc:	1946703a 	and	r3,r3,r5
   20c00:	31a02004 	addi	r6,r6,-32640
   20c04:	1986703a 	and	r3,r3,r6
   20c08:	1800071e 	bne	r3,zero,20c28 <strlen+0x74>
   20c0c:	11400117 	ldw	r5,4(r2)
   20c10:	10800104 	addi	r2,r2,4
   20c14:	29c7883a 	add	r3,r5,r7
   20c18:	014a303a 	nor	r5,zero,r5
   20c1c:	1946703a 	and	r3,r3,r5
   20c20:	1986703a 	and	r3,r3,r6
   20c24:	183ff926 	beq	r3,zero,20c0c <strlen+0x58>
   20c28:	10c00007 	ldb	r3,0(r2)
   20c2c:	183fea26 	beq	r3,zero,20bd8 <strlen+0x24>
   20c30:	10c00047 	ldb	r3,1(r2)
   20c34:	10800044 	addi	r2,r2,1
   20c38:	183fe726 	beq	r3,zero,20bd8 <strlen+0x24>
   20c3c:	10c00047 	ldb	r3,1(r2)
   20c40:	10800044 	addi	r2,r2,1
   20c44:	183ffa1e 	bne	r3,zero,20c30 <strlen+0x7c>
   20c48:	003fe306 	br	20bd8 <strlen+0x24>

00020c4c <___vfprintf_internal_r>:
   20c4c:	deffbc04 	addi	sp,sp,-272
   20c50:	dfc04315 	stw	ra,268(sp)
   20c54:	dc803c15 	stw	r18,240(sp)
   20c58:	dc003a15 	stw	r16,232(sp)
   20c5c:	d9000515 	stw	r4,20(sp)
   20c60:	2021883a 	mov	r16,r4
   20c64:	d9400415 	stw	r5,16(sp)
   20c68:	3025883a 	mov	r18,r6
   20c6c:	d9c00715 	stw	r7,28(sp)
   20c70:	df004215 	stw	fp,264(sp)
   20c74:	ddc04115 	stw	r23,260(sp)
   20c78:	dd804015 	stw	r22,256(sp)
   20c7c:	dd403f15 	stw	r21,252(sp)
   20c80:	dd003e15 	stw	r20,248(sp)
   20c84:	dcc03d15 	stw	r19,244(sp)
   20c88:	dc403b15 	stw	r17,236(sp)
   20c8c:	0025c840 	call	25c84 <_localeconv_r>
   20c90:	10800017 	ldw	r2,0(r2)
   20c94:	1009883a 	mov	r4,r2
   20c98:	d8800d15 	stw	r2,52(sp)
   20c9c:	0020bb40 	call	20bb4 <strlen>
   20ca0:	d8800c15 	stw	r2,48(sp)
   20ca4:	80000226 	beq	r16,zero,20cb0 <___vfprintf_internal_r+0x64>
   20ca8:	80800e17 	ldw	r2,56(r16)
   20cac:	10022b26 	beq	r2,zero,2155c <___vfprintf_internal_r+0x910>
   20cb0:	d9400417 	ldw	r5,16(sp)
   20cb4:	2880030b 	ldhu	r2,12(r5)
   20cb8:	10c8000c 	andi	r3,r2,8192
   20cbc:	1800071e 	bne	r3,zero,20cdc <___vfprintf_internal_r+0x90>
   20cc0:	28c01917 	ldw	r3,100(r5)
   20cc4:	11080014 	ori	r4,r2,8192
   20cc8:	00b7ffc4 	movi	r2,-8193
   20ccc:	1886703a 	and	r3,r3,r2
   20cd0:	2900030d 	sth	r4,12(r5)
   20cd4:	2005883a 	mov	r2,r4
   20cd8:	28c01915 	stw	r3,100(r5)
   20cdc:	10c0020c 	andi	r3,r2,8
   20ce0:	1800f626 	beq	r3,zero,210bc <___vfprintf_internal_r+0x470>
   20ce4:	d8c00417 	ldw	r3,16(sp)
   20ce8:	18c00417 	ldw	r3,16(r3)
   20cec:	1800f326 	beq	r3,zero,210bc <___vfprintf_internal_r+0x470>
   20cf0:	1080068c 	andi	r2,r2,26
   20cf4:	10800298 	cmpnei	r2,r2,10
   20cf8:	1000f926 	beq	r2,zero,210e0 <___vfprintf_internal_r+0x494>
   20cfc:	dc402a04 	addi	r17,sp,168
   20d00:	04c000f4 	movhi	r19,3
   20d04:	9029883a 	mov	r20,r18
   20d08:	dc401d15 	stw	r17,116(sp)
   20d0c:	d8001f15 	stw	zero,124(sp)
   20d10:	d8001e15 	stw	zero,120(sp)
   20d14:	d8000915 	stw	zero,36(sp)
   20d18:	d8000a15 	stw	zero,40(sp)
   20d1c:	d8000b15 	stw	zero,44(sp)
   20d20:	d8000e15 	stw	zero,56(sp)
   20d24:	d8001115 	stw	zero,68(sp)
   20d28:	d8000615 	stw	zero,24(sp)
   20d2c:	9cc1b704 	addi	r19,r19,1756
   20d30:	8825883a 	mov	r18,r17
   20d34:	a0800007 	ldb	r2,0(r20)
   20d38:	1000cd26 	beq	r2,zero,21070 <___vfprintf_internal_r+0x424>
   20d3c:	a021883a 	mov	r16,r20
   20d40:	00000306 	br	20d50 <___vfprintf_internal_r+0x104>
   20d44:	80800047 	ldb	r2,1(r16)
   20d48:	84000044 	addi	r16,r16,1
   20d4c:	10015126 	beq	r2,zero,21294 <___vfprintf_internal_r+0x648>
   20d50:	10800958 	cmpnei	r2,r2,37
   20d54:	103ffb1e 	bne	r2,zero,20d44 <___vfprintf_internal_r+0xf8>
   20d58:	852fc83a 	sub	r23,r16,r20
   20d5c:	85014f1e 	bne	r16,r20,2129c <___vfprintf_internal_r+0x650>
   20d60:	80800003 	ldbu	r2,0(r16)
   20d64:	10803fcc 	andi	r2,r2,255
   20d68:	1080201c 	xori	r2,r2,128
   20d6c:	10bfe004 	addi	r2,r2,-128
   20d70:	1000bf26 	beq	r2,zero,21070 <___vfprintf_internal_r+0x424>
   20d74:	82c00047 	ldb	r11,1(r16)
   20d78:	85000044 	addi	r20,r16,1
   20d7c:	d8001645 	stb	zero,89(sp)
   20d80:	023fffc4 	movi	r8,-1
   20d84:	0021883a 	mov	r16,zero
   20d88:	001b883a 	mov	r13,zero
   20d8c:	a5000044 	addi	r20,r20,1
   20d90:	5839883a 	mov	fp,r11
   20d94:	e0bff804 	addi	r2,fp,-32
   20d98:	10c01668 	cmpgeui	r3,r2,89
   20d9c:	18006a1e 	bne	r3,zero,20f48 <___vfprintf_internal_r+0x2fc>
   20da0:	100490ba 	slli	r2,r2,2
   20da4:	00c000b4 	movhi	r3,2
   20da8:	10c7883a 	add	r3,r2,r3
   20dac:	18836d17 	ldw	r2,3508(r3)
   20db0:	1000683a 	jmp	r2
   20db4:	0002162c 	andhi	zero,zero,2136
   20db8:	00020f48 	cmpgei	zero,zero,2109
   20dbc:	00020f48 	cmpgei	zero,zero,2109
   20dc0:	00021620 	cmpeqi	zero,zero,2136
   20dc4:	00020f48 	cmpgei	zero,zero,2109
   20dc8:	00020f48 	cmpgei	zero,zero,2109
   20dcc:	00020f48 	cmpgei	zero,zero,2109
   20dd0:	00020f48 	cmpgei	zero,zero,2109
   20dd4:	00020f48 	cmpgei	zero,zero,2109
   20dd8:	00020f48 	cmpgei	zero,zero,2109
   20ddc:	0002159c 	xori	zero,zero,2134
   20de0:	00021610 	cmplti	zero,zero,2136
   20de4:	00020f48 	cmpgei	zero,zero,2109
   20de8:	000215b4 	movhi	zero,2134
   20dec:	000215c0 	call	215c <__reset-0x1dea4>
   20df0:	00020f48 	cmpgei	zero,zero,2109
   20df4:	00021604 	movi	zero,2136
   20df8:	00020f18 	cmpnei	zero,zero,2108
   20dfc:	00020f18 	cmpnei	zero,zero,2108
   20e00:	00020f18 	cmpnei	zero,zero,2108
   20e04:	00020f18 	cmpnei	zero,zero,2108
   20e08:	00020f18 	cmpnei	zero,zero,2108
   20e0c:	00020f18 	cmpnei	zero,zero,2108
   20e10:	00020f18 	cmpnei	zero,zero,2108
   20e14:	00020f18 	cmpnei	zero,zero,2108
   20e18:	00020f18 	cmpnei	zero,zero,2108
   20e1c:	00020f48 	cmpgei	zero,zero,2109
   20e20:	00020f48 	cmpgei	zero,zero,2109
   20e24:	00020f48 	cmpgei	zero,zero,2109
   20e28:	00020f48 	cmpgei	zero,zero,2109
   20e2c:	00020f48 	cmpgei	zero,zero,2109
   20e30:	00020f48 	cmpgei	zero,zero,2109
   20e34:	00020f48 	cmpgei	zero,zero,2109
   20e38:	00020f48 	cmpgei	zero,zero,2109
   20e3c:	00020f48 	cmpgei	zero,zero,2109
   20e40:	00020f48 	cmpgei	zero,zero,2109
   20e44:	0002112c 	andhi	zero,zero,2116
   20e48:	000213c8 	cmpgei	zero,zero,2127
   20e4c:	00020f48 	cmpgei	zero,zero,2109
   20e50:	000213c8 	cmpgei	zero,zero,2127
   20e54:	00020f48 	cmpgei	zero,zero,2109
   20e58:	00020f48 	cmpgei	zero,zero,2109
   20e5c:	00020f48 	cmpgei	zero,zero,2109
   20e60:	00020f48 	cmpgei	zero,zero,2109
   20e64:	00021678 	rdprs	zero,zero,2137
   20e68:	00020f48 	cmpgei	zero,zero,2109
   20e6c:	00020f48 	cmpgei	zero,zero,2109
   20e70:	00021194 	movui	zero,2118
   20e74:	00020f48 	cmpgei	zero,zero,2109
   20e78:	00020f48 	cmpgei	zero,zero,2109
   20e7c:	00020f48 	cmpgei	zero,zero,2109
   20e80:	00020f48 	cmpgei	zero,zero,2109
   20e84:	00020f48 	cmpgei	zero,zero,2109
   20e88:	000211bc 	xorhi	zero,zero,2118
   20e8c:	00020f48 	cmpgei	zero,zero,2109
   20e90:	00020f48 	cmpgei	zero,zero,2109
   20e94:	00022204 	movi	zero,2184
   20e98:	00020f48 	cmpgei	zero,zero,2109
   20e9c:	00020f48 	cmpgei	zero,zero,2109
   20ea0:	00020f48 	cmpgei	zero,zero,2109
   20ea4:	00020f48 	cmpgei	zero,zero,2109
   20ea8:	00020f48 	cmpgei	zero,zero,2109
   20eac:	00020f48 	cmpgei	zero,zero,2109
   20eb0:	00020f48 	cmpgei	zero,zero,2109
   20eb4:	00020f48 	cmpgei	zero,zero,2109
   20eb8:	00020f48 	cmpgei	zero,zero,2109
   20ebc:	00020f48 	cmpgei	zero,zero,2109
   20ec0:	00021690 	cmplti	zero,zero,2138
   20ec4:	00021130 	cmpltui	zero,zero,2116
   20ec8:	000213c8 	cmpgei	zero,zero,2127
   20ecc:	000213c8 	cmpgei	zero,zero,2127
   20ed0:	000213c8 	cmpgei	zero,zero,2127
   20ed4:	00021684 	movi	zero,2138
   20ed8:	00021130 	cmpltui	zero,zero,2116
   20edc:	00020f48 	cmpgei	zero,zero,2109
   20ee0:	00020f48 	cmpgei	zero,zero,2109
   20ee4:	00021650 	cmplti	zero,zero,2137
   20ee8:	00020f48 	cmpgei	zero,zero,2109
   20eec:	0002174c 	andi	zero,zero,2141
   20ef0:	00021198 	cmpnei	zero,zero,2118
   20ef4:	00021714 	movui	zero,2140
   20ef8:	00021708 	cmpgei	zero,zero,2140
   20efc:	00020f48 	cmpgei	zero,zero,2109
   20f00:	000216b8 	rdprs	zero,zero,2138
   20f04:	00020f48 	cmpgei	zero,zero,2109
   20f08:	000211c0 	call	211c <__reset-0x1dee4>
   20f0c:	00020f48 	cmpgei	zero,zero,2109
   20f10:	00020f48 	cmpgei	zero,zero,2109
   20f14:	00022274 	movhi	zero,2185
   20f18:	0021883a 	mov	r16,zero
   20f1c:	e0bff404 	addi	r2,fp,-48
   20f20:	a7000007 	ldb	fp,0(r20)
   20f24:	840002a4 	muli	r16,r16,10
   20f28:	a5000044 	addi	r20,r20,1
   20f2c:	1421883a 	add	r16,r2,r16
   20f30:	e0bff404 	addi	r2,fp,-48
   20f34:	10c002b0 	cmpltui	r3,r2,10
   20f38:	183ff91e 	bne	r3,zero,20f20 <___vfprintf_internal_r+0x2d4>
   20f3c:	e0bff804 	addi	r2,fp,-32
   20f40:	10c01668 	cmpgeui	r3,r2,89
   20f44:	183f9626 	beq	r3,zero,20da0 <___vfprintf_internal_r+0x154>
   20f48:	e0004926 	beq	fp,zero,21070 <___vfprintf_internal_r+0x424>
   20f4c:	df002005 	stb	fp,128(sp)
   20f50:	d8001645 	stb	zero,89(sp)
   20f54:	03000044 	movi	r12,1
   20f58:	01c00044 	movi	r7,1
   20f5c:	dd402004 	addi	r21,sp,128
   20f60:	6807883a 	mov	r3,r13
   20f64:	0011883a 	mov	r8,zero
   20f68:	d8000815 	stw	zero,32(sp)
   20f6c:	1b80008c 	andi	r14,r3,2
   20f70:	70000126 	beq	r14,zero,20f78 <___vfprintf_internal_r+0x32c>
   20f74:	63000084 	addi	r12,r12,2
   20f78:	1b40210c 	andi	r13,r3,132
   20f7c:	6800021e 	bne	r13,zero,20f88 <___vfprintf_internal_r+0x33c>
   20f80:	832dc83a 	sub	r22,r16,r12
   20f84:	05832916 	blt	zero,r22,21c2c <___vfprintf_internal_r+0xfe0>
   20f88:	d8801647 	ldb	r2,89(sp)
   20f8c:	dd801f17 	ldw	r22,124(sp)
   20f90:	10000c26 	beq	r2,zero,20fc4 <___vfprintf_internal_r+0x378>
   20f94:	d8801e17 	ldw	r2,120(sp)
   20f98:	d9001644 	addi	r4,sp,89
   20f9c:	b5800044 	addi	r22,r22,1
   20fa0:	10800044 	addi	r2,r2,1
   20fa4:	91000015 	stw	r4,0(r18)
   20fa8:	01000044 	movi	r4,1
   20fac:	d8801e15 	stw	r2,120(sp)
   20fb0:	91000115 	stw	r4,4(r18)
   20fb4:	dd801f15 	stw	r22,124(sp)
   20fb8:	10800208 	cmpgei	r2,r2,8
   20fbc:	10037b1e 	bne	r2,zero,21dac <___vfprintf_internal_r+0x1160>
   20fc0:	94800204 	addi	r18,r18,8
   20fc4:	70000c26 	beq	r14,zero,20ff8 <___vfprintf_internal_r+0x3ac>
   20fc8:	d8801e17 	ldw	r2,120(sp)
   20fcc:	d9001684 	addi	r4,sp,90
   20fd0:	b5800084 	addi	r22,r22,2
   20fd4:	10800044 	addi	r2,r2,1
   20fd8:	91000015 	stw	r4,0(r18)
   20fdc:	01000084 	movi	r4,2
   20fe0:	d8801e15 	stw	r2,120(sp)
   20fe4:	91000115 	stw	r4,4(r18)
   20fe8:	dd801f15 	stw	r22,124(sp)
   20fec:	10800208 	cmpgei	r2,r2,8
   20ff0:	1003821e 	bne	r2,zero,21dfc <___vfprintf_internal_r+0x11b0>
   20ff4:	94800204 	addi	r18,r18,8
   20ff8:	6b402018 	cmpnei	r13,r13,128
   20ffc:	68023426 	beq	r13,zero,218d0 <___vfprintf_internal_r+0xc84>
   21000:	41efc83a 	sub	r23,r8,r7
   21004:	05c27416 	blt	zero,r23,219d8 <___vfprintf_internal_r+0xd8c>
   21008:	1880400c 	andi	r2,r3,256
   2100c:	1001db1e 	bne	r2,zero,2177c <___vfprintf_internal_r+0xb30>
   21010:	d8801e17 	ldw	r2,120(sp)
   21014:	3d89883a 	add	r4,r7,r22
   21018:	95400015 	stw	r21,0(r18)
   2101c:	10800044 	addi	r2,r2,1
   21020:	d8801e15 	stw	r2,120(sp)
   21024:	91c00115 	stw	r7,4(r18)
   21028:	d9001f15 	stw	r4,124(sp)
   2102c:	10800208 	cmpgei	r2,r2,8
   21030:	1003521e 	bne	r2,zero,21d7c <___vfprintf_internal_r+0x1130>
   21034:	94800204 	addi	r18,r18,8
   21038:	18c0010c 	andi	r3,r3,4
   2103c:	18000226 	beq	r3,zero,21048 <___vfprintf_internal_r+0x3fc>
   21040:	8339c83a 	sub	fp,r16,r12
   21044:	0700ac16 	blt	zero,fp,212f8 <___vfprintf_internal_r+0x6ac>
   21048:	8300010e 	bge	r16,r12,21050 <___vfprintf_internal_r+0x404>
   2104c:	6021883a 	mov	r16,r12
   21050:	d8800617 	ldw	r2,24(sp)
   21054:	1405883a 	add	r2,r2,r16
   21058:	d8800615 	stw	r2,24(sp)
   2105c:	2002b01e 	bne	r4,zero,21b20 <___vfprintf_internal_r+0xed4>
   21060:	a0800007 	ldb	r2,0(r20)
   21064:	d8001e15 	stw	zero,120(sp)
   21068:	8825883a 	mov	r18,r17
   2106c:	103f331e 	bne	r2,zero,20d3c <___vfprintf_internal_r+0xf0>
   21070:	d8801f17 	ldw	r2,124(sp)
   21074:	10063b1e 	bne	r2,zero,22964 <___vfprintf_internal_r+0x1d18>
   21078:	d8800417 	ldw	r2,16(sp)
   2107c:	1080030b 	ldhu	r2,12(r2)
   21080:	1080100c 	andi	r2,r2,64
   21084:	10075f1e 	bne	r2,zero,22e04 <___vfprintf_internal_r+0x21b8>
   21088:	d8800617 	ldw	r2,24(sp)
   2108c:	dfc04317 	ldw	ra,268(sp)
   21090:	df004217 	ldw	fp,264(sp)
   21094:	ddc04117 	ldw	r23,260(sp)
   21098:	dd804017 	ldw	r22,256(sp)
   2109c:	dd403f17 	ldw	r21,252(sp)
   210a0:	dd003e17 	ldw	r20,248(sp)
   210a4:	dcc03d17 	ldw	r19,244(sp)
   210a8:	dc803c17 	ldw	r18,240(sp)
   210ac:	dc403b17 	ldw	r17,236(sp)
   210b0:	dc003a17 	ldw	r16,232(sp)
   210b4:	dec04404 	addi	sp,sp,272
   210b8:	f800283a 	ret
   210bc:	d9400417 	ldw	r5,16(sp)
   210c0:	d9000517 	ldw	r4,20(sp)
   210c4:	00230d40 	call	230d4 <__swsetup_r>
   210c8:	10074e1e 	bne	r2,zero,22e04 <___vfprintf_internal_r+0x21b8>
   210cc:	d8800417 	ldw	r2,16(sp)
   210d0:	1080030b 	ldhu	r2,12(r2)
   210d4:	1080068c 	andi	r2,r2,26
   210d8:	10800298 	cmpnei	r2,r2,10
   210dc:	103f071e 	bne	r2,zero,20cfc <___vfprintf_internal_r+0xb0>
   210e0:	d8800417 	ldw	r2,16(sp)
   210e4:	1080038f 	ldh	r2,14(r2)
   210e8:	103f0416 	blt	r2,zero,20cfc <___vfprintf_internal_r+0xb0>
   210ec:	d9c00717 	ldw	r7,28(sp)
   210f0:	d9400417 	ldw	r5,16(sp)
   210f4:	d9000517 	ldw	r4,20(sp)
   210f8:	900d883a 	mov	r6,r18
   210fc:	dfc04317 	ldw	ra,268(sp)
   21100:	df004217 	ldw	fp,264(sp)
   21104:	ddc04117 	ldw	r23,260(sp)
   21108:	dd804017 	ldw	r22,256(sp)
   2110c:	dd403f17 	ldw	r21,252(sp)
   21110:	dd003e17 	ldw	r20,248(sp)
   21114:	dcc03d17 	ldw	r19,244(sp)
   21118:	dc803c17 	ldw	r18,240(sp)
   2111c:	dc403b17 	ldw	r17,236(sp)
   21120:	dc003a17 	ldw	r16,232(sp)
   21124:	dec04404 	addi	sp,sp,272
   21128:	00230101 	jmpi	23010 <__sbprintf>
   2112c:	6b400414 	ori	r13,r13,16
   21130:	6880080c 	andi	r2,r13,32
   21134:	1000dc26 	beq	r2,zero,214a8 <___vfprintf_internal_r+0x85c>
   21138:	d8c00717 	ldw	r3,28(sp)
   2113c:	18800117 	ldw	r2,4(r3)
   21140:	1d800017 	ldw	r22,0(r3)
   21144:	18c00204 	addi	r3,r3,8
   21148:	d8c00715 	stw	r3,28(sp)
   2114c:	102f883a 	mov	r23,r2
   21150:	1000e316 	blt	r2,zero,214e0 <___vfprintf_internal_r+0x894>
   21154:	40bfffd8 	cmpnei	r2,r8,-1
   21158:	d9001643 	ldbu	r4,89(sp)
   2115c:	10010626 	beq	r2,zero,21578 <___vfprintf_internal_r+0x92c>
   21160:	00ffdfc4 	movi	r3,-129
   21164:	b5c4b03a 	or	r2,r22,r23
   21168:	68c6703a 	and	r3,r13,r3
   2116c:	1001011e 	bne	r2,zero,21574 <___vfprintf_internal_r+0x928>
   21170:	00800044 	movi	r2,1
   21174:	4002531e 	bne	r8,zero,21ac4 <___vfprintf_internal_r+0xe78>
   21178:	1003ad1e 	bne	r2,zero,22030 <___vfprintf_internal_r+0x13e4>
   2117c:	69c0004c 	andi	r7,r13,1
   21180:	3803f626 	beq	r7,zero,2215c <___vfprintf_internal_r+0x1510>
   21184:	00800c04 	movi	r2,48
   21188:	d88029c5 	stb	r2,167(sp)
   2118c:	dd4029c4 	addi	r21,sp,167
   21190:	00003606 	br	2126c <___vfprintf_internal_r+0x620>
   21194:	6b400414 	ori	r13,r13,16
   21198:	6880080c 	andi	r2,r13,32
   2119c:	1000e326 	beq	r2,zero,2152c <___vfprintf_internal_r+0x8e0>
   211a0:	d8c00717 	ldw	r3,28(sp)
   211a4:	0005883a 	mov	r2,zero
   211a8:	1d800017 	ldw	r22,0(r3)
   211ac:	1dc00117 	ldw	r23,4(r3)
   211b0:	18c00204 	addi	r3,r3,8
   211b4:	d8c00715 	stw	r3,28(sp)
   211b8:	00000906 	br	211e0 <___vfprintf_internal_r+0x594>
   211bc:	6b400414 	ori	r13,r13,16
   211c0:	6880080c 	andi	r2,r13,32
   211c4:	1000cd26 	beq	r2,zero,214fc <___vfprintf_internal_r+0x8b0>
   211c8:	d8c00717 	ldw	r3,28(sp)
   211cc:	00800044 	movi	r2,1
   211d0:	1d800017 	ldw	r22,0(r3)
   211d4:	1dc00117 	ldw	r23,4(r3)
   211d8:	18c00204 	addi	r3,r3,8
   211dc:	d8c00715 	stw	r3,28(sp)
   211e0:	0009883a 	mov	r4,zero
   211e4:	d9001645 	stb	r4,89(sp)
   211e8:	40ffffe0 	cmpeqi	r3,r8,-1
   211ec:	1800051e 	bne	r3,zero,21204 <___vfprintf_internal_r+0x5b8>
   211f0:	00ffdfc4 	movi	r3,-129
   211f4:	b5cab03a 	or	r5,r22,r23
   211f8:	68c6703a 	and	r3,r13,r3
   211fc:	283fdd26 	beq	r5,zero,21174 <___vfprintf_internal_r+0x528>
   21200:	181b883a 	mov	r13,r3
   21204:	10c00060 	cmpeqi	r3,r2,1
   21208:	1800db1e 	bne	r3,zero,21578 <___vfprintf_internal_r+0x92c>
   2120c:	108000a0 	cmpeqi	r2,r2,2
   21210:	1002331e 	bne	r2,zero,21ae0 <___vfprintf_internal_r+0xe94>
   21214:	882b883a 	mov	r21,r17
   21218:	b006d0fa 	srli	r3,r22,3
   2121c:	b80c977a 	slli	r6,r23,29
   21220:	b82ed0fa 	srli	r23,r23,3
   21224:	b58001cc 	andi	r22,r22,7
   21228:	b0800c04 	addi	r2,r22,48
   2122c:	30ecb03a 	or	r22,r6,r3
   21230:	a8bfffc5 	stb	r2,-1(r21)
   21234:	b5c6b03a 	or	r3,r22,r23
   21238:	a80b883a 	mov	r5,r21
   2123c:	ad7fffc4 	addi	r21,r21,-1
   21240:	183ff51e 	bne	r3,zero,21218 <___vfprintf_internal_r+0x5cc>
   21244:	68c0004c 	andi	r3,r13,1
   21248:	18023226 	beq	r3,zero,21b14 <___vfprintf_internal_r+0xec8>
   2124c:	10800c18 	cmpnei	r2,r2,48
   21250:	10023026 	beq	r2,zero,21b14 <___vfprintf_internal_r+0xec8>
   21254:	297fff84 	addi	r5,r5,-2
   21258:	00800c04 	movi	r2,48
   2125c:	a8bfffc5 	stb	r2,-1(r21)
   21260:	894fc83a 	sub	r7,r17,r5
   21264:	6807883a 	mov	r3,r13
   21268:	282b883a 	mov	r21,r5
   2126c:	4019883a 	mov	r12,r8
   21270:	41c0010e 	bge	r8,r7,21278 <___vfprintf_internal_r+0x62c>
   21274:	3819883a 	mov	r12,r7
   21278:	d8000815 	stw	zero,32(sp)
   2127c:	21003fcc 	andi	r4,r4,255
   21280:	2100201c 	xori	r4,r4,128
   21284:	213fe004 	addi	r4,r4,-128
   21288:	203f3826 	beq	r4,zero,20f6c <___vfprintf_internal_r+0x320>
   2128c:	63000044 	addi	r12,r12,1
   21290:	003f3606 	br	20f6c <___vfprintf_internal_r+0x320>
   21294:	852fc83a 	sub	r23,r16,r20
   21298:	853f7526 	beq	r16,r20,21070 <___vfprintf_internal_r+0x424>
   2129c:	dd801f17 	ldw	r22,124(sp)
   212a0:	d8801e17 	ldw	r2,120(sp)
   212a4:	95000015 	stw	r20,0(r18)
   212a8:	b5ed883a 	add	r22,r22,r23
   212ac:	10800044 	addi	r2,r2,1
   212b0:	d8801e15 	stw	r2,120(sp)
   212b4:	95c00115 	stw	r23,4(r18)
   212b8:	dd801f15 	stw	r22,124(sp)
   212bc:	10800208 	cmpgei	r2,r2,8
   212c0:	1000061e 	bne	r2,zero,212dc <___vfprintf_internal_r+0x690>
   212c4:	94800204 	addi	r18,r18,8
   212c8:	d8c00617 	ldw	r3,24(sp)
   212cc:	80800003 	ldbu	r2,0(r16)
   212d0:	1dc7883a 	add	r3,r3,r23
   212d4:	d8c00615 	stw	r3,24(sp)
   212d8:	003ea206 	br	20d64 <___vfprintf_internal_r+0x118>
   212dc:	d9400417 	ldw	r5,16(sp)
   212e0:	d9000517 	ldw	r4,20(sp)
   212e4:	d9801d04 	addi	r6,sp,116
   212e8:	00284400 	call	28440 <__sprint_r>
   212ec:	103f621e 	bne	r2,zero,21078 <___vfprintf_internal_r+0x42c>
   212f0:	8825883a 	mov	r18,r17
   212f4:	003ff406 	br	212c8 <___vfprintf_internal_r+0x67c>
   212f8:	05c000f4 	movhi	r23,3
   212fc:	e0c00450 	cmplti	r3,fp,17
   21300:	d8801e17 	ldw	r2,120(sp)
   21304:	bdc1bb04 	addi	r23,r23,1772
   21308:	18001e1e 	bne	r3,zero,21384 <___vfprintf_internal_r+0x738>
   2130c:	9007883a 	mov	r3,r18
   21310:	dd400517 	ldw	r21,20(sp)
   21314:	05800404 	movi	r22,16
   21318:	6025883a 	mov	r18,r12
   2131c:	00000406 	br	21330 <___vfprintf_internal_r+0x6e4>
   21320:	e73ffc04 	addi	fp,fp,-16
   21324:	e1400448 	cmpgei	r5,fp,17
   21328:	18c00204 	addi	r3,r3,8
   2132c:	28001326 	beq	r5,zero,2137c <___vfprintf_internal_r+0x730>
   21330:	10800044 	addi	r2,r2,1
   21334:	21000404 	addi	r4,r4,16
   21338:	1dc00015 	stw	r23,0(r3)
   2133c:	1d800115 	stw	r22,4(r3)
   21340:	d9001f15 	stw	r4,124(sp)
   21344:	d8801e15 	stw	r2,120(sp)
   21348:	11400208 	cmpgei	r5,r2,8
   2134c:	283ff426 	beq	r5,zero,21320 <___vfprintf_internal_r+0x6d4>
   21350:	d9400417 	ldw	r5,16(sp)
   21354:	d9801d04 	addi	r6,sp,116
   21358:	a809883a 	mov	r4,r21
   2135c:	00284400 	call	28440 <__sprint_r>
   21360:	103f451e 	bne	r2,zero,21078 <___vfprintf_internal_r+0x42c>
   21364:	e73ffc04 	addi	fp,fp,-16
   21368:	e1400448 	cmpgei	r5,fp,17
   2136c:	d9001f17 	ldw	r4,124(sp)
   21370:	d8801e17 	ldw	r2,120(sp)
   21374:	8807883a 	mov	r3,r17
   21378:	283fed1e 	bne	r5,zero,21330 <___vfprintf_internal_r+0x6e4>
   2137c:	9019883a 	mov	r12,r18
   21380:	1825883a 	mov	r18,r3
   21384:	10800044 	addi	r2,r2,1
   21388:	2709883a 	add	r4,r4,fp
   2138c:	d8801e15 	stw	r2,120(sp)
   21390:	95c00015 	stw	r23,0(r18)
   21394:	97000115 	stw	fp,4(r18)
   21398:	d9001f15 	stw	r4,124(sp)
   2139c:	10800210 	cmplti	r2,r2,8
   213a0:	103f291e 	bne	r2,zero,21048 <___vfprintf_internal_r+0x3fc>
   213a4:	d9400417 	ldw	r5,16(sp)
   213a8:	d9000517 	ldw	r4,20(sp)
   213ac:	d9801d04 	addi	r6,sp,116
   213b0:	db000815 	stw	r12,32(sp)
   213b4:	00284400 	call	28440 <__sprint_r>
   213b8:	103f2f1e 	bne	r2,zero,21078 <___vfprintf_internal_r+0x42c>
   213bc:	d9001f17 	ldw	r4,124(sp)
   213c0:	db000817 	ldw	r12,32(sp)
   213c4:	003f2006 	br	21048 <___vfprintf_internal_r+0x3fc>
   213c8:	d8c00717 	ldw	r3,28(sp)
   213cc:	6880020c 	andi	r2,r13,8
   213d0:	19000204 	addi	r4,r3,8
   213d4:	d9000f15 	stw	r4,60(sp)
   213d8:	1003621e 	bne	r2,zero,22164 <___vfprintf_internal_r+0x1518>
   213dc:	d8800717 	ldw	r2,28(sp)
   213e0:	10c00017 	ldw	r3,0(r2)
   213e4:	10800117 	ldw	r2,4(r2)
   213e8:	d8c00a15 	stw	r3,40(sp)
   213ec:	d8800b15 	stw	r2,44(sp)
   213f0:	ddc00b17 	ldw	r23,44(sp)
   213f4:	dd800a17 	ldw	r22,40(sp)
   213f8:	00a00034 	movhi	r2,32768
   213fc:	10bfffc4 	addi	r2,r2,-1
   21400:	b8aa703a 	and	r21,r23,r2
   21404:	01dffc34 	movhi	r7,32752
   21408:	01bfffc4 	movi	r6,-1
   2140c:	39ffffc4 	addi	r7,r7,-1
   21410:	b009883a 	mov	r4,r22
   21414:	a80b883a 	mov	r5,r21
   21418:	da000815 	stw	r8,32(sp)
   2141c:	db400715 	stw	r13,28(sp)
   21420:	002d7800 	call	2d780 <__unorddf2>
   21424:	db400717 	ldw	r13,28(sp)
   21428:	da000817 	ldw	r8,32(sp)
   2142c:	10044f1e 	bne	r2,zero,2256c <___vfprintf_internal_r+0x1920>
   21430:	01dffc34 	movhi	r7,32752
   21434:	01bfffc4 	movi	r6,-1
   21438:	39ffffc4 	addi	r7,r7,-1
   2143c:	b009883a 	mov	r4,r22
   21440:	a80b883a 	mov	r5,r21
   21444:	002c6140 	call	2c614 <__ledf2>
   21448:	db400717 	ldw	r13,28(sp)
   2144c:	da000817 	ldw	r8,32(sp)
   21450:	0084460e 	bge	zero,r2,2256c <___vfprintf_internal_r+0x1920>
   21454:	000d883a 	mov	r6,zero
   21458:	000f883a 	mov	r7,zero
   2145c:	b009883a 	mov	r4,r22
   21460:	b80b883a 	mov	r5,r23
   21464:	002c6140 	call	2c614 <__ledf2>
   21468:	db400717 	ldw	r13,28(sp)
   2146c:	10052616 	blt	r2,zero,22908 <___vfprintf_internal_r+0x1cbc>
   21470:	d9001643 	ldbu	r4,89(sp)
   21474:	e0801210 	cmplti	r2,fp,72
   21478:	1005091e 	bne	r2,zero,228a0 <___vfprintf_internal_r+0x1c54>
   2147c:	054000f4 	movhi	r21,3
   21480:	ad41a704 	addi	r21,r21,1692
   21484:	d8800f17 	ldw	r2,60(sp)
   21488:	00ffdfc4 	movi	r3,-129
   2148c:	68c6703a 	and	r3,r13,r3
   21490:	d8800715 	stw	r2,28(sp)
   21494:	030000c4 	movi	r12,3
   21498:	01c000c4 	movi	r7,3
   2149c:	0011883a 	mov	r8,zero
   214a0:	d8000815 	stw	zero,32(sp)
   214a4:	003f7506 	br	2127c <___vfprintf_internal_r+0x630>
   214a8:	d8c00717 	ldw	r3,28(sp)
   214ac:	6880040c 	andi	r2,r13,16
   214b0:	1d800017 	ldw	r22,0(r3)
   214b4:	18c00104 	addi	r3,r3,4
   214b8:	d8c00715 	stw	r3,28(sp)
   214bc:	10002a1e 	bne	r2,zero,21568 <___vfprintf_internal_r+0x91c>
   214c0:	6880100c 	andi	r2,r13,64
   214c4:	10002826 	beq	r2,zero,21568 <___vfprintf_internal_r+0x91c>
   214c8:	b5bfffcc 	andi	r22,r22,65535
   214cc:	b5a0001c 	xori	r22,r22,32768
   214d0:	b5a00004 	addi	r22,r22,-32768
   214d4:	b02fd7fa 	srai	r23,r22,31
   214d8:	b805883a 	mov	r2,r23
   214dc:	103f1d0e 	bge	r2,zero,21154 <___vfprintf_internal_r+0x508>
   214e0:	b004c03a 	cmpne	r2,r22,zero
   214e4:	05efc83a 	sub	r23,zero,r23
   214e8:	b8afc83a 	sub	r23,r23,r2
   214ec:	05adc83a 	sub	r22,zero,r22
   214f0:	01000b44 	movi	r4,45
   214f4:	00800044 	movi	r2,1
   214f8:	003f3a06 	br	211e4 <___vfprintf_internal_r+0x598>
   214fc:	d8c00717 	ldw	r3,28(sp)
   21500:	6880040c 	andi	r2,r13,16
   21504:	1d800017 	ldw	r22,0(r3)
   21508:	18c00104 	addi	r3,r3,4
   2150c:	d8c00715 	stw	r3,28(sp)
   21510:	1000031e 	bne	r2,zero,21520 <___vfprintf_internal_r+0x8d4>
   21514:	6880100c 	andi	r2,r13,64
   21518:	10000126 	beq	r2,zero,21520 <___vfprintf_internal_r+0x8d4>
   2151c:	b5bfffcc 	andi	r22,r22,65535
   21520:	002f883a 	mov	r23,zero
   21524:	00800044 	movi	r2,1
   21528:	003f2d06 	br	211e0 <___vfprintf_internal_r+0x594>
   2152c:	d8c00717 	ldw	r3,28(sp)
   21530:	6880040c 	andi	r2,r13,16
   21534:	1d800017 	ldw	r22,0(r3)
   21538:	18c00104 	addi	r3,r3,4
   2153c:	d8c00715 	stw	r3,28(sp)
   21540:	1000031e 	bne	r2,zero,21550 <___vfprintf_internal_r+0x904>
   21544:	6880100c 	andi	r2,r13,64
   21548:	10000126 	beq	r2,zero,21550 <___vfprintf_internal_r+0x904>
   2154c:	b5bfffcc 	andi	r22,r22,65535
   21550:	002f883a 	mov	r23,zero
   21554:	0005883a 	mov	r2,zero
   21558:	003f2106 	br	211e0 <___vfprintf_internal_r+0x594>
   2155c:	d9000517 	ldw	r4,20(sp)
   21560:	00252240 	call	25224 <__sinit>
   21564:	003dd206 	br	20cb0 <___vfprintf_internal_r+0x64>
   21568:	b02fd7fa 	srai	r23,r22,31
   2156c:	b805883a 	mov	r2,r23
   21570:	003ef706 	br	21150 <___vfprintf_internal_r+0x504>
   21574:	181b883a 	mov	r13,r3
   21578:	b803681e 	bne	r23,zero,2231c <___vfprintf_internal_r+0x16d0>
   2157c:	b08002a8 	cmpgeui	r2,r22,10
   21580:	1003661e 	bne	r2,zero,2231c <___vfprintf_internal_r+0x16d0>
   21584:	b5800c04 	addi	r22,r22,48
   21588:	dd8029c5 	stb	r22,167(sp)
   2158c:	6807883a 	mov	r3,r13
   21590:	01c00044 	movi	r7,1
   21594:	dd4029c4 	addi	r21,sp,167
   21598:	003f3406 	br	2126c <___vfprintf_internal_r+0x620>
   2159c:	d8800717 	ldw	r2,28(sp)
   215a0:	14000017 	ldw	r16,0(r2)
   215a4:	10800104 	addi	r2,r2,4
   215a8:	8002e90e 	bge	r16,zero,22150 <___vfprintf_internal_r+0x1504>
   215ac:	0421c83a 	sub	r16,zero,r16
   215b0:	d8800715 	stw	r2,28(sp)
   215b4:	a2c00007 	ldb	r11,0(r20)
   215b8:	6b400114 	ori	r13,r13,4
   215bc:	003df306 	br	20d8c <___vfprintf_internal_r+0x140>
   215c0:	a7000007 	ldb	fp,0(r20)
   215c4:	a0c00044 	addi	r3,r20,1
   215c8:	e0800aa0 	cmpeqi	r2,fp,42
   215cc:	10066f1e 	bne	r2,zero,22f8c <___vfprintf_internal_r+0x2340>
   215d0:	e0bff404 	addi	r2,fp,-48
   215d4:	110002b0 	cmpltui	r4,r2,10
   215d8:	1829883a 	mov	r20,r3
   215dc:	0011883a 	mov	r8,zero
   215e0:	203dec26 	beq	r4,zero,20d94 <___vfprintf_internal_r+0x148>
   215e4:	a7000007 	ldb	fp,0(r20)
   215e8:	420002a4 	muli	r8,r8,10
   215ec:	a5000044 	addi	r20,r20,1
   215f0:	4091883a 	add	r8,r8,r2
   215f4:	e0bff404 	addi	r2,fp,-48
   215f8:	10c002b0 	cmpltui	r3,r2,10
   215fc:	183ff91e 	bne	r3,zero,215e4 <___vfprintf_internal_r+0x998>
   21600:	003de406 	br	20d94 <___vfprintf_internal_r+0x148>
   21604:	a2c00007 	ldb	r11,0(r20)
   21608:	6b402014 	ori	r13,r13,128
   2160c:	003ddf06 	br	20d8c <___vfprintf_internal_r+0x140>
   21610:	00800ac4 	movi	r2,43
   21614:	a2c00007 	ldb	r11,0(r20)
   21618:	d8801645 	stb	r2,89(sp)
   2161c:	003ddb06 	br	20d8c <___vfprintf_internal_r+0x140>
   21620:	a2c00007 	ldb	r11,0(r20)
   21624:	6b400054 	ori	r13,r13,1
   21628:	003dd806 	br	20d8c <___vfprintf_internal_r+0x140>
   2162c:	d8801647 	ldb	r2,89(sp)
   21630:	a7000003 	ldbu	fp,0(r20)
   21634:	10000c1e 	bne	r2,zero,21668 <___vfprintf_internal_r+0xa1c>
   21638:	e2c03fcc 	andi	r11,fp,255
   2163c:	00800804 	movi	r2,32
   21640:	5ac0201c 	xori	r11,r11,128
   21644:	d8801645 	stb	r2,89(sp)
   21648:	5affe004 	addi	r11,r11,-128
   2164c:	003dcf06 	br	20d8c <___vfprintf_internal_r+0x140>
   21650:	a2c00007 	ldb	r11,0(r20)
   21654:	58801b18 	cmpnei	r2,r11,108
   21658:	1002bb1e 	bne	r2,zero,22148 <___vfprintf_internal_r+0x14fc>
   2165c:	a7000043 	ldbu	fp,1(r20)
   21660:	6b400814 	ori	r13,r13,32
   21664:	a5000044 	addi	r20,r20,1
   21668:	e2c03fcc 	andi	r11,fp,255
   2166c:	5ac0201c 	xori	r11,r11,128
   21670:	5affe004 	addi	r11,r11,-128
   21674:	003dc506 	br	20d8c <___vfprintf_internal_r+0x140>
   21678:	a2c00007 	ldb	r11,0(r20)
   2167c:	6b400214 	ori	r13,r13,8
   21680:	003dc206 	br	20d8c <___vfprintf_internal_r+0x140>
   21684:	a2c00007 	ldb	r11,0(r20)
   21688:	6b401014 	ori	r13,r13,64
   2168c:	003dbf06 	br	20d8c <___vfprintf_internal_r+0x140>
   21690:	d8c00717 	ldw	r3,28(sp)
   21694:	d8001645 	stb	zero,89(sp)
   21698:	03000044 	movi	r12,1
   2169c:	18800017 	ldw	r2,0(r3)
   216a0:	18c00104 	addi	r3,r3,4
   216a4:	d8c00715 	stw	r3,28(sp)
   216a8:	d8802005 	stb	r2,128(sp)
   216ac:	01c00044 	movi	r7,1
   216b0:	dd402004 	addi	r21,sp,128
   216b4:	003e2a06 	br	20f60 <___vfprintf_internal_r+0x314>
   216b8:	d8800717 	ldw	r2,28(sp)
   216bc:	d8001645 	stb	zero,89(sp)
   216c0:	15400017 	ldw	r21,0(r2)
   216c4:	15800104 	addi	r22,r2,4
   216c8:	a802e226 	beq	r21,zero,22254 <___vfprintf_internal_r+0x1608>
   216cc:	db400815 	stw	r13,32(sp)
   216d0:	40bfffe0 	cmpeqi	r2,r8,-1
   216d4:	10046b1e 	bne	r2,zero,22884 <___vfprintf_internal_r+0x1c38>
   216d8:	400d883a 	mov	r6,r8
   216dc:	000b883a 	mov	r5,zero
   216e0:	a809883a 	mov	r4,r21
   216e4:	da000715 	stw	r8,28(sp)
   216e8:	002667c0 	call	2667c <memchr>
   216ec:	da000717 	ldw	r8,28(sp)
   216f0:	db400817 	ldw	r13,32(sp)
   216f4:	1005b126 	beq	r2,zero,22dbc <___vfprintf_internal_r+0x2170>
   216f8:	154fc83a 	sub	r7,r2,r21
   216fc:	3819883a 	mov	r12,r7
   21700:	dd800715 	stw	r22,28(sp)
   21704:	003e1606 	br	20f60 <___vfprintf_internal_r+0x314>
   21708:	a2c00007 	ldb	r11,0(r20)
   2170c:	6b400814 	ori	r13,r13,32
   21710:	003d9e06 	br	20d8c <___vfprintf_internal_r+0x140>
   21714:	d8c00717 	ldw	r3,28(sp)
   21718:	009e0c04 	movi	r2,30768
   2171c:	010000f4 	movhi	r4,3
   21720:	d880168d 	sth	r2,90(sp)
   21724:	18800104 	addi	r2,r3,4
   21728:	d8800715 	stw	r2,28(sp)
   2172c:	2081af04 	addi	r2,r4,1724
   21730:	d8800e15 	stw	r2,56(sp)
   21734:	1d800017 	ldw	r22,0(r3)
   21738:	002f883a 	mov	r23,zero
   2173c:	6b400094 	ori	r13,r13,2
   21740:	00800084 	movi	r2,2
   21744:	07001e04 	movi	fp,120
   21748:	003ea506 	br	211e0 <___vfprintf_internal_r+0x594>
   2174c:	6880080c 	andi	r2,r13,32
   21750:	10028926 	beq	r2,zero,22178 <___vfprintf_internal_r+0x152c>
   21754:	d9000617 	ldw	r4,24(sp)
   21758:	d8800717 	ldw	r2,28(sp)
   2175c:	2007d7fa 	srai	r3,r4,31
   21760:	10800017 	ldw	r2,0(r2)
   21764:	11000015 	stw	r4,0(r2)
   21768:	10c00115 	stw	r3,4(r2)
   2176c:	d8800717 	ldw	r2,28(sp)
   21770:	10800104 	addi	r2,r2,4
   21774:	d8800715 	stw	r2,28(sp)
   21778:	003d6e06 	br	20d34 <___vfprintf_internal_r+0xe8>
   2177c:	e2c01990 	cmplti	r11,fp,102
   21780:	5800ed1e 	bne	r11,zero,21b38 <___vfprintf_internal_r+0xeec>
   21784:	d9000a17 	ldw	r4,40(sp)
   21788:	d9400b17 	ldw	r5,44(sp)
   2178c:	000d883a 	mov	r6,zero
   21790:	000f883a 	mov	r7,zero
   21794:	db001015 	stw	r12,64(sp)
   21798:	d8c00f15 	stw	r3,60(sp)
   2179c:	002c4840 	call	2c484 <__eqdf2>
   217a0:	d8c00f17 	ldw	r3,60(sp)
   217a4:	db001017 	ldw	r12,64(sp)
   217a8:	1001a61e 	bne	r2,zero,21e44 <___vfprintf_internal_r+0x11f8>
   217ac:	d8801e17 	ldw	r2,120(sp)
   217b0:	010000f4 	movhi	r4,3
   217b4:	2101b604 	addi	r4,r4,1752
   217b8:	10800044 	addi	r2,r2,1
   217bc:	b5800044 	addi	r22,r22,1
   217c0:	91000015 	stw	r4,0(r18)
   217c4:	01000044 	movi	r4,1
   217c8:	d8801e15 	stw	r2,120(sp)
   217cc:	91000115 	stw	r4,4(r18)
   217d0:	dd801f15 	stw	r22,124(sp)
   217d4:	10800208 	cmpgei	r2,r2,8
   217d8:	1003c41e 	bne	r2,zero,226ec <___vfprintf_internal_r+0x1aa0>
   217dc:	94800204 	addi	r18,r18,8
   217e0:	d8801717 	ldw	r2,92(sp)
   217e4:	d9000917 	ldw	r4,36(sp)
   217e8:	11000416 	blt	r2,r4,217fc <___vfprintf_internal_r+0xbb0>
   217ec:	1880004c 	andi	r2,r3,1
   217f0:	1000021e 	bne	r2,zero,217fc <___vfprintf_internal_r+0xbb0>
   217f4:	b009883a 	mov	r4,r22
   217f8:	003e0f06 	br	21038 <___vfprintf_internal_r+0x3ec>
   217fc:	d8800d17 	ldw	r2,52(sp)
   21800:	d9400c17 	ldw	r5,48(sp)
   21804:	90800015 	stw	r2,0(r18)
   21808:	d8801e17 	ldw	r2,120(sp)
   2180c:	2d89883a 	add	r4,r5,r22
   21810:	91400115 	stw	r5,4(r18)
   21814:	10800044 	addi	r2,r2,1
   21818:	d8801e15 	stw	r2,120(sp)
   2181c:	d9001f15 	stw	r4,124(sp)
   21820:	10800208 	cmpgei	r2,r2,8
   21824:	10026b1e 	bne	r2,zero,221d4 <___vfprintf_internal_r+0x1588>
   21828:	94800204 	addi	r18,r18,8
   2182c:	d8800917 	ldw	r2,36(sp)
   21830:	15ffffc4 	addi	r23,r2,-1
   21834:	05fe000e 	bge	zero,r23,21038 <___vfprintf_internal_r+0x3ec>
   21838:	058000f4 	movhi	r22,3
   2183c:	b9400450 	cmplti	r5,r23,17
   21840:	d8801e17 	ldw	r2,120(sp)
   21844:	b581b704 	addi	r22,r22,1756
   21848:	2801441e 	bne	r5,zero,21d5c <___vfprintf_internal_r+0x1110>
   2184c:	900d883a 	mov	r6,r18
   21850:	980b883a 	mov	r5,r19
   21854:	1825883a 	mov	r18,r3
   21858:	b02b883a 	mov	r21,r22
   2185c:	8027883a 	mov	r19,r16
   21860:	a02d883a 	mov	r22,r20
   21864:	b821883a 	mov	r16,r23
   21868:	07000404 	movi	fp,16
   2186c:	6029883a 	mov	r20,r12
   21870:	282f883a 	mov	r23,r5
   21874:	3007883a 	mov	r3,r6
   21878:	00000406 	br	2188c <___vfprintf_internal_r+0xc40>
   2187c:	18c00204 	addi	r3,r3,8
   21880:	843ffc04 	addi	r16,r16,-16
   21884:	81400448 	cmpgei	r5,r16,17
   21888:	28012a26 	beq	r5,zero,21d34 <___vfprintf_internal_r+0x10e8>
   2188c:	10800044 	addi	r2,r2,1
   21890:	21000404 	addi	r4,r4,16
   21894:	1d400015 	stw	r21,0(r3)
   21898:	1f000115 	stw	fp,4(r3)
   2189c:	d9001f15 	stw	r4,124(sp)
   218a0:	d8801e15 	stw	r2,120(sp)
   218a4:	11400208 	cmpgei	r5,r2,8
   218a8:	283ff426 	beq	r5,zero,2187c <___vfprintf_internal_r+0xc30>
   218ac:	d9400417 	ldw	r5,16(sp)
   218b0:	d9000517 	ldw	r4,20(sp)
   218b4:	d9801d04 	addi	r6,sp,116
   218b8:	00284400 	call	28440 <__sprint_r>
   218bc:	103dee1e 	bne	r2,zero,21078 <___vfprintf_internal_r+0x42c>
   218c0:	d9001f17 	ldw	r4,124(sp)
   218c4:	d8801e17 	ldw	r2,120(sp)
   218c8:	8807883a 	mov	r3,r17
   218cc:	003fec06 	br	21880 <___vfprintf_internal_r+0xc34>
   218d0:	832fc83a 	sub	r23,r16,r12
   218d4:	05fdca0e 	bge	zero,r23,21000 <___vfprintf_internal_r+0x3b4>
   218d8:	b009883a 	mov	r4,r22
   218dc:	b9400450 	cmplti	r5,r23,17
   218e0:	058000f4 	movhi	r22,3
   218e4:	d8801e17 	ldw	r2,120(sp)
   218e8:	b581b704 	addi	r22,r22,1756
   218ec:	28002e1e 	bne	r5,zero,219a8 <___vfprintf_internal_r+0xd5c>
   218f0:	d8c00f15 	stw	r3,60(sp)
   218f4:	dc001015 	stw	r16,64(sp)
   218f8:	9007883a 	mov	r3,r18
   218fc:	b821883a 	mov	r16,r23
   21900:	b025883a 	mov	r18,r22
   21904:	982f883a 	mov	r23,r19
   21908:	a02d883a 	mov	r22,r20
   2190c:	03400404 	movi	r13,16
   21910:	da001215 	stw	r8,72(sp)
   21914:	6029883a 	mov	r20,r12
   21918:	3827883a 	mov	r19,r7
   2191c:	00000406 	br	21930 <___vfprintf_internal_r+0xce4>
   21920:	843ffc04 	addi	r16,r16,-16
   21924:	81400448 	cmpgei	r5,r16,17
   21928:	18c00204 	addi	r3,r3,8
   2192c:	28001426 	beq	r5,zero,21980 <___vfprintf_internal_r+0xd34>
   21930:	10800044 	addi	r2,r2,1
   21934:	21000404 	addi	r4,r4,16
   21938:	1c800015 	stw	r18,0(r3)
   2193c:	1b400115 	stw	r13,4(r3)
   21940:	d9001f15 	stw	r4,124(sp)
   21944:	d8801e15 	stw	r2,120(sp)
   21948:	11400208 	cmpgei	r5,r2,8
   2194c:	283ff426 	beq	r5,zero,21920 <___vfprintf_internal_r+0xcd4>
   21950:	d9400417 	ldw	r5,16(sp)
   21954:	d9000517 	ldw	r4,20(sp)
   21958:	d9801d04 	addi	r6,sp,116
   2195c:	00284400 	call	28440 <__sprint_r>
   21960:	103dc51e 	bne	r2,zero,21078 <___vfprintf_internal_r+0x42c>
   21964:	843ffc04 	addi	r16,r16,-16
   21968:	81400448 	cmpgei	r5,r16,17
   2196c:	d9001f17 	ldw	r4,124(sp)
   21970:	d8801e17 	ldw	r2,120(sp)
   21974:	8807883a 	mov	r3,r17
   21978:	03400404 	movi	r13,16
   2197c:	283fec1e 	bne	r5,zero,21930 <___vfprintf_internal_r+0xce4>
   21980:	980f883a 	mov	r7,r19
   21984:	a019883a 	mov	r12,r20
   21988:	b827883a 	mov	r19,r23
   2198c:	b029883a 	mov	r20,r22
   21990:	802f883a 	mov	r23,r16
   21994:	902d883a 	mov	r22,r18
   21998:	da001217 	ldw	r8,72(sp)
   2199c:	1825883a 	mov	r18,r3
   219a0:	dc001017 	ldw	r16,64(sp)
   219a4:	d8c00f17 	ldw	r3,60(sp)
   219a8:	10800044 	addi	r2,r2,1
   219ac:	b909883a 	add	r4,r23,r4
   219b0:	d8801e15 	stw	r2,120(sp)
   219b4:	95800015 	stw	r22,0(r18)
   219b8:	95c00115 	stw	r23,4(r18)
   219bc:	d9001f15 	stw	r4,124(sp)
   219c0:	10800208 	cmpgei	r2,r2,8
   219c4:	1003621e 	bne	r2,zero,22750 <___vfprintf_internal_r+0x1b04>
   219c8:	41efc83a 	sub	r23,r8,r7
   219cc:	94800204 	addi	r18,r18,8
   219d0:	202d883a 	mov	r22,r4
   219d4:	05fd8c0e 	bge	zero,r23,21008 <___vfprintf_internal_r+0x3bc>
   219d8:	b9400450 	cmplti	r5,r23,17
   219dc:	d8801e17 	ldw	r2,120(sp)
   219e0:	b009883a 	mov	r4,r22
   219e4:	2803b11e 	bne	r5,zero,228ac <___vfprintf_internal_r+0x1c60>
   219e8:	d8c00f15 	stw	r3,60(sp)
   219ec:	dc001015 	stw	r16,64(sp)
   219f0:	9007883a 	mov	r3,r18
   219f4:	b821883a 	mov	r16,r23
   219f8:	a02d883a 	mov	r22,r20
   219fc:	982f883a 	mov	r23,r19
   21a00:	9825883a 	mov	r18,r19
   21a04:	02000404 	movi	r8,16
   21a08:	6029883a 	mov	r20,r12
   21a0c:	3827883a 	mov	r19,r7
   21a10:	00000406 	br	21a24 <___vfprintf_internal_r+0xdd8>
   21a14:	843ffc04 	addi	r16,r16,-16
   21a18:	81400448 	cmpgei	r5,r16,17
   21a1c:	18c00204 	addi	r3,r3,8
   21a20:	28001426 	beq	r5,zero,21a74 <___vfprintf_internal_r+0xe28>
   21a24:	10800044 	addi	r2,r2,1
   21a28:	21000404 	addi	r4,r4,16
   21a2c:	1c800015 	stw	r18,0(r3)
   21a30:	1a000115 	stw	r8,4(r3)
   21a34:	d9001f15 	stw	r4,124(sp)
   21a38:	d8801e15 	stw	r2,120(sp)
   21a3c:	11400208 	cmpgei	r5,r2,8
   21a40:	283ff426 	beq	r5,zero,21a14 <___vfprintf_internal_r+0xdc8>
   21a44:	d9400417 	ldw	r5,16(sp)
   21a48:	d9000517 	ldw	r4,20(sp)
   21a4c:	d9801d04 	addi	r6,sp,116
   21a50:	00284400 	call	28440 <__sprint_r>
   21a54:	103d881e 	bne	r2,zero,21078 <___vfprintf_internal_r+0x42c>
   21a58:	843ffc04 	addi	r16,r16,-16
   21a5c:	81400448 	cmpgei	r5,r16,17
   21a60:	d9001f17 	ldw	r4,124(sp)
   21a64:	d8801e17 	ldw	r2,120(sp)
   21a68:	8807883a 	mov	r3,r17
   21a6c:	02000404 	movi	r8,16
   21a70:	283fec1e 	bne	r5,zero,21a24 <___vfprintf_internal_r+0xdd8>
   21a74:	980f883a 	mov	r7,r19
   21a78:	a019883a 	mov	r12,r20
   21a7c:	9027883a 	mov	r19,r18
   21a80:	b029883a 	mov	r20,r22
   21a84:	1825883a 	mov	r18,r3
   21a88:	b82d883a 	mov	r22,r23
   21a8c:	d8c00f17 	ldw	r3,60(sp)
   21a90:	802f883a 	mov	r23,r16
   21a94:	dc001017 	ldw	r16,64(sp)
   21a98:	10800044 	addi	r2,r2,1
   21a9c:	b909883a 	add	r4,r23,r4
   21aa0:	d8801e15 	stw	r2,120(sp)
   21aa4:	95800015 	stw	r22,0(r18)
   21aa8:	95c00115 	stw	r23,4(r18)
   21aac:	d9001f15 	stw	r4,124(sp)
   21ab0:	10800208 	cmpgei	r2,r2,8
   21ab4:	10018a1e 	bne	r2,zero,220e0 <___vfprintf_internal_r+0x1494>
   21ab8:	94800204 	addi	r18,r18,8
   21abc:	202d883a 	mov	r22,r4
   21ac0:	003d5106 	br	21008 <___vfprintf_internal_r+0x3bc>
   21ac4:	11400060 	cmpeqi	r5,r2,1
   21ac8:	181b883a 	mov	r13,r3
   21acc:	002d883a 	mov	r22,zero
   21ad0:	283eac1e 	bne	r5,zero,21584 <___vfprintf_internal_r+0x938>
   21ad4:	108000a0 	cmpeqi	r2,r2,2
   21ad8:	002f883a 	mov	r23,zero
   21adc:	103dcd26 	beq	r2,zero,21214 <___vfprintf_internal_r+0x5c8>
   21ae0:	d9400e17 	ldw	r5,56(sp)
   21ae4:	882b883a 	mov	r21,r17
   21ae8:	b08003cc 	andi	r2,r22,15
   21aec:	b806973a 	slli	r3,r23,28
   21af0:	b02cd13a 	srli	r22,r22,4
   21af4:	2885883a 	add	r2,r5,r2
   21af8:	10800003 	ldbu	r2,0(r2)
   21afc:	b82ed13a 	srli	r23,r23,4
   21b00:	1dacb03a 	or	r22,r3,r22
   21b04:	a8bfffc5 	stb	r2,-1(r21)
   21b08:	b5c4b03a 	or	r2,r22,r23
   21b0c:	ad7fffc4 	addi	r21,r21,-1
   21b10:	103ff51e 	bne	r2,zero,21ae8 <___vfprintf_internal_r+0xe9c>
   21b14:	8d4fc83a 	sub	r7,r17,r21
   21b18:	6807883a 	mov	r3,r13
   21b1c:	003dd306 	br	2126c <___vfprintf_internal_r+0x620>
   21b20:	d9400417 	ldw	r5,16(sp)
   21b24:	d9000517 	ldw	r4,20(sp)
   21b28:	d9801d04 	addi	r6,sp,116
   21b2c:	00284400 	call	28440 <__sprint_r>
   21b30:	103d4b26 	beq	r2,zero,21060 <___vfprintf_internal_r+0x414>
   21b34:	003d5006 	br	21078 <___vfprintf_internal_r+0x42c>
   21b38:	d8800917 	ldw	r2,36(sp)
   21b3c:	95c00204 	addi	r23,r18,8
   21b40:	10800088 	cmpgei	r2,r2,2
   21b44:	10012126 	beq	r2,zero,21fcc <___vfprintf_internal_r+0x1380>
   21b48:	da001e17 	ldw	r8,120(sp)
   21b4c:	00800044 	movi	r2,1
   21b50:	b5800044 	addi	r22,r22,1
   21b54:	42000044 	addi	r8,r8,1
   21b58:	90800115 	stw	r2,4(r18)
   21b5c:	95400015 	stw	r21,0(r18)
   21b60:	dd801f15 	stw	r22,124(sp)
   21b64:	da001e15 	stw	r8,120(sp)
   21b68:	40800210 	cmplti	r2,r8,8
   21b6c:	10022a26 	beq	r2,zero,22418 <___vfprintf_internal_r+0x17cc>
   21b70:	d8800c17 	ldw	r2,48(sp)
   21b74:	d9000d17 	ldw	r4,52(sp)
   21b78:	42000044 	addi	r8,r8,1
   21b7c:	15b9883a 	add	fp,r2,r22
   21b80:	b8800115 	stw	r2,4(r23)
   21b84:	b9000015 	stw	r4,0(r23)
   21b88:	df001f15 	stw	fp,124(sp)
   21b8c:	da001e15 	stw	r8,120(sp)
   21b90:	40800208 	cmpgei	r2,r8,8
   21b94:	10022d1e 	bne	r2,zero,2244c <___vfprintf_internal_r+0x1800>
   21b98:	bdc00204 	addi	r23,r23,8
   21b9c:	d9000a17 	ldw	r4,40(sp)
   21ba0:	d9400b17 	ldw	r5,44(sp)
   21ba4:	000d883a 	mov	r6,zero
   21ba8:	000f883a 	mov	r7,zero
   21bac:	db001015 	stw	r12,64(sp)
   21bb0:	d8c00f15 	stw	r3,60(sp)
   21bb4:	da000815 	stw	r8,32(sp)
   21bb8:	002c4840 	call	2c484 <__eqdf2>
   21bbc:	d8c00917 	ldw	r3,36(sp)
   21bc0:	da000817 	ldw	r8,32(sp)
   21bc4:	db001017 	ldw	r12,64(sp)
   21bc8:	1cbfffc4 	addi	r18,r3,-1
   21bcc:	d8c00f17 	ldw	r3,60(sp)
   21bd0:	10011a26 	beq	r2,zero,2203c <___vfprintf_internal_r+0x13f0>
   21bd4:	aa400044 	addi	r9,r21,1
   21bd8:	42000044 	addi	r8,r8,1
   21bdc:	e4b9883a 	add	fp,fp,r18
   21be0:	ba400015 	stw	r9,0(r23)
   21be4:	bc800115 	stw	r18,4(r23)
   21be8:	df001f15 	stw	fp,124(sp)
   21bec:	da001e15 	stw	r8,120(sp)
   21bf0:	40800208 	cmpgei	r2,r8,8
   21bf4:	1002c91e 	bne	r2,zero,2271c <___vfprintf_internal_r+0x1ad0>
   21bf8:	bdc00204 	addi	r23,r23,8
   21bfc:	d9401117 	ldw	r5,68(sp)
   21c00:	42000044 	addi	r8,r8,1
   21c04:	d8801904 	addi	r2,sp,100
   21c08:	2f09883a 	add	r4,r5,fp
   21c0c:	da001e15 	stw	r8,120(sp)
   21c10:	b8800015 	stw	r2,0(r23)
   21c14:	b9400115 	stw	r5,4(r23)
   21c18:	d9001f15 	stw	r4,124(sp)
   21c1c:	42000208 	cmpgei	r8,r8,8
   21c20:	40013d1e 	bne	r8,zero,22118 <___vfprintf_internal_r+0x14cc>
   21c24:	bc800204 	addi	r18,r23,8
   21c28:	003d0306 	br	21038 <___vfprintf_internal_r+0x3ec>
   21c2c:	05c000f4 	movhi	r23,3
   21c30:	b1400450 	cmplti	r5,r22,17
   21c34:	d9001f17 	ldw	r4,124(sp)
   21c38:	d8801e17 	ldw	r2,120(sp)
   21c3c:	bdc1bb04 	addi	r23,r23,1772
   21c40:	2800321e 	bne	r5,zero,21d0c <___vfprintf_internal_r+0x10c0>
   21c44:	d8c01215 	stw	r3,72(sp)
   21c48:	dc001315 	stw	r16,76(sp)
   21c4c:	9007883a 	mov	r3,r18
   21c50:	b021883a 	mov	r16,r22
   21c54:	b825883a 	mov	r18,r23
   21c58:	a02d883a 	mov	r22,r20
   21c5c:	982f883a 	mov	r23,r19
   21c60:	03c00404 	movi	r15,16
   21c64:	db800f15 	stw	r14,60(sp)
   21c68:	db401015 	stw	r13,64(sp)
   21c6c:	da001415 	stw	r8,80(sp)
   21c70:	6029883a 	mov	r20,r12
   21c74:	3827883a 	mov	r19,r7
   21c78:	00000406 	br	21c8c <___vfprintf_internal_r+0x1040>
   21c7c:	843ffc04 	addi	r16,r16,-16
   21c80:	81400448 	cmpgei	r5,r16,17
   21c84:	18c00204 	addi	r3,r3,8
   21c88:	28001426 	beq	r5,zero,21cdc <___vfprintf_internal_r+0x1090>
   21c8c:	10800044 	addi	r2,r2,1
   21c90:	21000404 	addi	r4,r4,16
   21c94:	1c800015 	stw	r18,0(r3)
   21c98:	1bc00115 	stw	r15,4(r3)
   21c9c:	d9001f15 	stw	r4,124(sp)
   21ca0:	d8801e15 	stw	r2,120(sp)
   21ca4:	11400208 	cmpgei	r5,r2,8
   21ca8:	283ff426 	beq	r5,zero,21c7c <___vfprintf_internal_r+0x1030>
   21cac:	d9400417 	ldw	r5,16(sp)
   21cb0:	d9000517 	ldw	r4,20(sp)
   21cb4:	d9801d04 	addi	r6,sp,116
   21cb8:	00284400 	call	28440 <__sprint_r>
   21cbc:	103cee1e 	bne	r2,zero,21078 <___vfprintf_internal_r+0x42c>
   21cc0:	843ffc04 	addi	r16,r16,-16
   21cc4:	81400448 	cmpgei	r5,r16,17
   21cc8:	d9001f17 	ldw	r4,124(sp)
   21ccc:	d8801e17 	ldw	r2,120(sp)
   21cd0:	8807883a 	mov	r3,r17
   21cd4:	03c00404 	movi	r15,16
   21cd8:	283fec1e 	bne	r5,zero,21c8c <___vfprintf_internal_r+0x1040>
   21cdc:	980f883a 	mov	r7,r19
   21ce0:	a019883a 	mov	r12,r20
   21ce4:	b827883a 	mov	r19,r23
   21ce8:	b029883a 	mov	r20,r22
   21cec:	902f883a 	mov	r23,r18
   21cf0:	802d883a 	mov	r22,r16
   21cf4:	1825883a 	mov	r18,r3
   21cf8:	db800f17 	ldw	r14,60(sp)
   21cfc:	db401017 	ldw	r13,64(sp)
   21d00:	da001417 	ldw	r8,80(sp)
   21d04:	dc001317 	ldw	r16,76(sp)
   21d08:	d8c01217 	ldw	r3,72(sp)
   21d0c:	10800044 	addi	r2,r2,1
   21d10:	b109883a 	add	r4,r22,r4
   21d14:	d8801e15 	stw	r2,120(sp)
   21d18:	95c00015 	stw	r23,0(r18)
   21d1c:	95800115 	stw	r22,4(r18)
   21d20:	d9001f15 	stw	r4,124(sp)
   21d24:	10800208 	cmpgei	r2,r2,8
   21d28:	1001d51e 	bne	r2,zero,22480 <___vfprintf_internal_r+0x1834>
   21d2c:	94800204 	addi	r18,r18,8
   21d30:	003c9506 	br	20f88 <___vfprintf_internal_r+0x33c>
   21d34:	180d883a 	mov	r6,r3
   21d38:	b80b883a 	mov	r5,r23
   21d3c:	9007883a 	mov	r3,r18
   21d40:	a019883a 	mov	r12,r20
   21d44:	802f883a 	mov	r23,r16
   21d48:	b029883a 	mov	r20,r22
   21d4c:	9821883a 	mov	r16,r19
   21d50:	a82d883a 	mov	r22,r21
   21d54:	2827883a 	mov	r19,r5
   21d58:	3025883a 	mov	r18,r6
   21d5c:	10800044 	addi	r2,r2,1
   21d60:	95800015 	stw	r22,0(r18)
   21d64:	95c00115 	stw	r23,4(r18)
   21d68:	25c9883a 	add	r4,r4,r23
   21d6c:	d8801e15 	stw	r2,120(sp)
   21d70:	d9001f15 	stw	r4,124(sp)
   21d74:	10800208 	cmpgei	r2,r2,8
   21d78:	103cae26 	beq	r2,zero,21034 <___vfprintf_internal_r+0x3e8>
   21d7c:	d9400417 	ldw	r5,16(sp)
   21d80:	d9000517 	ldw	r4,20(sp)
   21d84:	d9801d04 	addi	r6,sp,116
   21d88:	db000f15 	stw	r12,60(sp)
   21d8c:	d8c00815 	stw	r3,32(sp)
   21d90:	00284400 	call	28440 <__sprint_r>
   21d94:	103cb81e 	bne	r2,zero,21078 <___vfprintf_internal_r+0x42c>
   21d98:	d9001f17 	ldw	r4,124(sp)
   21d9c:	d8c00817 	ldw	r3,32(sp)
   21da0:	db000f17 	ldw	r12,60(sp)
   21da4:	8825883a 	mov	r18,r17
   21da8:	003ca306 	br	21038 <___vfprintf_internal_r+0x3ec>
   21dac:	d9400417 	ldw	r5,16(sp)
   21db0:	d9000517 	ldw	r4,20(sp)
   21db4:	d9801d04 	addi	r6,sp,116
   21db8:	db001515 	stw	r12,84(sp)
   21dbc:	d9c01415 	stw	r7,80(sp)
   21dc0:	da001315 	stw	r8,76(sp)
   21dc4:	d8c01215 	stw	r3,72(sp)
   21dc8:	db401015 	stw	r13,64(sp)
   21dcc:	db800f15 	stw	r14,60(sp)
   21dd0:	00284400 	call	28440 <__sprint_r>
   21dd4:	103ca81e 	bne	r2,zero,21078 <___vfprintf_internal_r+0x42c>
   21dd8:	dd801f17 	ldw	r22,124(sp)
   21ddc:	db001517 	ldw	r12,84(sp)
   21de0:	d9c01417 	ldw	r7,80(sp)
   21de4:	da001317 	ldw	r8,76(sp)
   21de8:	d8c01217 	ldw	r3,72(sp)
   21dec:	db401017 	ldw	r13,64(sp)
   21df0:	db800f17 	ldw	r14,60(sp)
   21df4:	8825883a 	mov	r18,r17
   21df8:	003c7206 	br	20fc4 <___vfprintf_internal_r+0x378>
   21dfc:	d9400417 	ldw	r5,16(sp)
   21e00:	d9000517 	ldw	r4,20(sp)
   21e04:	d9801d04 	addi	r6,sp,116
   21e08:	db001415 	stw	r12,80(sp)
   21e0c:	d9c01315 	stw	r7,76(sp)
   21e10:	da001215 	stw	r8,72(sp)
   21e14:	d8c01015 	stw	r3,64(sp)
   21e18:	db400f15 	stw	r13,60(sp)
   21e1c:	00284400 	call	28440 <__sprint_r>
   21e20:	103c951e 	bne	r2,zero,21078 <___vfprintf_internal_r+0x42c>
   21e24:	dd801f17 	ldw	r22,124(sp)
   21e28:	db001417 	ldw	r12,80(sp)
   21e2c:	d9c01317 	ldw	r7,76(sp)
   21e30:	da001217 	ldw	r8,72(sp)
   21e34:	d8c01017 	ldw	r3,64(sp)
   21e38:	db400f17 	ldw	r13,60(sp)
   21e3c:	8825883a 	mov	r18,r17
   21e40:	003c6d06 	br	20ff8 <___vfprintf_internal_r+0x3ac>
   21e44:	ddc01717 	ldw	r23,92(sp)
   21e48:	05c1a00e 	bge	zero,r23,224cc <___vfprintf_internal_r+0x1880>
   21e4c:	d8800917 	ldw	r2,36(sp)
   21e50:	d9000817 	ldw	r4,32(sp)
   21e54:	102f883a 	mov	r23,r2
   21e58:	2080d016 	blt	r4,r2,2219c <___vfprintf_internal_r+0x1550>
   21e5c:	05c00a0e 	bge	zero,r23,21e88 <___vfprintf_internal_r+0x123c>
   21e60:	d8801e17 	ldw	r2,120(sp)
   21e64:	b5ed883a 	add	r22,r22,r23
   21e68:	95400015 	stw	r21,0(r18)
   21e6c:	10800044 	addi	r2,r2,1
   21e70:	d8801e15 	stw	r2,120(sp)
   21e74:	95c00115 	stw	r23,4(r18)
   21e78:	dd801f15 	stw	r22,124(sp)
   21e7c:	10800208 	cmpgei	r2,r2,8
   21e80:	1003921e 	bne	r2,zero,22ccc <___vfprintf_internal_r+0x2080>
   21e84:	94800204 	addi	r18,r18,8
   21e88:	b800d016 	blt	r23,zero,221cc <___vfprintf_internal_r+0x1580>
   21e8c:	d8800817 	ldw	r2,32(sp)
   21e90:	15efc83a 	sub	r23,r2,r23
   21e94:	05c0fb16 	blt	zero,r23,22284 <___vfprintf_internal_r+0x1638>
   21e98:	ddc01717 	ldw	r23,92(sp)
   21e9c:	d9000917 	ldw	r4,36(sp)
   21ea0:	b900c10e 	bge	r23,r4,221a8 <___vfprintf_internal_r+0x155c>
   21ea4:	d8800d17 	ldw	r2,52(sp)
   21ea8:	d9400c17 	ldw	r5,48(sp)
   21eac:	90800015 	stw	r2,0(r18)
   21eb0:	d8801e17 	ldw	r2,120(sp)
   21eb4:	2d89883a 	add	r4,r5,r22
   21eb8:	91400115 	stw	r5,4(r18)
   21ebc:	10800044 	addi	r2,r2,1
   21ec0:	d8801e15 	stw	r2,120(sp)
   21ec4:	d9001f15 	stw	r4,124(sp)
   21ec8:	10800208 	cmpgei	r2,r2,8
   21ecc:	1003651e 	bne	r2,zero,22c64 <___vfprintf_internal_r+0x2018>
   21ed0:	94800204 	addi	r18,r18,8
   21ed4:	d8800917 	ldw	r2,36(sp)
   21ed8:	d9400817 	ldw	r5,32(sp)
   21edc:	15efc83a 	sub	r23,r2,r23
   21ee0:	1179c83a 	sub	fp,r2,r5
   21ee4:	bf00010e 	bge	r23,fp,21eec <___vfprintf_internal_r+0x12a0>
   21ee8:	b839883a 	mov	fp,r23
   21eec:	07000c0e 	bge	zero,fp,21f20 <___vfprintf_internal_r+0x12d4>
   21ef0:	d8800817 	ldw	r2,32(sp)
   21ef4:	2709883a 	add	r4,r4,fp
   21ef8:	97000115 	stw	fp,4(r18)
   21efc:	a893883a 	add	r9,r21,r2
   21f00:	d8801e17 	ldw	r2,120(sp)
   21f04:	92400015 	stw	r9,0(r18)
   21f08:	d9001f15 	stw	r4,124(sp)
   21f0c:	10800044 	addi	r2,r2,1
   21f10:	d8801e15 	stw	r2,120(sp)
   21f14:	10800208 	cmpgei	r2,r2,8
   21f18:	10037b1e 	bne	r2,zero,22d08 <___vfprintf_internal_r+0x20bc>
   21f1c:	94800204 	addi	r18,r18,8
   21f20:	e005883a 	mov	r2,fp
   21f24:	e000010e 	bge	fp,zero,21f2c <___vfprintf_internal_r+0x12e0>
   21f28:	0005883a 	mov	r2,zero
   21f2c:	b8afc83a 	sub	r23,r23,r2
   21f30:	05fc410e 	bge	zero,r23,21038 <___vfprintf_internal_r+0x3ec>
   21f34:	058000f4 	movhi	r22,3
   21f38:	b9400450 	cmplti	r5,r23,17
   21f3c:	d8801e17 	ldw	r2,120(sp)
   21f40:	b581b704 	addi	r22,r22,1756
   21f44:	283f851e 	bne	r5,zero,21d5c <___vfprintf_internal_r+0x1110>
   21f48:	980b883a 	mov	r5,r19
   21f4c:	d8c00815 	stw	r3,32(sp)
   21f50:	8027883a 	mov	r19,r16
   21f54:	9007883a 	mov	r3,r18
   21f58:	b821883a 	mov	r16,r23
   21f5c:	b025883a 	mov	r18,r22
   21f60:	dd400517 	ldw	r21,20(sp)
   21f64:	a02d883a 	mov	r22,r20
   21f68:	07000404 	movi	fp,16
   21f6c:	6029883a 	mov	r20,r12
   21f70:	282f883a 	mov	r23,r5
   21f74:	00000406 	br	21f88 <___vfprintf_internal_r+0x133c>
   21f78:	18c00204 	addi	r3,r3,8
   21f7c:	843ffc04 	addi	r16,r16,-16
   21f80:	81400448 	cmpgei	r5,r16,17
   21f84:	28034426 	beq	r5,zero,22c98 <___vfprintf_internal_r+0x204c>
   21f88:	10800044 	addi	r2,r2,1
   21f8c:	21000404 	addi	r4,r4,16
   21f90:	1c800015 	stw	r18,0(r3)
   21f94:	1f000115 	stw	fp,4(r3)
   21f98:	d9001f15 	stw	r4,124(sp)
   21f9c:	d8801e15 	stw	r2,120(sp)
   21fa0:	11400208 	cmpgei	r5,r2,8
   21fa4:	283ff426 	beq	r5,zero,21f78 <___vfprintf_internal_r+0x132c>
   21fa8:	d9400417 	ldw	r5,16(sp)
   21fac:	d9801d04 	addi	r6,sp,116
   21fb0:	a809883a 	mov	r4,r21
   21fb4:	00284400 	call	28440 <__sprint_r>
   21fb8:	103c2f1e 	bne	r2,zero,21078 <___vfprintf_internal_r+0x42c>
   21fbc:	d9001f17 	ldw	r4,124(sp)
   21fc0:	d8801e17 	ldw	r2,120(sp)
   21fc4:	8807883a 	mov	r3,r17
   21fc8:	003fec06 	br	21f7c <___vfprintf_internal_r+0x1330>
   21fcc:	1880004c 	andi	r2,r3,1
   21fd0:	103edd1e 	bne	r2,zero,21b48 <___vfprintf_internal_r+0xefc>
   21fd4:	da001e17 	ldw	r8,120(sp)
   21fd8:	00800044 	movi	r2,1
   21fdc:	b7000044 	addi	fp,r22,1
   21fe0:	42000044 	addi	r8,r8,1
   21fe4:	90800115 	stw	r2,4(r18)
   21fe8:	95400015 	stw	r21,0(r18)
   21fec:	df001f15 	stw	fp,124(sp)
   21ff0:	da001e15 	stw	r8,120(sp)
   21ff4:	40800210 	cmplti	r2,r8,8
   21ff8:	103f001e 	bne	r2,zero,21bfc <___vfprintf_internal_r+0xfb0>
   21ffc:	d9400417 	ldw	r5,16(sp)
   22000:	d9000517 	ldw	r4,20(sp)
   22004:	d9801d04 	addi	r6,sp,116
   22008:	db000f15 	stw	r12,60(sp)
   2200c:	d8c00815 	stw	r3,32(sp)
   22010:	00284400 	call	28440 <__sprint_r>
   22014:	103c181e 	bne	r2,zero,21078 <___vfprintf_internal_r+0x42c>
   22018:	df001f17 	ldw	fp,124(sp)
   2201c:	da001e17 	ldw	r8,120(sp)
   22020:	db000f17 	ldw	r12,60(sp)
   22024:	d8c00817 	ldw	r3,32(sp)
   22028:	882f883a 	mov	r23,r17
   2202c:	003ef306 	br	21bfc <___vfprintf_internal_r+0xfb0>
   22030:	000f883a 	mov	r7,zero
   22034:	882b883a 	mov	r21,r17
   22038:	003c8c06 	br	2126c <___vfprintf_internal_r+0x620>
   2203c:	d8800917 	ldw	r2,36(sp)
   22040:	10800090 	cmplti	r2,r2,2
   22044:	103eed1e 	bne	r2,zero,21bfc <___vfprintf_internal_r+0xfb0>
   22048:	d8800917 	ldw	r2,36(sp)
   2204c:	058000f4 	movhi	r22,3
   22050:	b581b704 	addi	r22,r22,1756
   22054:	10800490 	cmplti	r2,r2,18
   22058:	1002061e 	bne	r2,zero,22874 <___vfprintf_internal_r+0x1c28>
   2205c:	9809883a 	mov	r4,r19
   22060:	b805883a 	mov	r2,r23
   22064:	1827883a 	mov	r19,r3
   22068:	a02f883a 	mov	r23,r20
   2206c:	e007883a 	mov	r3,fp
   22070:	8029883a 	mov	r20,r16
   22074:	05400404 	movi	r21,16
   22078:	9021883a 	mov	r16,r18
   2207c:	2039883a 	mov	fp,r4
   22080:	b025883a 	mov	r18,r22
   22084:	602d883a 	mov	r22,r12
   22088:	00000406 	br	2209c <___vfprintf_internal_r+0x1450>
   2208c:	10800204 	addi	r2,r2,8
   22090:	843ffc04 	addi	r16,r16,-16
   22094:	81000448 	cmpgei	r4,r16,17
   22098:	2001ec26 	beq	r4,zero,2284c <___vfprintf_internal_r+0x1c00>
   2209c:	42000044 	addi	r8,r8,1
   220a0:	18c00404 	addi	r3,r3,16
   220a4:	14800015 	stw	r18,0(r2)
   220a8:	15400115 	stw	r21,4(r2)
   220ac:	d8c01f15 	stw	r3,124(sp)
   220b0:	da001e15 	stw	r8,120(sp)
   220b4:	41000208 	cmpgei	r4,r8,8
   220b8:	203ff426 	beq	r4,zero,2208c <___vfprintf_internal_r+0x1440>
   220bc:	d9400417 	ldw	r5,16(sp)
   220c0:	d9000517 	ldw	r4,20(sp)
   220c4:	d9801d04 	addi	r6,sp,116
   220c8:	00284400 	call	28440 <__sprint_r>
   220cc:	103bea1e 	bne	r2,zero,21078 <___vfprintf_internal_r+0x42c>
   220d0:	d8c01f17 	ldw	r3,124(sp)
   220d4:	da001e17 	ldw	r8,120(sp)
   220d8:	8805883a 	mov	r2,r17
   220dc:	003fec06 	br	22090 <___vfprintf_internal_r+0x1444>
   220e0:	d9400417 	ldw	r5,16(sp)
   220e4:	d9000517 	ldw	r4,20(sp)
   220e8:	d9801d04 	addi	r6,sp,116
   220ec:	db001215 	stw	r12,72(sp)
   220f0:	d9c01015 	stw	r7,64(sp)
   220f4:	d8c00f15 	stw	r3,60(sp)
   220f8:	00284400 	call	28440 <__sprint_r>
   220fc:	103bde1e 	bne	r2,zero,21078 <___vfprintf_internal_r+0x42c>
   22100:	dd801f17 	ldw	r22,124(sp)
   22104:	db001217 	ldw	r12,72(sp)
   22108:	d9c01017 	ldw	r7,64(sp)
   2210c:	d8c00f17 	ldw	r3,60(sp)
   22110:	8825883a 	mov	r18,r17
   22114:	003bbc06 	br	21008 <___vfprintf_internal_r+0x3bc>
   22118:	d9400417 	ldw	r5,16(sp)
   2211c:	d9000517 	ldw	r4,20(sp)
   22120:	d9801d04 	addi	r6,sp,116
   22124:	db000f15 	stw	r12,60(sp)
   22128:	d8c00815 	stw	r3,32(sp)
   2212c:	00284400 	call	28440 <__sprint_r>
   22130:	103bd11e 	bne	r2,zero,21078 <___vfprintf_internal_r+0x42c>
   22134:	d9001f17 	ldw	r4,124(sp)
   22138:	db000f17 	ldw	r12,60(sp)
   2213c:	d8c00817 	ldw	r3,32(sp)
   22140:	8825883a 	mov	r18,r17
   22144:	003bbc06 	br	21038 <___vfprintf_internal_r+0x3ec>
   22148:	6b400414 	ori	r13,r13,16
   2214c:	003b0f06 	br	20d8c <___vfprintf_internal_r+0x140>
   22150:	a2c00007 	ldb	r11,0(r20)
   22154:	d8800715 	stw	r2,28(sp)
   22158:	003b0c06 	br	20d8c <___vfprintf_internal_r+0x140>
   2215c:	882b883a 	mov	r21,r17
   22160:	003c4206 	br	2126c <___vfprintf_internal_r+0x620>
   22164:	18800017 	ldw	r2,0(r3)
   22168:	d8800a15 	stw	r2,40(sp)
   2216c:	18800117 	ldw	r2,4(r3)
   22170:	d8800b15 	stw	r2,44(sp)
   22174:	003c9e06 	br	213f0 <___vfprintf_internal_r+0x7a4>
   22178:	6880040c 	andi	r2,r13,16
   2217c:	1000921e 	bne	r2,zero,223c8 <___vfprintf_internal_r+0x177c>
   22180:	6b40100c 	andi	r13,r13,64
   22184:	68009026 	beq	r13,zero,223c8 <___vfprintf_internal_r+0x177c>
   22188:	d8800717 	ldw	r2,28(sp)
   2218c:	d8c00617 	ldw	r3,24(sp)
   22190:	10800017 	ldw	r2,0(r2)
   22194:	10c0000d 	sth	r3,0(r2)
   22198:	003d7406 	br	2176c <___vfprintf_internal_r+0xb20>
   2219c:	202f883a 	mov	r23,r4
   221a0:	05ff2f16 	blt	zero,r23,21e60 <___vfprintf_internal_r+0x1214>
   221a4:	003f3806 	br	21e88 <___vfprintf_internal_r+0x123c>
   221a8:	1880004c 	andi	r2,r3,1
   221ac:	103f3d1e 	bne	r2,zero,21ea4 <___vfprintf_internal_r+0x1258>
   221b0:	d8800817 	ldw	r2,32(sp)
   221b4:	25efc83a 	sub	r23,r4,r23
   221b8:	20b9c83a 	sub	fp,r4,r2
   221bc:	b009883a 	mov	r4,r22
   221c0:	bf3f570e 	bge	r23,fp,21f20 <___vfprintf_internal_r+0x12d4>
   221c4:	b839883a 	mov	fp,r23
   221c8:	003f5506 	br	21f20 <___vfprintf_internal_r+0x12d4>
   221cc:	002f883a 	mov	r23,zero
   221d0:	003f2e06 	br	21e8c <___vfprintf_internal_r+0x1240>
   221d4:	d9400417 	ldw	r5,16(sp)
   221d8:	d9000517 	ldw	r4,20(sp)
   221dc:	d9801d04 	addi	r6,sp,116
   221e0:	db000f15 	stw	r12,60(sp)
   221e4:	d8c00815 	stw	r3,32(sp)
   221e8:	00284400 	call	28440 <__sprint_r>
   221ec:	103ba21e 	bne	r2,zero,21078 <___vfprintf_internal_r+0x42c>
   221f0:	d9001f17 	ldw	r4,124(sp)
   221f4:	db000f17 	ldw	r12,60(sp)
   221f8:	d8c00817 	ldw	r3,32(sp)
   221fc:	8825883a 	mov	r18,r17
   22200:	003d8a06 	br	2182c <___vfprintf_internal_r+0xbe0>
   22204:	008000f4 	movhi	r2,3
   22208:	1081aa04 	addi	r2,r2,1704
   2220c:	d8800e15 	stw	r2,56(sp)
   22210:	6880080c 	andi	r2,r13,32
   22214:	10007326 	beq	r2,zero,223e4 <___vfprintf_internal_r+0x1798>
   22218:	d8800717 	ldw	r2,28(sp)
   2221c:	15800017 	ldw	r22,0(r2)
   22220:	15c00117 	ldw	r23,4(r2)
   22224:	10800204 	addi	r2,r2,8
   22228:	d8800715 	stw	r2,28(sp)
   2222c:	6880004c 	andi	r2,r13,1
   22230:	10006a26 	beq	r2,zero,223dc <___vfprintf_internal_r+0x1790>
   22234:	b5c4b03a 	or	r2,r22,r23
   22238:	10006826 	beq	r2,zero,223dc <___vfprintf_internal_r+0x1790>
   2223c:	00800c04 	movi	r2,48
   22240:	d8801685 	stb	r2,90(sp)
   22244:	df0016c5 	stb	fp,91(sp)
   22248:	6b400094 	ori	r13,r13,2
   2224c:	00800084 	movi	r2,2
   22250:	003be306 	br	211e0 <___vfprintf_internal_r+0x594>
   22254:	408001f0 	cmpltui	r2,r8,7
   22258:	400f883a 	mov	r7,r8
   2225c:	1001bf26 	beq	r2,zero,2295c <___vfprintf_internal_r+0x1d10>
   22260:	054000f4 	movhi	r21,3
   22264:	3819883a 	mov	r12,r7
   22268:	dd800715 	stw	r22,28(sp)
   2226c:	ad41b404 	addi	r21,r21,1744
   22270:	003b3b06 	br	20f60 <___vfprintf_internal_r+0x314>
   22274:	008000f4 	movhi	r2,3
   22278:	1081af04 	addi	r2,r2,1724
   2227c:	d8800e15 	stw	r2,56(sp)
   22280:	003fe306 	br	22210 <___vfprintf_internal_r+0x15c4>
   22284:	b009883a 	mov	r4,r22
   22288:	b9400450 	cmplti	r5,r23,17
   2228c:	058000f4 	movhi	r22,3
   22290:	d8801e17 	ldw	r2,120(sp)
   22294:	b581b704 	addi	r22,r22,1756
   22298:	2801901e 	bne	r5,zero,228dc <___vfprintf_internal_r+0x1c90>
   2229c:	980b883a 	mov	r5,r19
   222a0:	d8c00f15 	stw	r3,60(sp)
   222a4:	8027883a 	mov	r19,r16
   222a8:	9007883a 	mov	r3,r18
   222ac:	b821883a 	mov	r16,r23
   222b0:	b025883a 	mov	r18,r22
   222b4:	07000404 	movi	fp,16
   222b8:	a02d883a 	mov	r22,r20
   222bc:	282f883a 	mov	r23,r5
   222c0:	6029883a 	mov	r20,r12
   222c4:	00000406 	br	222d8 <___vfprintf_internal_r+0x168c>
   222c8:	18c00204 	addi	r3,r3,8
   222cc:	843ffc04 	addi	r16,r16,-16
   222d0:	81400448 	cmpgei	r5,r16,17
   222d4:	28017826 	beq	r5,zero,228b8 <___vfprintf_internal_r+0x1c6c>
   222d8:	10800044 	addi	r2,r2,1
   222dc:	21000404 	addi	r4,r4,16
   222e0:	1c800015 	stw	r18,0(r3)
   222e4:	1f000115 	stw	fp,4(r3)
   222e8:	d9001f15 	stw	r4,124(sp)
   222ec:	d8801e15 	stw	r2,120(sp)
   222f0:	11400208 	cmpgei	r5,r2,8
   222f4:	283ff426 	beq	r5,zero,222c8 <___vfprintf_internal_r+0x167c>
   222f8:	d9400417 	ldw	r5,16(sp)
   222fc:	d9000517 	ldw	r4,20(sp)
   22300:	d9801d04 	addi	r6,sp,116
   22304:	00284400 	call	28440 <__sprint_r>
   22308:	103b5b1e 	bne	r2,zero,21078 <___vfprintf_internal_r+0x42c>
   2230c:	d9001f17 	ldw	r4,124(sp)
   22310:	d8801e17 	ldw	r2,120(sp)
   22314:	8807883a 	mov	r3,r17
   22318:	003fec06 	br	222cc <___vfprintf_internal_r+0x1680>
   2231c:	b007883a 	mov	r3,r22
   22320:	9805883a 	mov	r2,r19
   22324:	dc000f15 	stw	r16,60(sp)
   22328:	a02d883a 	mov	r22,r20
   2232c:	b827883a 	mov	r19,r23
   22330:	9029883a 	mov	r20,r18
   22334:	db400815 	stw	r13,32(sp)
   22338:	8821883a 	mov	r16,r17
   2233c:	da001015 	stw	r8,64(sp)
   22340:	202b883a 	mov	r21,r4
   22344:	102f883a 	mov	r23,r2
   22348:	1825883a 	mov	r18,r3
   2234c:	9009883a 	mov	r4,r18
   22350:	980b883a 	mov	r5,r19
   22354:	01800284 	movi	r6,10
   22358:	000f883a 	mov	r7,zero
   2235c:	002ae280 	call	2ae28 <__umoddi3>
   22360:	10800c04 	addi	r2,r2,48
   22364:	9009883a 	mov	r4,r18
   22368:	980b883a 	mov	r5,r19
   2236c:	01800284 	movi	r6,10
   22370:	000f883a 	mov	r7,zero
   22374:	80bfffc5 	stb	r2,-1(r16)
   22378:	002a8d80 	call	2a8d8 <__udivdi3>
   2237c:	980d883a 	mov	r6,r19
   22380:	900f883a 	mov	r7,r18
   22384:	843fffc4 	addi	r16,r16,-1
   22388:	1025883a 	mov	r18,r2
   2238c:	1827883a 	mov	r19,r3
   22390:	303fee1e 	bne	r6,zero,2234c <___vfprintf_internal_r+0x1700>
   22394:	39c002a8 	cmpgeui	r7,r7,10
   22398:	383fec1e 	bne	r7,zero,2234c <___vfprintf_internal_r+0x1700>
   2239c:	db400817 	ldw	r13,32(sp)
   223a0:	a809883a 	mov	r4,r21
   223a4:	802b883a 	mov	r21,r16
   223a8:	a025883a 	mov	r18,r20
   223ac:	da001017 	ldw	r8,64(sp)
   223b0:	dc000f17 	ldw	r16,60(sp)
   223b4:	b029883a 	mov	r20,r22
   223b8:	b827883a 	mov	r19,r23
   223bc:	8d4fc83a 	sub	r7,r17,r21
   223c0:	6807883a 	mov	r3,r13
   223c4:	003ba906 	br	2126c <___vfprintf_internal_r+0x620>
   223c8:	d8800717 	ldw	r2,28(sp)
   223cc:	d8c00617 	ldw	r3,24(sp)
   223d0:	10800017 	ldw	r2,0(r2)
   223d4:	10c00015 	stw	r3,0(r2)
   223d8:	003ce406 	br	2176c <___vfprintf_internal_r+0xb20>
   223dc:	00800084 	movi	r2,2
   223e0:	003b7f06 	br	211e0 <___vfprintf_internal_r+0x594>
   223e4:	d8c00717 	ldw	r3,28(sp)
   223e8:	6880040c 	andi	r2,r13,16
   223ec:	1d800017 	ldw	r22,0(r3)
   223f0:	18c00104 	addi	r3,r3,4
   223f4:	d8c00715 	stw	r3,28(sp)
   223f8:	1000051e 	bne	r2,zero,22410 <___vfprintf_internal_r+0x17c4>
   223fc:	6880100c 	andi	r2,r13,64
   22400:	10000326 	beq	r2,zero,22410 <___vfprintf_internal_r+0x17c4>
   22404:	b5bfffcc 	andi	r22,r22,65535
   22408:	002f883a 	mov	r23,zero
   2240c:	003f8706 	br	2222c <___vfprintf_internal_r+0x15e0>
   22410:	002f883a 	mov	r23,zero
   22414:	003f8506 	br	2222c <___vfprintf_internal_r+0x15e0>
   22418:	d9400417 	ldw	r5,16(sp)
   2241c:	d9000517 	ldw	r4,20(sp)
   22420:	d9801d04 	addi	r6,sp,116
   22424:	db000f15 	stw	r12,60(sp)
   22428:	d8c00815 	stw	r3,32(sp)
   2242c:	00284400 	call	28440 <__sprint_r>
   22430:	103b111e 	bne	r2,zero,21078 <___vfprintf_internal_r+0x42c>
   22434:	dd801f17 	ldw	r22,124(sp)
   22438:	da001e17 	ldw	r8,120(sp)
   2243c:	db000f17 	ldw	r12,60(sp)
   22440:	d8c00817 	ldw	r3,32(sp)
   22444:	882f883a 	mov	r23,r17
   22448:	003dc906 	br	21b70 <___vfprintf_internal_r+0xf24>
   2244c:	d9400417 	ldw	r5,16(sp)
   22450:	d9000517 	ldw	r4,20(sp)
   22454:	d9801d04 	addi	r6,sp,116
   22458:	db000f15 	stw	r12,60(sp)
   2245c:	d8c00815 	stw	r3,32(sp)
   22460:	00284400 	call	28440 <__sprint_r>
   22464:	103b041e 	bne	r2,zero,21078 <___vfprintf_internal_r+0x42c>
   22468:	df001f17 	ldw	fp,124(sp)
   2246c:	da001e17 	ldw	r8,120(sp)
   22470:	db000f17 	ldw	r12,60(sp)
   22474:	d8c00817 	ldw	r3,32(sp)
   22478:	882f883a 	mov	r23,r17
   2247c:	003dc706 	br	21b9c <___vfprintf_internal_r+0xf50>
   22480:	d9400417 	ldw	r5,16(sp)
   22484:	d9000517 	ldw	r4,20(sp)
   22488:	d9801d04 	addi	r6,sp,116
   2248c:	db001515 	stw	r12,84(sp)
   22490:	d9c01415 	stw	r7,80(sp)
   22494:	da001315 	stw	r8,76(sp)
   22498:	d8c01215 	stw	r3,72(sp)
   2249c:	db401015 	stw	r13,64(sp)
   224a0:	db800f15 	stw	r14,60(sp)
   224a4:	00284400 	call	28440 <__sprint_r>
   224a8:	103af31e 	bne	r2,zero,21078 <___vfprintf_internal_r+0x42c>
   224ac:	db001517 	ldw	r12,84(sp)
   224b0:	d9c01417 	ldw	r7,80(sp)
   224b4:	da001317 	ldw	r8,76(sp)
   224b8:	d8c01217 	ldw	r3,72(sp)
   224bc:	db401017 	ldw	r13,64(sp)
   224c0:	db800f17 	ldw	r14,60(sp)
   224c4:	8825883a 	mov	r18,r17
   224c8:	003aaf06 	br	20f88 <___vfprintf_internal_r+0x33c>
   224cc:	d8801e17 	ldw	r2,120(sp)
   224d0:	014000f4 	movhi	r5,3
   224d4:	2941b604 	addi	r5,r5,1752
   224d8:	10800044 	addi	r2,r2,1
   224dc:	b1000044 	addi	r4,r22,1
   224e0:	91400015 	stw	r5,0(r18)
   224e4:	01400044 	movi	r5,1
   224e8:	d8801e15 	stw	r2,120(sp)
   224ec:	91400115 	stw	r5,4(r18)
   224f0:	d9001f15 	stw	r4,124(sp)
   224f4:	10800208 	cmpgei	r2,r2,8
   224f8:	1001071e 	bne	r2,zero,22918 <___vfprintf_internal_r+0x1ccc>
   224fc:	94800204 	addi	r18,r18,8
   22500:	b800a31e 	bne	r23,zero,22790 <___vfprintf_internal_r+0x1b44>
   22504:	d9400917 	ldw	r5,36(sp)
   22508:	1880004c 	andi	r2,r3,1
   2250c:	1144b03a 	or	r2,r2,r5
   22510:	103ac926 	beq	r2,zero,21038 <___vfprintf_internal_r+0x3ec>
   22514:	d8800d17 	ldw	r2,52(sp)
   22518:	d9400c17 	ldw	r5,48(sp)
   2251c:	90800015 	stw	r2,0(r18)
   22520:	d8801e17 	ldw	r2,120(sp)
   22524:	2909883a 	add	r4,r5,r4
   22528:	91400115 	stw	r5,4(r18)
   2252c:	10800044 	addi	r2,r2,1
   22530:	d9001f15 	stw	r4,124(sp)
   22534:	d8801e15 	stw	r2,120(sp)
   22538:	11400208 	cmpgei	r5,r2,8
   2253c:	28010e1e 	bne	r5,zero,22978 <___vfprintf_internal_r+0x1d2c>
   22540:	94800204 	addi	r18,r18,8
   22544:	d9400917 	ldw	r5,36(sp)
   22548:	10800044 	addi	r2,r2,1
   2254c:	d8801e15 	stw	r2,120(sp)
   22550:	2909883a 	add	r4,r5,r4
   22554:	95400015 	stw	r21,0(r18)
   22558:	91400115 	stw	r5,4(r18)
   2255c:	d9001f15 	stw	r4,124(sp)
   22560:	10800208 	cmpgei	r2,r2,8
   22564:	103ab326 	beq	r2,zero,21034 <___vfprintf_internal_r+0x3e8>
   22568:	003e0406 	br	21d7c <___vfprintf_internal_r+0x1130>
   2256c:	d9000a17 	ldw	r4,40(sp)
   22570:	d9400b17 	ldw	r5,44(sp)
   22574:	da000815 	stw	r8,32(sp)
   22578:	200d883a 	mov	r6,r4
   2257c:	280f883a 	mov	r7,r5
   22580:	db400715 	stw	r13,28(sp)
   22584:	002d7800 	call	2d780 <__unorddf2>
   22588:	db400717 	ldw	r13,28(sp)
   2258c:	da000817 	ldw	r8,32(sp)
   22590:	10024c1e 	bne	r2,zero,22ec4 <___vfprintf_internal_r+0x2278>
   22594:	057ff7c4 	movi	r21,-33
   22598:	40bfffe0 	cmpeqi	r2,r8,-1
   2259c:	e56c703a 	and	r22,fp,r21
   225a0:	1001d71e 	bne	r2,zero,22d00 <___vfprintf_internal_r+0x20b4>
   225a4:	b08011d8 	cmpnei	r2,r22,71
   225a8:	1001c526 	beq	r2,zero,22cc0 <___vfprintf_internal_r+0x2074>
   225ac:	d8800b17 	ldw	r2,44(sp)
   225b0:	68c04014 	ori	r3,r13,256
   225b4:	1000e516 	blt	r2,zero,2294c <___vfprintf_internal_r+0x1d00>
   225b8:	ddc00b17 	ldw	r23,44(sp)
   225bc:	d8000705 	stb	zero,28(sp)
   225c0:	e08019a0 	cmpeqi	r2,fp,102
   225c4:	d8801015 	stw	r2,64(sp)
   225c8:	10017c1e 	bne	r2,zero,22bbc <___vfprintf_internal_r+0x1f70>
   225cc:	b0801158 	cmpnei	r2,r22,69
   225d0:	1000f826 	beq	r2,zero,229b4 <___vfprintf_internal_r+0x1d68>
   225d4:	d8801b04 	addi	r2,sp,108
   225d8:	d9000517 	ldw	r4,20(sp)
   225dc:	d8800315 	stw	r2,12(sp)
   225e0:	d9400a17 	ldw	r5,40(sp)
   225e4:	d8801804 	addi	r2,sp,96
   225e8:	d8800215 	stw	r2,8(sp)
   225ec:	d8801704 	addi	r2,sp,92
   225f0:	da000015 	stw	r8,0(sp)
   225f4:	d8800115 	stw	r2,4(sp)
   225f8:	01c00084 	movi	r7,2
   225fc:	b80d883a 	mov	r6,r23
   22600:	d8c01215 	stw	r3,72(sp)
   22604:	db400915 	stw	r13,36(sp)
   22608:	da000815 	stw	r8,32(sp)
   2260c:	002341c0 	call	2341c <_dtoa_r>
   22610:	e10019e0 	cmpeqi	r4,fp,103
   22614:	da000817 	ldw	r8,32(sp)
   22618:	db400917 	ldw	r13,36(sp)
   2261c:	d8c01217 	ldw	r3,72(sp)
   22620:	102b883a 	mov	r21,r2
   22624:	20010b26 	beq	r4,zero,22a54 <___vfprintf_internal_r+0x1e08>
   22628:	6880004c 	andi	r2,r13,1
   2262c:	10010b26 	beq	r2,zero,22a5c <___vfprintf_internal_r+0x1e10>
   22630:	aa19883a 	add	r12,r21,r8
   22634:	d9000a17 	ldw	r4,40(sp)
   22638:	000d883a 	mov	r6,zero
   2263c:	000f883a 	mov	r7,zero
   22640:	b80b883a 	mov	r5,r23
   22644:	db001315 	stw	r12,76(sp)
   22648:	da001215 	stw	r8,72(sp)
   2264c:	d8c00915 	stw	r3,36(sp)
   22650:	db400815 	stw	r13,32(sp)
   22654:	002c4840 	call	2c484 <__eqdf2>
   22658:	db400817 	ldw	r13,32(sp)
   2265c:	d8c00917 	ldw	r3,36(sp)
   22660:	da001217 	ldw	r8,72(sp)
   22664:	db001317 	ldw	r12,76(sp)
   22668:	10023326 	beq	r2,zero,22f38 <___vfprintf_internal_r+0x22ec>
   2266c:	d8801b17 	ldw	r2,108(sp)
   22670:	1300062e 	bgeu	r2,r12,2268c <___vfprintf_internal_r+0x1a40>
   22674:	01400c04 	movi	r5,48
   22678:	11000044 	addi	r4,r2,1
   2267c:	d9001b15 	stw	r4,108(sp)
   22680:	11400005 	stb	r5,0(r2)
   22684:	d8801b17 	ldw	r2,108(sp)
   22688:	133ffb36 	bltu	r2,r12,22678 <___vfprintf_internal_r+0x1a2c>
   2268c:	d9c01717 	ldw	r7,92(sp)
   22690:	1545c83a 	sub	r2,r2,r21
   22694:	b10011d8 	cmpnei	r4,r22,71
   22698:	d8800915 	stw	r2,36(sp)
   2269c:	d9c00815 	stw	r7,32(sp)
   226a0:	2000f226 	beq	r4,zero,22a6c <___vfprintf_internal_r+0x1e20>
   226a4:	d8801017 	ldw	r2,64(sp)
   226a8:	10021d26 	beq	r2,zero,22f20 <___vfprintf_internal_r+0x22d4>
   226ac:	d9000817 	ldw	r4,32(sp)
   226b0:	6880004c 	andi	r2,r13,1
   226b4:	1204b03a 	or	r2,r2,r8
   226b8:	0102430e 	bge	zero,r4,22fc8 <___vfprintf_internal_r+0x237c>
   226bc:	1002221e 	bne	r2,zero,22f48 <___vfprintf_internal_r+0x22fc>
   226c0:	d9c00817 	ldw	r7,32(sp)
   226c4:	3819883a 	mov	r12,r7
   226c8:	07001984 	movi	fp,102
   226cc:	ddc00707 	ldb	r23,28(sp)
   226d0:	b8013526 	beq	r23,zero,22ba8 <___vfprintf_internal_r+0x1f5c>
   226d4:	00800b44 	movi	r2,45
   226d8:	d8801645 	stb	r2,89(sp)
   226dc:	d8800f17 	ldw	r2,60(sp)
   226e0:	0011883a 	mov	r8,zero
   226e4:	d8800715 	stw	r2,28(sp)
   226e8:	003ae806 	br	2128c <___vfprintf_internal_r+0x640>
   226ec:	d9400417 	ldw	r5,16(sp)
   226f0:	d9000517 	ldw	r4,20(sp)
   226f4:	d9801d04 	addi	r6,sp,116
   226f8:	db000f15 	stw	r12,60(sp)
   226fc:	d8c00815 	stw	r3,32(sp)
   22700:	00284400 	call	28440 <__sprint_r>
   22704:	103a5c1e 	bne	r2,zero,21078 <___vfprintf_internal_r+0x42c>
   22708:	dd801f17 	ldw	r22,124(sp)
   2270c:	db000f17 	ldw	r12,60(sp)
   22710:	d8c00817 	ldw	r3,32(sp)
   22714:	8825883a 	mov	r18,r17
   22718:	003c3106 	br	217e0 <___vfprintf_internal_r+0xb94>
   2271c:	d9400417 	ldw	r5,16(sp)
   22720:	d9000517 	ldw	r4,20(sp)
   22724:	d9801d04 	addi	r6,sp,116
   22728:	db000f15 	stw	r12,60(sp)
   2272c:	d8c00815 	stw	r3,32(sp)
   22730:	00284400 	call	28440 <__sprint_r>
   22734:	103a501e 	bne	r2,zero,21078 <___vfprintf_internal_r+0x42c>
   22738:	df001f17 	ldw	fp,124(sp)
   2273c:	da001e17 	ldw	r8,120(sp)
   22740:	d8c00817 	ldw	r3,32(sp)
   22744:	db000f17 	ldw	r12,60(sp)
   22748:	882f883a 	mov	r23,r17
   2274c:	003d2b06 	br	21bfc <___vfprintf_internal_r+0xfb0>
   22750:	d9400417 	ldw	r5,16(sp)
   22754:	d9000517 	ldw	r4,20(sp)
   22758:	d9801d04 	addi	r6,sp,116
   2275c:	db001315 	stw	r12,76(sp)
   22760:	d9c01215 	stw	r7,72(sp)
   22764:	da001015 	stw	r8,64(sp)
   22768:	d8c00f15 	stw	r3,60(sp)
   2276c:	00284400 	call	28440 <__sprint_r>
   22770:	103a411e 	bne	r2,zero,21078 <___vfprintf_internal_r+0x42c>
   22774:	dd801f17 	ldw	r22,124(sp)
   22778:	db001317 	ldw	r12,76(sp)
   2277c:	d9c01217 	ldw	r7,72(sp)
   22780:	da001017 	ldw	r8,64(sp)
   22784:	d8c00f17 	ldw	r3,60(sp)
   22788:	8825883a 	mov	r18,r17
   2278c:	003a1c06 	br	21000 <___vfprintf_internal_r+0x3b4>
   22790:	d8800d17 	ldw	r2,52(sp)
   22794:	d9400c17 	ldw	r5,48(sp)
   22798:	90800015 	stw	r2,0(r18)
   2279c:	d8801e17 	ldw	r2,120(sp)
   227a0:	2909883a 	add	r4,r5,r4
   227a4:	91400115 	stw	r5,4(r18)
   227a8:	10800044 	addi	r2,r2,1
   227ac:	d9001f15 	stw	r4,124(sp)
   227b0:	d8801e15 	stw	r2,120(sp)
   227b4:	11400208 	cmpgei	r5,r2,8
   227b8:	28006f1e 	bne	r5,zero,22978 <___vfprintf_internal_r+0x1d2c>
   227bc:	94800204 	addi	r18,r18,8
   227c0:	b83f600e 	bge	r23,zero,22544 <___vfprintf_internal_r+0x18f8>
   227c4:	058000f4 	movhi	r22,3
   227c8:	b97ffc08 	cmpgei	r5,r23,-16
   227cc:	b581b704 	addi	r22,r22,1756
   227d0:	05efc83a 	sub	r23,zero,r23
   227d4:	2801941e 	bne	r5,zero,22e28 <___vfprintf_internal_r+0x21dc>
   227d8:	d8c00815 	stw	r3,32(sp)
   227dc:	07000404 	movi	fp,16
   227e0:	9007883a 	mov	r3,r18
   227e4:	8025883a 	mov	r18,r16
   227e8:	b021883a 	mov	r16,r22
   227ec:	982d883a 	mov	r22,r19
   227f0:	6027883a 	mov	r19,r12
   227f4:	00000406 	br	22808 <___vfprintf_internal_r+0x1bbc>
   227f8:	18c00204 	addi	r3,r3,8
   227fc:	bdfffc04 	addi	r23,r23,-16
   22800:	b9400448 	cmpgei	r5,r23,17
   22804:	28018226 	beq	r5,zero,22e10 <___vfprintf_internal_r+0x21c4>
   22808:	10800044 	addi	r2,r2,1
   2280c:	21000404 	addi	r4,r4,16
   22810:	1c000015 	stw	r16,0(r3)
   22814:	1f000115 	stw	fp,4(r3)
   22818:	d9001f15 	stw	r4,124(sp)
   2281c:	d8801e15 	stw	r2,120(sp)
   22820:	11400208 	cmpgei	r5,r2,8
   22824:	283ff426 	beq	r5,zero,227f8 <___vfprintf_internal_r+0x1bac>
   22828:	d9400417 	ldw	r5,16(sp)
   2282c:	d9000517 	ldw	r4,20(sp)
   22830:	d9801d04 	addi	r6,sp,116
   22834:	00284400 	call	28440 <__sprint_r>
   22838:	103a0f1e 	bne	r2,zero,21078 <___vfprintf_internal_r+0x42c>
   2283c:	d9001f17 	ldw	r4,124(sp)
   22840:	d8801e17 	ldw	r2,120(sp)
   22844:	8807883a 	mov	r3,r17
   22848:	003fec06 	br	227fc <___vfprintf_internal_r+0x1bb0>
   2284c:	b019883a 	mov	r12,r22
   22850:	902d883a 	mov	r22,r18
   22854:	8025883a 	mov	r18,r16
   22858:	a021883a 	mov	r16,r20
   2285c:	b829883a 	mov	r20,r23
   22860:	102f883a 	mov	r23,r2
   22864:	e005883a 	mov	r2,fp
   22868:	1839883a 	mov	fp,r3
   2286c:	9807883a 	mov	r3,r19
   22870:	1027883a 	mov	r19,r2
   22874:	42000044 	addi	r8,r8,1
   22878:	e4b9883a 	add	fp,fp,r18
   2287c:	bd800015 	stw	r22,0(r23)
   22880:	003cd806 	br	21be4 <___vfprintf_internal_r+0xf98>
   22884:	a809883a 	mov	r4,r21
   22888:	0020bb40 	call	20bb4 <strlen>
   2288c:	db400817 	ldw	r13,32(sp)
   22890:	100f883a 	mov	r7,r2
   22894:	1019883a 	mov	r12,r2
   22898:	dd800715 	stw	r22,28(sp)
   2289c:	0039b006 	br	20f60 <___vfprintf_internal_r+0x314>
   228a0:	054000f4 	movhi	r21,3
   228a4:	ad41a604 	addi	r21,r21,1688
   228a8:	003af606 	br	21484 <___vfprintf_internal_r+0x838>
   228ac:	058000f4 	movhi	r22,3
   228b0:	b581b704 	addi	r22,r22,1756
   228b4:	003c7806 	br	21a98 <___vfprintf_internal_r+0xe4c>
   228b8:	a019883a 	mov	r12,r20
   228bc:	b029883a 	mov	r20,r22
   228c0:	902d883a 	mov	r22,r18
   228c4:	1825883a 	mov	r18,r3
   228c8:	d8c00f17 	ldw	r3,60(sp)
   228cc:	b80b883a 	mov	r5,r23
   228d0:	802f883a 	mov	r23,r16
   228d4:	9821883a 	mov	r16,r19
   228d8:	2827883a 	mov	r19,r5
   228dc:	10800044 	addi	r2,r2,1
   228e0:	b909883a 	add	r4,r23,r4
   228e4:	d8801e15 	stw	r2,120(sp)
   228e8:	95800015 	stw	r22,0(r18)
   228ec:	95c00115 	stw	r23,4(r18)
   228f0:	d9001f15 	stw	r4,124(sp)
   228f4:	10800208 	cmpgei	r2,r2,8
   228f8:	10004a1e 	bne	r2,zero,22a24 <___vfprintf_internal_r+0x1dd8>
   228fc:	94800204 	addi	r18,r18,8
   22900:	202d883a 	mov	r22,r4
   22904:	003d6406 	br	21e98 <___vfprintf_internal_r+0x124c>
   22908:	00800b44 	movi	r2,45
   2290c:	d8801645 	stb	r2,89(sp)
   22910:	01000b44 	movi	r4,45
   22914:	003ad706 	br	21474 <___vfprintf_internal_r+0x828>
   22918:	d9400417 	ldw	r5,16(sp)
   2291c:	d9000517 	ldw	r4,20(sp)
   22920:	d9801d04 	addi	r6,sp,116
   22924:	db000f15 	stw	r12,60(sp)
   22928:	d8c00815 	stw	r3,32(sp)
   2292c:	00284400 	call	28440 <__sprint_r>
   22930:	1039d11e 	bne	r2,zero,21078 <___vfprintf_internal_r+0x42c>
   22934:	ddc01717 	ldw	r23,92(sp)
   22938:	d9001f17 	ldw	r4,124(sp)
   2293c:	db000f17 	ldw	r12,60(sp)
   22940:	d8c00817 	ldw	r3,32(sp)
   22944:	8825883a 	mov	r18,r17
   22948:	003eed06 	br	22500 <___vfprintf_internal_r+0x18b4>
   2294c:	15e0003c 	xorhi	r23,r2,32768
   22950:	00800b44 	movi	r2,45
   22954:	d8800705 	stb	r2,28(sp)
   22958:	003f1906 	br	225c0 <___vfprintf_internal_r+0x1974>
   2295c:	01c00184 	movi	r7,6
   22960:	003e3f06 	br	22260 <___vfprintf_internal_r+0x1614>
   22964:	d9400417 	ldw	r5,16(sp)
   22968:	d9000517 	ldw	r4,20(sp)
   2296c:	d9801d04 	addi	r6,sp,116
   22970:	00284400 	call	28440 <__sprint_r>
   22974:	0039c006 	br	21078 <___vfprintf_internal_r+0x42c>
   22978:	d9400417 	ldw	r5,16(sp)
   2297c:	d9000517 	ldw	r4,20(sp)
   22980:	d9801d04 	addi	r6,sp,116
   22984:	db000f15 	stw	r12,60(sp)
   22988:	d8c00815 	stw	r3,32(sp)
   2298c:	00284400 	call	28440 <__sprint_r>
   22990:	1039b91e 	bne	r2,zero,21078 <___vfprintf_internal_r+0x42c>
   22994:	ddc01717 	ldw	r23,92(sp)
   22998:	d9001f17 	ldw	r4,124(sp)
   2299c:	d8801e17 	ldw	r2,120(sp)
   229a0:	db000f17 	ldw	r12,60(sp)
   229a4:	d8c00817 	ldw	r3,32(sp)
   229a8:	8825883a 	mov	r18,r17
   229ac:	b83ee50e 	bge	r23,zero,22544 <___vfprintf_internal_r+0x18f8>
   229b0:	003f8406 	br	227c4 <___vfprintf_internal_r+0x1b78>
   229b4:	d8801b04 	addi	r2,sp,108
   229b8:	d8800315 	stw	r2,12(sp)
   229bc:	d9400a17 	ldw	r5,40(sp)
   229c0:	d8801804 	addi	r2,sp,96
   229c4:	d9000517 	ldw	r4,20(sp)
   229c8:	d8c01315 	stw	r3,76(sp)
   229cc:	d8800215 	stw	r2,8(sp)
   229d0:	40c00044 	addi	r3,r8,1
   229d4:	d8801704 	addi	r2,sp,92
   229d8:	d8c00015 	stw	r3,0(sp)
   229dc:	d8800115 	stw	r2,4(sp)
   229e0:	01c00084 	movi	r7,2
   229e4:	b80d883a 	mov	r6,r23
   229e8:	db401215 	stw	r13,72(sp)
   229ec:	da000815 	stw	r8,32(sp)
   229f0:	d8c00915 	stw	r3,36(sp)
   229f4:	002341c0 	call	2341c <_dtoa_r>
   229f8:	da000817 	ldw	r8,32(sp)
   229fc:	db401217 	ldw	r13,72(sp)
   22a00:	d8c01317 	ldw	r3,76(sp)
   22a04:	102b883a 	mov	r21,r2
   22a08:	e08011d8 	cmpnei	r2,fp,71
   22a0c:	1001351e 	bne	r2,zero,22ee4 <___vfprintf_internal_r+0x2298>
   22a10:	6880004c 	andi	r2,r13,1
   22a14:	10001126 	beq	r2,zero,22a5c <___vfprintf_internal_r+0x1e10>
   22a18:	d8800917 	ldw	r2,36(sp)
   22a1c:	a899883a 	add	r12,r21,r2
   22a20:	003f0406 	br	22634 <___vfprintf_internal_r+0x19e8>
   22a24:	d9400417 	ldw	r5,16(sp)
   22a28:	d9000517 	ldw	r4,20(sp)
   22a2c:	d9801d04 	addi	r6,sp,116
   22a30:	db001015 	stw	r12,64(sp)
   22a34:	d8c00f15 	stw	r3,60(sp)
   22a38:	00284400 	call	28440 <__sprint_r>
   22a3c:	10398e1e 	bne	r2,zero,21078 <___vfprintf_internal_r+0x42c>
   22a40:	dd801f17 	ldw	r22,124(sp)
   22a44:	db001017 	ldw	r12,64(sp)
   22a48:	d8c00f17 	ldw	r3,60(sp)
   22a4c:	8825883a 	mov	r18,r17
   22a50:	003d1106 	br	21e98 <___vfprintf_internal_r+0x124c>
   22a54:	da000915 	stw	r8,36(sp)
   22a58:	003feb06 	br	22a08 <___vfprintf_internal_r+0x1dbc>
   22a5c:	d8801b17 	ldw	r2,108(sp)
   22a60:	d9c01717 	ldw	r7,92(sp)
   22a64:	1545c83a 	sub	r2,r2,r21
   22a68:	d8800915 	stw	r2,36(sp)
   22a6c:	38bfff48 	cmpgei	r2,r7,-3
   22a70:	d9c00815 	stw	r7,32(sp)
   22a74:	1000b31e 	bne	r2,zero,22d44 <___vfprintf_internal_r+0x20f8>
   22a78:	e73fff84 	addi	fp,fp,-2
   22a7c:	397fffc4 	addi	r5,r7,-1
   22a80:	e005883a 	mov	r2,fp
   22a84:	01000044 	movi	r4,1
   22a88:	21efc83a 	sub	r23,r4,r7
   22a8c:	01000b44 	movi	r4,45
   22a90:	21003fcc 	andi	r4,r4,255
   22a94:	2008923a 	slli	r4,r4,8
   22a98:	10803fcc 	andi	r2,r2,255
   22a9c:	d9401715 	stw	r5,92(sp)
   22aa0:	1104b03a 	or	r2,r2,r4
   22aa4:	d880190d 	sth	r2,100(sp)
   22aa8:	b8800290 	cmplti	r2,r23,10
   22aac:	1000c71e 	bne	r2,zero,22dcc <___vfprintf_internal_r+0x2180>
   22ab0:	dd801cc4 	addi	r22,sp,115
   22ab4:	9805883a 	mov	r2,r19
   22ab8:	db400815 	stw	r13,32(sp)
   22abc:	b027883a 	mov	r19,r22
   22ac0:	d8c01015 	stw	r3,64(sp)
   22ac4:	a02d883a 	mov	r22,r20
   22ac8:	dc001115 	stw	r16,68(sp)
   22acc:	9029883a 	mov	r20,r18
   22ad0:	b825883a 	mov	r18,r23
   22ad4:	102f883a 	mov	r23,r2
   22ad8:	9009883a 	mov	r4,r18
   22adc:	01400284 	movi	r5,10
   22ae0:	00209380 	call	20938 <__modsi3>
   22ae4:	10800c04 	addi	r2,r2,48
   22ae8:	9009883a 	mov	r4,r18
   22aec:	01400284 	movi	r5,10
   22af0:	98bfffc5 	stb	r2,-1(r19)
   22af4:	00208b80 	call	208b8 <__divsi3>
   22af8:	91401908 	cmpgei	r5,r18,100
   22afc:	9821883a 	mov	r16,r19
   22b00:	1025883a 	mov	r18,r2
   22b04:	9cffffc4 	addi	r19,r19,-1
   22b08:	283ff31e 	bne	r5,zero,22ad8 <___vfprintf_internal_r+0x1e8c>
   22b0c:	b805883a 	mov	r2,r23
   22b10:	902f883a 	mov	r23,r18
   22b14:	8009883a 	mov	r4,r16
   22b18:	a025883a 	mov	r18,r20
   22b1c:	b029883a 	mov	r20,r22
   22b20:	982d883a 	mov	r22,r19
   22b24:	1027883a 	mov	r19,r2
   22b28:	b8800c04 	addi	r2,r23,48
   22b2c:	b0bfffc5 	stb	r2,-1(r22)
   22b30:	217fff84 	addi	r5,r4,-2
   22b34:	d8801cc4 	addi	r2,sp,115
   22b38:	db400817 	ldw	r13,32(sp)
   22b3c:	d8c01017 	ldw	r3,64(sp)
   22b40:	dc001117 	ldw	r16,68(sp)
   22b44:	28810e2e 	bgeu	r5,r2,22f80 <___vfprintf_internal_r+0x2334>
   22b48:	d8801d44 	addi	r2,sp,117
   22b4c:	112dc83a 	sub	r22,r2,r4
   22b50:	b00d883a 	mov	r6,r22
   22b54:	d9001984 	addi	r4,sp,102
   22b58:	002674c0 	call	2674c <memcpy>
   22b5c:	d8801984 	addi	r2,sp,102
   22b60:	1585883a 	add	r2,r2,r22
   22b64:	d9001904 	addi	r4,sp,100
   22b68:	db400817 	ldw	r13,32(sp)
   22b6c:	d8c01017 	ldw	r3,64(sp)
   22b70:	1105c83a 	sub	r2,r2,r4
   22b74:	d8801115 	stw	r2,68(sp)
   22b78:	d9000917 	ldw	r4,36(sp)
   22b7c:	d9401117 	ldw	r5,68(sp)
   22b80:	20800088 	cmpgei	r2,r4,2
   22b84:	214f883a 	add	r7,r4,r5
   22b88:	10009726 	beq	r2,zero,22de8 <___vfprintf_internal_r+0x219c>
   22b8c:	d8800c17 	ldw	r2,48(sp)
   22b90:	388f883a 	add	r7,r7,r2
   22b94:	3819883a 	mov	r12,r7
   22b98:	3800010e 	bge	r7,zero,22ba0 <___vfprintf_internal_r+0x1f54>
   22b9c:	0019883a 	mov	r12,zero
   22ba0:	d8000815 	stw	zero,32(sp)
   22ba4:	003ec906 	br	226cc <___vfprintf_internal_r+0x1a80>
   22ba8:	d8800f17 	ldw	r2,60(sp)
   22bac:	d9001643 	ldbu	r4,89(sp)
   22bb0:	0011883a 	mov	r8,zero
   22bb4:	d8800715 	stw	r2,28(sp)
   22bb8:	0039b006 	br	2127c <___vfprintf_internal_r+0x630>
   22bbc:	d8801b04 	addi	r2,sp,108
   22bc0:	d8800315 	stw	r2,12(sp)
   22bc4:	d9400a17 	ldw	r5,40(sp)
   22bc8:	d8801804 	addi	r2,sp,96
   22bcc:	d9000517 	ldw	r4,20(sp)
   22bd0:	d8800215 	stw	r2,8(sp)
   22bd4:	d8801704 	addi	r2,sp,92
   22bd8:	da000015 	stw	r8,0(sp)
   22bdc:	d8800115 	stw	r2,4(sp)
   22be0:	01c000c4 	movi	r7,3
   22be4:	b80d883a 	mov	r6,r23
   22be8:	d8c01215 	stw	r3,72(sp)
   22bec:	db400915 	stw	r13,36(sp)
   22bf0:	da000815 	stw	r8,32(sp)
   22bf4:	002341c0 	call	2341c <_dtoa_r>
   22bf8:	102b883a 	mov	r21,r2
   22bfc:	10800007 	ldb	r2,0(r2)
   22c00:	da000817 	ldw	r8,32(sp)
   22c04:	db400917 	ldw	r13,36(sp)
   22c08:	10800c20 	cmpeqi	r2,r2,48
   22c0c:	d8c01217 	ldw	r3,72(sp)
   22c10:	10009c1e 	bne	r2,zero,22e84 <___vfprintf_internal_r+0x2238>
   22c14:	d8801717 	ldw	r2,92(sp)
   22c18:	d9000a17 	ldw	r4,40(sp)
   22c1c:	1219883a 	add	r12,r2,r8
   22c20:	000d883a 	mov	r6,zero
   22c24:	000f883a 	mov	r7,zero
   22c28:	b80b883a 	mov	r5,r23
   22c2c:	d8c01315 	stw	r3,76(sp)
   22c30:	db401215 	stw	r13,72(sp)
   22c34:	da000915 	stw	r8,36(sp)
   22c38:	db000815 	stw	r12,32(sp)
   22c3c:	002c4840 	call	2c484 <__eqdf2>
   22c40:	db000817 	ldw	r12,32(sp)
   22c44:	da000917 	ldw	r8,36(sp)
   22c48:	db401217 	ldw	r13,72(sp)
   22c4c:	d8c01317 	ldw	r3,76(sp)
   22c50:	10008a1e 	bne	r2,zero,22e7c <___vfprintf_internal_r+0x2230>
   22c54:	d8801717 	ldw	r2,92(sp)
   22c58:	db000915 	stw	r12,36(sp)
   22c5c:	d8800815 	stw	r2,32(sp)
   22c60:	003e9206 	br	226ac <___vfprintf_internal_r+0x1a60>
   22c64:	d9400417 	ldw	r5,16(sp)
   22c68:	d9000517 	ldw	r4,20(sp)
   22c6c:	d9801d04 	addi	r6,sp,116
   22c70:	db001015 	stw	r12,64(sp)
   22c74:	d8c00f15 	stw	r3,60(sp)
   22c78:	00284400 	call	28440 <__sprint_r>
   22c7c:	1038fe1e 	bne	r2,zero,21078 <___vfprintf_internal_r+0x42c>
   22c80:	ddc01717 	ldw	r23,92(sp)
   22c84:	d9001f17 	ldw	r4,124(sp)
   22c88:	db001017 	ldw	r12,64(sp)
   22c8c:	d8c00f17 	ldw	r3,60(sp)
   22c90:	8825883a 	mov	r18,r17
   22c94:	003c8f06 	br	21ed4 <___vfprintf_internal_r+0x1288>
   22c98:	b80b883a 	mov	r5,r23
   22c9c:	a019883a 	mov	r12,r20
   22ca0:	802f883a 	mov	r23,r16
   22ca4:	b029883a 	mov	r20,r22
   22ca8:	9821883a 	mov	r16,r19
   22cac:	902d883a 	mov	r22,r18
   22cb0:	2827883a 	mov	r19,r5
   22cb4:	1825883a 	mov	r18,r3
   22cb8:	d8c00817 	ldw	r3,32(sp)
   22cbc:	003c2706 	br	21d5c <___vfprintf_internal_r+0x1110>
   22cc0:	403e3a1e 	bne	r8,zero,225ac <___vfprintf_internal_r+0x1960>
   22cc4:	02000044 	movi	r8,1
   22cc8:	003e3806 	br	225ac <___vfprintf_internal_r+0x1960>
   22ccc:	d9400417 	ldw	r5,16(sp)
   22cd0:	d9000517 	ldw	r4,20(sp)
   22cd4:	d9801d04 	addi	r6,sp,116
   22cd8:	db001015 	stw	r12,64(sp)
   22cdc:	d8c00f15 	stw	r3,60(sp)
   22ce0:	00284400 	call	28440 <__sprint_r>
   22ce4:	1038e41e 	bne	r2,zero,21078 <___vfprintf_internal_r+0x42c>
   22ce8:	dd801f17 	ldw	r22,124(sp)
   22cec:	db001017 	ldw	r12,64(sp)
   22cf0:	d8c00f17 	ldw	r3,60(sp)
   22cf4:	8825883a 	mov	r18,r17
   22cf8:	b83c640e 	bge	r23,zero,21e8c <___vfprintf_internal_r+0x1240>
   22cfc:	003d3306 	br	221cc <___vfprintf_internal_r+0x1580>
   22d00:	02000184 	movi	r8,6
   22d04:	003e2906 	br	225ac <___vfprintf_internal_r+0x1960>
   22d08:	d9400417 	ldw	r5,16(sp)
   22d0c:	d9000517 	ldw	r4,20(sp)
   22d10:	d9801d04 	addi	r6,sp,116
   22d14:	db000f15 	stw	r12,60(sp)
   22d18:	d8c00815 	stw	r3,32(sp)
   22d1c:	00284400 	call	28440 <__sprint_r>
   22d20:	1038d51e 	bne	r2,zero,21078 <___vfprintf_internal_r+0x42c>
   22d24:	ddc01717 	ldw	r23,92(sp)
   22d28:	d8800917 	ldw	r2,36(sp)
   22d2c:	d9001f17 	ldw	r4,124(sp)
   22d30:	db000f17 	ldw	r12,60(sp)
   22d34:	d8c00817 	ldw	r3,32(sp)
   22d38:	8825883a 	mov	r18,r17
   22d3c:	15efc83a 	sub	r23,r2,r23
   22d40:	003c7706 	br	21f20 <___vfprintf_internal_r+0x12d4>
   22d44:	41c0060e 	bge	r8,r7,22d60 <___vfprintf_internal_r+0x2114>
   22d48:	e73fff84 	addi	fp,fp,-2
   22d4c:	3dffffc4 	addi	r23,r7,-1
   22d50:	e005883a 	mov	r2,fp
   22d54:	b80b883a 	mov	r5,r23
   22d58:	01000ac4 	movi	r4,43
   22d5c:	003f4c06 	br	22a90 <___vfprintf_internal_r+0x1e44>
   22d60:	d9000917 	ldw	r4,36(sp)
   22d64:	39000916 	blt	r7,r4,22d8c <___vfprintf_internal_r+0x2140>
   22d68:	6b40004c 	andi	r13,r13,1
   22d6c:	68000f26 	beq	r13,zero,22dac <___vfprintf_internal_r+0x2160>
   22d70:	d8800817 	ldw	r2,32(sp)
   22d74:	d9000c17 	ldw	r4,48(sp)
   22d78:	110f883a 	add	r7,r2,r4
   22d7c:	3819883a 	mov	r12,r7
   22d80:	38000c16 	blt	r7,zero,22db4 <___vfprintf_internal_r+0x2168>
   22d84:	070019c4 	movi	fp,103
   22d88:	003e5006 	br	226cc <___vfprintf_internal_r+0x1a80>
   22d8c:	d8800917 	ldw	r2,36(sp)
   22d90:	d9000c17 	ldw	r4,48(sp)
   22d94:	110f883a 	add	r7,r2,r4
   22d98:	d8800817 	ldw	r2,32(sp)
   22d9c:	00800316 	blt	zero,r2,22dac <___vfprintf_internal_r+0x2160>
   22da0:	d8800817 	ldw	r2,32(sp)
   22da4:	388fc83a 	sub	r7,r7,r2
   22da8:	39c00044 	addi	r7,r7,1
   22dac:	3819883a 	mov	r12,r7
   22db0:	383ff40e 	bge	r7,zero,22d84 <___vfprintf_internal_r+0x2138>
   22db4:	0019883a 	mov	r12,zero
   22db8:	003ff206 	br	22d84 <___vfprintf_internal_r+0x2138>
   22dbc:	4019883a 	mov	r12,r8
   22dc0:	dd800715 	stw	r22,28(sp)
   22dc4:	400f883a 	mov	r7,r8
   22dc8:	00386506 	br	20f60 <___vfprintf_internal_r+0x314>
   22dcc:	b8800c04 	addi	r2,r23,48
   22dd0:	01000c04 	movi	r4,48
   22dd4:	d88019c5 	stb	r2,103(sp)
   22dd8:	00800104 	movi	r2,4
   22ddc:	d9001985 	stb	r4,102(sp)
   22de0:	d8801115 	stw	r2,68(sp)
   22de4:	003f6406 	br	22b78 <___vfprintf_internal_r+0x1f2c>
   22de8:	6880004c 	andi	r2,r13,1
   22dec:	d8800815 	stw	r2,32(sp)
   22df0:	103f661e 	bne	r2,zero,22b8c <___vfprintf_internal_r+0x1f40>
   22df4:	3819883a 	mov	r12,r7
   22df8:	383e340e 	bge	r7,zero,226cc <___vfprintf_internal_r+0x1a80>
   22dfc:	0019883a 	mov	r12,zero
   22e00:	003e3206 	br	226cc <___vfprintf_internal_r+0x1a80>
   22e04:	00bfffc4 	movi	r2,-1
   22e08:	d8800615 	stw	r2,24(sp)
   22e0c:	00389e06 	br	21088 <___vfprintf_internal_r+0x43c>
   22e10:	9819883a 	mov	r12,r19
   22e14:	b027883a 	mov	r19,r22
   22e18:	802d883a 	mov	r22,r16
   22e1c:	9021883a 	mov	r16,r18
   22e20:	1825883a 	mov	r18,r3
   22e24:	d8c00817 	ldw	r3,32(sp)
   22e28:	10800044 	addi	r2,r2,1
   22e2c:	25c9883a 	add	r4,r4,r23
   22e30:	95800015 	stw	r22,0(r18)
   22e34:	95c00115 	stw	r23,4(r18)
   22e38:	d9001f15 	stw	r4,124(sp)
   22e3c:	d8801e15 	stw	r2,120(sp)
   22e40:	11400208 	cmpgei	r5,r2,8
   22e44:	283dbe26 	beq	r5,zero,22540 <___vfprintf_internal_r+0x18f4>
   22e48:	d9400417 	ldw	r5,16(sp)
   22e4c:	d9000517 	ldw	r4,20(sp)
   22e50:	d9801d04 	addi	r6,sp,116
   22e54:	db000f15 	stw	r12,60(sp)
   22e58:	d8c00815 	stw	r3,32(sp)
   22e5c:	00284400 	call	28440 <__sprint_r>
   22e60:	1038851e 	bne	r2,zero,21078 <___vfprintf_internal_r+0x42c>
   22e64:	d9001f17 	ldw	r4,124(sp)
   22e68:	d8801e17 	ldw	r2,120(sp)
   22e6c:	db000f17 	ldw	r12,60(sp)
   22e70:	d8c00817 	ldw	r3,32(sp)
   22e74:	8825883a 	mov	r18,r17
   22e78:	003db206 	br	22544 <___vfprintf_internal_r+0x18f8>
   22e7c:	ab19883a 	add	r12,r21,r12
   22e80:	003dfa06 	br	2266c <___vfprintf_internal_r+0x1a20>
   22e84:	d9000a17 	ldw	r4,40(sp)
   22e88:	000d883a 	mov	r6,zero
   22e8c:	000f883a 	mov	r7,zero
   22e90:	b80b883a 	mov	r5,r23
   22e94:	da001215 	stw	r8,72(sp)
   22e98:	d8c00915 	stw	r3,36(sp)
   22e9c:	db400815 	stw	r13,32(sp)
   22ea0:	002c4840 	call	2c484 <__eqdf2>
   22ea4:	db400817 	ldw	r13,32(sp)
   22ea8:	d8c00917 	ldw	r3,36(sp)
   22eac:	da001217 	ldw	r8,72(sp)
   22eb0:	103f5826 	beq	r2,zero,22c14 <___vfprintf_internal_r+0x1fc8>
   22eb4:	00800044 	movi	r2,1
   22eb8:	1205c83a 	sub	r2,r2,r8
   22ebc:	d8801715 	stw	r2,92(sp)
   22ec0:	003f5506 	br	22c18 <___vfprintf_internal_r+0x1fcc>
   22ec4:	d8800b17 	ldw	r2,44(sp)
   22ec8:	10002916 	blt	r2,zero,22f70 <___vfprintf_internal_r+0x2324>
   22ecc:	d9001643 	ldbu	r4,89(sp)
   22ed0:	e0801210 	cmplti	r2,fp,72
   22ed4:	1000231e 	bne	r2,zero,22f64 <___vfprintf_internal_r+0x2318>
   22ed8:	054000f4 	movhi	r21,3
   22edc:	ad41a904 	addi	r21,r21,1700
   22ee0:	00396806 	br	21484 <___vfprintf_internal_r+0x838>
   22ee4:	d9000a17 	ldw	r4,40(sp)
   22ee8:	000d883a 	mov	r6,zero
   22eec:	000f883a 	mov	r7,zero
   22ef0:	b80b883a 	mov	r5,r23
   22ef4:	da001315 	stw	r8,76(sp)
   22ef8:	d8c01215 	stw	r3,72(sp)
   22efc:	db400815 	stw	r13,32(sp)
   22f00:	002c4840 	call	2c484 <__eqdf2>
   22f04:	db400817 	ldw	r13,32(sp)
   22f08:	d8c01217 	ldw	r3,72(sp)
   22f0c:	da001317 	ldw	r8,76(sp)
   22f10:	10002a1e 	bne	r2,zero,22fbc <___vfprintf_internal_r+0x2370>
   22f14:	b08011e0 	cmpeqi	r2,r22,71
   22f18:	d9c01717 	ldw	r7,92(sp)
   22f1c:	103ed31e 	bne	r2,zero,22a6c <___vfprintf_internal_r+0x1e20>
   22f20:	397fffc4 	addi	r5,r7,-1
   22f24:	e005883a 	mov	r2,fp
   22f28:	283ed616 	blt	r5,zero,22a84 <___vfprintf_internal_r+0x1e38>
   22f2c:	282f883a 	mov	r23,r5
   22f30:	01000ac4 	movi	r4,43
   22f34:	003ed606 	br	22a90 <___vfprintf_internal_r+0x1e44>
   22f38:	6545c83a 	sub	r2,r12,r21
   22f3c:	d9c01717 	ldw	r7,92(sp)
   22f40:	d8800915 	stw	r2,36(sp)
   22f44:	003ec906 	br	22a6c <___vfprintf_internal_r+0x1e20>
   22f48:	d8800c17 	ldw	r2,48(sp)
   22f4c:	208f883a 	add	r7,r4,r2
   22f50:	3a0f883a 	add	r7,r7,r8
   22f54:	3819883a 	mov	r12,r7
   22f58:	383ddb0e 	bge	r7,zero,226c8 <___vfprintf_internal_r+0x1a7c>
   22f5c:	0019883a 	mov	r12,zero
   22f60:	003dd906 	br	226c8 <___vfprintf_internal_r+0x1a7c>
   22f64:	054000f4 	movhi	r21,3
   22f68:	ad41a804 	addi	r21,r21,1696
   22f6c:	00394506 	br	21484 <___vfprintf_internal_r+0x838>
   22f70:	00800b44 	movi	r2,45
   22f74:	d8801645 	stb	r2,89(sp)
   22f78:	01000b44 	movi	r4,45
   22f7c:	003fd406 	br	22ed0 <___vfprintf_internal_r+0x2284>
   22f80:	00800084 	movi	r2,2
   22f84:	d8801115 	stw	r2,68(sp)
   22f88:	003efb06 	br	22b78 <___vfprintf_internal_r+0x1f2c>
   22f8c:	d8800717 	ldw	r2,28(sp)
   22f90:	12000017 	ldw	r8,0(r2)
   22f94:	10800104 	addi	r2,r2,4
   22f98:	4000010e 	bge	r8,zero,22fa0 <___vfprintf_internal_r+0x2354>
   22f9c:	023fffc4 	movi	r8,-1
   22fa0:	a7000043 	ldbu	fp,1(r20)
   22fa4:	d8800715 	stw	r2,28(sp)
   22fa8:	1829883a 	mov	r20,r3
   22fac:	e2c03fcc 	andi	r11,fp,255
   22fb0:	5ac0201c 	xori	r11,r11,128
   22fb4:	5affe004 	addi	r11,r11,-128
   22fb8:	00377406 	br	20d8c <___vfprintf_internal_r+0x140>
   22fbc:	d8800917 	ldw	r2,36(sp)
   22fc0:	a899883a 	add	r12,r21,r2
   22fc4:	003da906 	br	2266c <___vfprintf_internal_r+0x1a20>
   22fc8:	1000041e 	bne	r2,zero,22fdc <___vfprintf_internal_r+0x2390>
   22fcc:	03000044 	movi	r12,1
   22fd0:	07001984 	movi	fp,102
   22fd4:	01c00044 	movi	r7,1
   22fd8:	003dbc06 	br	226cc <___vfprintf_internal_r+0x1a80>
   22fdc:	d8800c17 	ldw	r2,48(sp)
   22fe0:	11c00044 	addi	r7,r2,1
   22fe4:	3a0f883a 	add	r7,r7,r8
   22fe8:	3819883a 	mov	r12,r7
   22fec:	383db60e 	bge	r7,zero,226c8 <___vfprintf_internal_r+0x1a7c>
   22ff0:	003fda06 	br	22f5c <___vfprintf_internal_r+0x2310>

00022ff4 <__vfprintf_internal>:
   22ff4:	00c000f4 	movhi	r3,3
   22ff8:	2005883a 	mov	r2,r4
   22ffc:	190a4217 	ldw	r4,10504(r3)
   23000:	300f883a 	mov	r7,r6
   23004:	280d883a 	mov	r6,r5
   23008:	100b883a 	mov	r5,r2
   2300c:	0020c4c1 	jmpi	20c4c <___vfprintf_internal_r>

00023010 <__sbprintf>:
   23010:	28c0038b 	ldhu	r3,14(r5)
   23014:	2880030b 	ldhu	r2,12(r5)
   23018:	2ac01917 	ldw	r11,100(r5)
   2301c:	1806943a 	slli	r3,r3,16
   23020:	2a800717 	ldw	r10,28(r5)
   23024:	2a400917 	ldw	r9,36(r5)
   23028:	defee204 	addi	sp,sp,-1144
   2302c:	10bfff4c 	andi	r2,r2,65533
   23030:	10c4b03a 	or	r2,r2,r3
   23034:	da001a04 	addi	r8,sp,104
   23038:	00c10004 	movi	r3,1024
   2303c:	dc011a15 	stw	r16,1128(sp)
   23040:	2821883a 	mov	r16,r5
   23044:	d80b883a 	mov	r5,sp
   23048:	dc811c15 	stw	r18,1136(sp)
   2304c:	dc411b15 	stw	r17,1132(sp)
   23050:	dfc11d15 	stw	ra,1140(sp)
   23054:	2025883a 	mov	r18,r4
   23058:	dac01915 	stw	r11,100(sp)
   2305c:	d8800315 	stw	r2,12(sp)
   23060:	da800715 	stw	r10,28(sp)
   23064:	da400915 	stw	r9,36(sp)
   23068:	da000015 	stw	r8,0(sp)
   2306c:	da000415 	stw	r8,16(sp)
   23070:	d8c00215 	stw	r3,8(sp)
   23074:	d8c00515 	stw	r3,20(sp)
   23078:	d8000615 	stw	zero,24(sp)
   2307c:	0020c4c0 	call	20c4c <___vfprintf_internal_r>
   23080:	1023883a 	mov	r17,r2
   23084:	10000d0e 	bge	r2,zero,230bc <__sbprintf+0xac>
   23088:	d880030b 	ldhu	r2,12(sp)
   2308c:	1080100c 	andi	r2,r2,64
   23090:	10000326 	beq	r2,zero,230a0 <__sbprintf+0x90>
   23094:	8080030b 	ldhu	r2,12(r16)
   23098:	10801014 	ori	r2,r2,64
   2309c:	8080030d 	sth	r2,12(r16)
   230a0:	8805883a 	mov	r2,r17
   230a4:	dfc11d17 	ldw	ra,1140(sp)
   230a8:	dc811c17 	ldw	r18,1136(sp)
   230ac:	dc411b17 	ldw	r17,1132(sp)
   230b0:	dc011a17 	ldw	r16,1128(sp)
   230b4:	dec11e04 	addi	sp,sp,1144
   230b8:	f800283a 	ret
   230bc:	d80b883a 	mov	r5,sp
   230c0:	9009883a 	mov	r4,r18
   230c4:	0024e0c0 	call	24e0c <_fflush_r>
   230c8:	103fef26 	beq	r2,zero,23088 <__sbprintf+0x78>
   230cc:	047fffc4 	movi	r17,-1
   230d0:	003fed06 	br	23088 <__sbprintf+0x78>

000230d4 <__swsetup_r>:
   230d4:	008000f4 	movhi	r2,3
   230d8:	108a4217 	ldw	r2,10504(r2)
   230dc:	defffd04 	addi	sp,sp,-12
   230e0:	dc400115 	stw	r17,4(sp)
   230e4:	dc000015 	stw	r16,0(sp)
   230e8:	dfc00215 	stw	ra,8(sp)
   230ec:	2023883a 	mov	r17,r4
   230f0:	2821883a 	mov	r16,r5
   230f4:	10000226 	beq	r2,zero,23100 <__swsetup_r+0x2c>
   230f8:	10c00e17 	ldw	r3,56(r2)
   230fc:	18001d26 	beq	r3,zero,23174 <__swsetup_r+0xa0>
   23100:	80c0030b 	ldhu	r3,12(r16)
   23104:	1880020c 	andi	r2,r3,8
   23108:	10001f26 	beq	r2,zero,23188 <__swsetup_r+0xb4>
   2310c:	80800417 	ldw	r2,16(r16)
   23110:	10002626 	beq	r2,zero,231ac <__swsetup_r+0xd8>
   23114:	1900004c 	andi	r4,r3,1
   23118:	20000b1e 	bne	r4,zero,23148 <__swsetup_r+0x74>
   2311c:	1900008c 	andi	r4,r3,2
   23120:	20002b1e 	bne	r4,zero,231d0 <__swsetup_r+0xfc>
   23124:	81000517 	ldw	r4,20(r16)
   23128:	81000215 	stw	r4,8(r16)
   2312c:	10000b26 	beq	r2,zero,2315c <__swsetup_r+0x88>
   23130:	0005883a 	mov	r2,zero
   23134:	dfc00217 	ldw	ra,8(sp)
   23138:	dc400117 	ldw	r17,4(sp)
   2313c:	dc000017 	ldw	r16,0(sp)
   23140:	dec00304 	addi	sp,sp,12
   23144:	f800283a 	ret
   23148:	81000517 	ldw	r4,20(r16)
   2314c:	80000215 	stw	zero,8(r16)
   23150:	0109c83a 	sub	r4,zero,r4
   23154:	81000615 	stw	r4,24(r16)
   23158:	103ff51e 	bne	r2,zero,23130 <__swsetup_r+0x5c>
   2315c:	1900200c 	andi	r4,r3,128
   23160:	203ff426 	beq	r4,zero,23134 <__swsetup_r+0x60>
   23164:	18c01014 	ori	r3,r3,64
   23168:	80c0030d 	sth	r3,12(r16)
   2316c:	00bfffc4 	movi	r2,-1
   23170:	003ff006 	br	23134 <__swsetup_r+0x60>
   23174:	1009883a 	mov	r4,r2
   23178:	00252240 	call	25224 <__sinit>
   2317c:	80c0030b 	ldhu	r3,12(r16)
   23180:	1880020c 	andi	r2,r3,8
   23184:	103fe11e 	bne	r2,zero,2310c <__swsetup_r+0x38>
   23188:	1880040c 	andi	r2,r3,16
   2318c:	10002026 	beq	r2,zero,23210 <__swsetup_r+0x13c>
   23190:	1880010c 	andi	r2,r3,4
   23194:	1000101e 	bne	r2,zero,231d8 <__swsetup_r+0x104>
   23198:	80800417 	ldw	r2,16(r16)
   2319c:	19000214 	ori	r4,r3,8
   231a0:	8100030d 	sth	r4,12(r16)
   231a4:	2007883a 	mov	r3,r4
   231a8:	103fda1e 	bne	r2,zero,23114 <__swsetup_r+0x40>
   231ac:	1900a00c 	andi	r4,r3,640
   231b0:	21008020 	cmpeqi	r4,r4,512
   231b4:	203fd71e 	bne	r4,zero,23114 <__swsetup_r+0x40>
   231b8:	800b883a 	mov	r5,r16
   231bc:	8809883a 	mov	r4,r17
   231c0:	0025c9c0 	call	25c9c <__smakebuf_r>
   231c4:	80c0030b 	ldhu	r3,12(r16)
   231c8:	80800417 	ldw	r2,16(r16)
   231cc:	003fd106 	br	23114 <__swsetup_r+0x40>
   231d0:	0009883a 	mov	r4,zero
   231d4:	003fd406 	br	23128 <__swsetup_r+0x54>
   231d8:	81400c17 	ldw	r5,48(r16)
   231dc:	28000626 	beq	r5,zero,231f8 <__swsetup_r+0x124>
   231e0:	80801004 	addi	r2,r16,64
   231e4:	28800326 	beq	r5,r2,231f4 <__swsetup_r+0x120>
   231e8:	8809883a 	mov	r4,r17
   231ec:	00253900 	call	25390 <_free_r>
   231f0:	80c0030b 	ldhu	r3,12(r16)
   231f4:	80000c15 	stw	zero,48(r16)
   231f8:	80800417 	ldw	r2,16(r16)
   231fc:	013ff6c4 	movi	r4,-37
   23200:	20c6703a 	and	r3,r4,r3
   23204:	80000115 	stw	zero,4(r16)
   23208:	80800015 	stw	r2,0(r16)
   2320c:	003fe306 	br	2319c <__swsetup_r+0xc8>
   23210:	00800244 	movi	r2,9
   23214:	88800015 	stw	r2,0(r17)
   23218:	18c01014 	ori	r3,r3,64
   2321c:	003fd206 	br	23168 <__swsetup_r+0x94>

00023220 <quorem>:
   23220:	defff504 	addi	sp,sp,-44
   23224:	dc800315 	stw	r18,12(sp)
   23228:	20800417 	ldw	r2,16(r4)
   2322c:	2c800417 	ldw	r18,16(r5)
   23230:	dfc00a15 	stw	ra,40(sp)
   23234:	df000915 	stw	fp,36(sp)
   23238:	ddc00815 	stw	r23,32(sp)
   2323c:	dd800715 	stw	r22,28(sp)
   23240:	dd400615 	stw	r21,24(sp)
   23244:	dd000515 	stw	r20,20(sp)
   23248:	dcc00415 	stw	r19,16(sp)
   2324c:	dc400215 	stw	r17,8(sp)
   23250:	dc000115 	stw	r16,4(sp)
   23254:	14806f16 	blt	r2,r18,23414 <quorem+0x1f4>
   23258:	94bfffc4 	addi	r18,r18,-1
   2325c:	902c90ba 	slli	r22,r18,2
   23260:	2c000504 	addi	r16,r5,20
   23264:	25000504 	addi	r20,r4,20
   23268:	85a7883a 	add	r19,r16,r22
   2326c:	9f000017 	ldw	fp,0(r19)
   23270:	a5ad883a 	add	r22,r20,r22
   23274:	202b883a 	mov	r21,r4
   23278:	b1000017 	ldw	r4,0(r22)
   2327c:	e7000044 	addi	fp,fp,1
   23280:	282f883a 	mov	r23,r5
   23284:	e00b883a 	mov	r5,fp
   23288:	d9000015 	stw	r4,0(sp)
   2328c:	00209ac0 	call	209ac <__udivsi3>
   23290:	d9000017 	ldw	r4,0(sp)
   23294:	1023883a 	mov	r17,r2
   23298:	27002a36 	bltu	r4,fp,23344 <quorem+0x124>
   2329c:	800f883a 	mov	r7,r16
   232a0:	a00d883a 	mov	r6,r20
   232a4:	0013883a 	mov	r9,zero
   232a8:	0009883a 	mov	r4,zero
   232ac:	38800017 	ldw	r2,0(r7)
   232b0:	32000017 	ldw	r8,0(r6)
   232b4:	31800104 	addi	r6,r6,4
   232b8:	117fffcc 	andi	r5,r2,65535
   232bc:	2c4b383a 	mul	r5,r5,r17
   232c0:	1004d43a 	srli	r2,r2,16
   232c4:	40ffffcc 	andi	r3,r8,65535
   232c8:	2a4b883a 	add	r5,r5,r9
   232cc:	2a7fffcc 	andi	r9,r5,65535
   232d0:	1a47c83a 	sub	r3,r3,r9
   232d4:	280ad43a 	srli	r5,r5,16
   232d8:	1445383a 	mul	r2,r2,r17
   232dc:	1907883a 	add	r3,r3,r4
   232e0:	1809d43a 	srai	r4,r3,16
   232e4:	1145883a 	add	r2,r2,r5
   232e8:	4010d43a 	srli	r8,r8,16
   232ec:	117fffcc 	andi	r5,r2,65535
   232f0:	2149c83a 	sub	r4,r4,r5
   232f4:	2209883a 	add	r4,r4,r8
   232f8:	200a943a 	slli	r5,r4,16
   232fc:	18ffffcc 	andi	r3,r3,65535
   23300:	39c00104 	addi	r7,r7,4
   23304:	1946b03a 	or	r3,r3,r5
   23308:	30ffff15 	stw	r3,-4(r6)
   2330c:	1012d43a 	srli	r9,r2,16
   23310:	2009d43a 	srai	r4,r4,16
   23314:	99ffe52e 	bgeu	r19,r7,232ac <quorem+0x8c>
   23318:	b0800017 	ldw	r2,0(r22)
   2331c:	1000091e 	bne	r2,zero,23344 <quorem+0x124>
   23320:	b5bfff04 	addi	r22,r22,-4
   23324:	a5800336 	bltu	r20,r22,23334 <quorem+0x114>
   23328:	00000506 	br	23340 <quorem+0x120>
   2332c:	94bfffc4 	addi	r18,r18,-1
   23330:	a580032e 	bgeu	r20,r22,23340 <quorem+0x120>
   23334:	b0800017 	ldw	r2,0(r22)
   23338:	b5bfff04 	addi	r22,r22,-4
   2333c:	103ffb26 	beq	r2,zero,2332c <quorem+0x10c>
   23340:	ac800415 	stw	r18,16(r21)
   23344:	b80b883a 	mov	r5,r23
   23348:	a809883a 	mov	r4,r21
   2334c:	002748c0 	call	2748c <__mcmp>
   23350:	10002316 	blt	r2,zero,233e0 <quorem+0x1c0>
   23354:	a00d883a 	mov	r6,r20
   23358:	000b883a 	mov	r5,zero
   2335c:	30800017 	ldw	r2,0(r6)
   23360:	81000017 	ldw	r4,0(r16)
   23364:	31800104 	addi	r6,r6,4
   23368:	10ffffcc 	andi	r3,r2,65535
   2336c:	21ffffcc 	andi	r7,r4,65535
   23370:	19c7c83a 	sub	r3,r3,r7
   23374:	1947883a 	add	r3,r3,r5
   23378:	180bd43a 	srai	r5,r3,16
   2337c:	2008d43a 	srli	r4,r4,16
   23380:	1004d43a 	srli	r2,r2,16
   23384:	18ffffcc 	andi	r3,r3,65535
   23388:	290bc83a 	sub	r5,r5,r4
   2338c:	288b883a 	add	r5,r5,r2
   23390:	2804943a 	slli	r2,r5,16
   23394:	84000104 	addi	r16,r16,4
   23398:	280bd43a 	srai	r5,r5,16
   2339c:	1886b03a 	or	r3,r3,r2
   233a0:	30ffff15 	stw	r3,-4(r6)
   233a4:	9c3fed2e 	bgeu	r19,r16,2335c <quorem+0x13c>
   233a8:	900490ba 	slli	r2,r18,2
   233ac:	a085883a 	add	r2,r20,r2
   233b0:	10c00017 	ldw	r3,0(r2)
   233b4:	1800091e 	bne	r3,zero,233dc <quorem+0x1bc>
   233b8:	10bfff04 	addi	r2,r2,-4
   233bc:	a0800336 	bltu	r20,r2,233cc <quorem+0x1ac>
   233c0:	00000506 	br	233d8 <quorem+0x1b8>
   233c4:	94bfffc4 	addi	r18,r18,-1
   233c8:	a080032e 	bgeu	r20,r2,233d8 <quorem+0x1b8>
   233cc:	10c00017 	ldw	r3,0(r2)
   233d0:	10bfff04 	addi	r2,r2,-4
   233d4:	183ffb26 	beq	r3,zero,233c4 <quorem+0x1a4>
   233d8:	ac800415 	stw	r18,16(r21)
   233dc:	8c400044 	addi	r17,r17,1
   233e0:	8805883a 	mov	r2,r17
   233e4:	dfc00a17 	ldw	ra,40(sp)
   233e8:	df000917 	ldw	fp,36(sp)
   233ec:	ddc00817 	ldw	r23,32(sp)
   233f0:	dd800717 	ldw	r22,28(sp)
   233f4:	dd400617 	ldw	r21,24(sp)
   233f8:	dd000517 	ldw	r20,20(sp)
   233fc:	dcc00417 	ldw	r19,16(sp)
   23400:	dc800317 	ldw	r18,12(sp)
   23404:	dc400217 	ldw	r17,8(sp)
   23408:	dc000117 	ldw	r16,4(sp)
   2340c:	dec00b04 	addi	sp,sp,44
   23410:	f800283a 	ret
   23414:	0005883a 	mov	r2,zero
   23418:	003ff206 	br	233e4 <quorem+0x1c4>

0002341c <_dtoa_r>:
   2341c:	20801017 	ldw	r2,64(r4)
   23420:	deffe104 	addi	sp,sp,-124
   23424:	dd401a15 	stw	r21,104(sp)
   23428:	dc801715 	stw	r18,92(sp)
   2342c:	dc401615 	stw	r17,88(sp)
   23430:	dc001515 	stw	r16,84(sp)
   23434:	dfc01e15 	stw	ra,120(sp)
   23438:	df001d15 	stw	fp,116(sp)
   2343c:	ddc01c15 	stw	r23,112(sp)
   23440:	dd801b15 	stw	r22,108(sp)
   23444:	dd001915 	stw	r20,100(sp)
   23448:	dcc01815 	stw	r19,96(sp)
   2344c:	d9400215 	stw	r5,8(sp)
   23450:	d9c00115 	stw	r7,4(sp)
   23454:	dc402117 	ldw	r17,132(sp)
   23458:	2021883a 	mov	r16,r4
   2345c:	3025883a 	mov	r18,r6
   23460:	302b883a 	mov	r21,r6
   23464:	10000826 	beq	r2,zero,23488 <_dtoa_r+0x6c>
   23468:	21801117 	ldw	r6,68(r4)
   2346c:	00c00044 	movi	r3,1
   23470:	100b883a 	mov	r5,r2
   23474:	1986983a 	sll	r3,r3,r6
   23478:	11800115 	stw	r6,4(r2)
   2347c:	10c00215 	stw	r3,8(r2)
   23480:	0026b100 	call	26b10 <_Bfree>
   23484:	80001015 	stw	zero,64(r16)
   23488:	90019316 	blt	r18,zero,23ad8 <_dtoa_r+0x6bc>
   2348c:	88000015 	stw	zero,0(r17)
   23490:	909ffc2c 	andhi	r2,r18,32752
   23494:	00dffc34 	movhi	r3,32752
   23498:	10c19826 	beq	r2,r3,23afc <_dtoa_r+0x6e0>
   2349c:	d9000217 	ldw	r4,8(sp)
   234a0:	000d883a 	mov	r6,zero
   234a4:	000f883a 	mov	r7,zero
   234a8:	a80b883a 	mov	r5,r21
   234ac:	002c4840 	call	2c484 <__eqdf2>
   234b0:	1000181e 	bne	r2,zero,23514 <_dtoa_r+0xf8>
   234b4:	d8c02017 	ldw	r3,128(sp)
   234b8:	00800044 	movi	r2,1
   234bc:	18800015 	stw	r2,0(r3)
   234c0:	d8802217 	ldw	r2,136(sp)
   234c4:	10000426 	beq	r2,zero,234d8 <_dtoa_r+0xbc>
   234c8:	d8c02217 	ldw	r3,136(sp)
   234cc:	008000f4 	movhi	r2,3
   234d0:	1081b644 	addi	r2,r2,1753
   234d4:	18800015 	stw	r2,0(r3)
   234d8:	070000f4 	movhi	fp,3
   234dc:	e701b604 	addi	fp,fp,1752
   234e0:	e005883a 	mov	r2,fp
   234e4:	dfc01e17 	ldw	ra,120(sp)
   234e8:	df001d17 	ldw	fp,116(sp)
   234ec:	ddc01c17 	ldw	r23,112(sp)
   234f0:	dd801b17 	ldw	r22,108(sp)
   234f4:	dd401a17 	ldw	r21,104(sp)
   234f8:	dd001917 	ldw	r20,100(sp)
   234fc:	dcc01817 	ldw	r19,96(sp)
   23500:	dc801717 	ldw	r18,92(sp)
   23504:	dc401617 	ldw	r17,88(sp)
   23508:	dc001517 	ldw	r16,84(sp)
   2350c:	dec01f04 	addi	sp,sp,124
   23510:	f800283a 	ret
   23514:	dcc00217 	ldw	r19,8(sp)
   23518:	d8801304 	addi	r2,sp,76
   2351c:	9022d53a 	srli	r17,r18,20
   23520:	d8800015 	stw	r2,0(sp)
   23524:	d9c01404 	addi	r7,sp,80
   23528:	980b883a 	mov	r5,r19
   2352c:	a80d883a 	mov	r6,r21
   23530:	8009883a 	mov	r4,r16
   23534:	00278740 	call	27874 <__d2b>
   23538:	102f883a 	mov	r23,r2
   2353c:	8801811e 	bne	r17,zero,23b44 <_dtoa_r+0x728>
   23540:	dd001317 	ldw	r20,76(sp)
   23544:	dc401417 	ldw	r17,80(sp)
   23548:	a463883a 	add	r17,r20,r17
   2354c:	88810c84 	addi	r2,r17,1074
   23550:	10c00850 	cmplti	r3,r2,33
   23554:	1803101e 	bne	r3,zero,24198 <_dtoa_r+0xd7c>
   23558:	00c01004 	movi	r3,64
   2355c:	1887c83a 	sub	r3,r3,r2
   23560:	90c8983a 	sll	r4,r18,r3
   23564:	d8c00217 	ldw	r3,8(sp)
   23568:	88810484 	addi	r2,r17,1042
   2356c:	1884d83a 	srl	r2,r3,r2
   23570:	2088b03a 	or	r4,r4,r2
   23574:	002d90c0 	call	2d90c <__floatunsidf>
   23578:	1009883a 	mov	r4,r2
   2357c:	00bf8434 	movhi	r2,65040
   23580:	188b883a 	add	r5,r3,r2
   23584:	00800044 	movi	r2,1
   23588:	8c7fffc4 	addi	r17,r17,-1
   2358c:	d8800915 	stw	r2,36(sp)
   23590:	000d883a 	mov	r6,zero
   23594:	01cffe34 	movhi	r7,16376
   23598:	002cde40 	call	2cde4 <__subdf3>
   2359c:	0198dbf4 	movhi	r6,25455
   235a0:	01cff4f4 	movhi	r7,16339
   235a4:	3190d844 	addi	r6,r6,17249
   235a8:	39e1e9c4 	addi	r7,r7,-30809
   235ac:	1009883a 	mov	r4,r2
   235b0:	180b883a 	mov	r5,r3
   235b4:	002c70c0 	call	2c70c <__muldf3>
   235b8:	01a2d874 	movhi	r6,35681
   235bc:	01cff1f4 	movhi	r7,16327
   235c0:	31b22cc4 	addi	r6,r6,-14157
   235c4:	39e28a04 	addi	r7,r7,-30168
   235c8:	180b883a 	mov	r5,r3
   235cc:	1009883a 	mov	r4,r2
   235d0:	002b3380 	call	2b338 <__adddf3>
   235d4:	8809883a 	mov	r4,r17
   235d8:	1027883a 	mov	r19,r2
   235dc:	1825883a 	mov	r18,r3
   235e0:	002d8540 	call	2d854 <__floatsidf>
   235e4:	019427f4 	movhi	r6,20639
   235e8:	01cff4f4 	movhi	r7,16339
   235ec:	319e7ec4 	addi	r6,r6,31227
   235f0:	39d104c4 	addi	r7,r7,17427
   235f4:	1009883a 	mov	r4,r2
   235f8:	180b883a 	mov	r5,r3
   235fc:	002c70c0 	call	2c70c <__muldf3>
   23600:	100d883a 	mov	r6,r2
   23604:	180f883a 	mov	r7,r3
   23608:	9809883a 	mov	r4,r19
   2360c:	900b883a 	mov	r5,r18
   23610:	002b3380 	call	2b338 <__adddf3>
   23614:	1009883a 	mov	r4,r2
   23618:	180b883a 	mov	r5,r3
   2361c:	1027883a 	mov	r19,r2
   23620:	1825883a 	mov	r18,r3
   23624:	002d7d40 	call	2d7d4 <__fixdfsi>
   23628:	000d883a 	mov	r6,zero
   2362c:	000f883a 	mov	r7,zero
   23630:	9809883a 	mov	r4,r19
   23634:	900b883a 	mov	r5,r18
   23638:	102d883a 	mov	r22,r2
   2363c:	002c6140 	call	2c614 <__ledf2>
   23640:	1002a616 	blt	r2,zero,240dc <_dtoa_r+0xcc0>
   23644:	a469c83a 	sub	r20,r20,r17
   23648:	a0ffffc4 	addi	r3,r20,-1
   2364c:	b08005e8 	cmpgeui	r2,r22,23
   23650:	d8c00415 	stw	r3,16(sp)
   23654:	1002981e 	bne	r2,zero,240b8 <_dtoa_r+0xc9c>
   23658:	b00490fa 	slli	r2,r22,3
   2365c:	02c000f4 	movhi	r11,3
   23660:	5ac1fd04 	addi	r11,r11,2036
   23664:	5885883a 	add	r2,r11,r2
   23668:	11800017 	ldw	r6,0(r2)
   2366c:	11c00117 	ldw	r7,4(r2)
   23670:	d9000217 	ldw	r4,8(sp)
   23674:	a80b883a 	mov	r5,r21
   23678:	002c6140 	call	2c614 <__ledf2>
   2367c:	1001d60e 	bge	r2,zero,23dd8 <_dtoa_r+0x9bc>
   23680:	d8000815 	stw	zero,32(sp)
   23684:	a0bfffc4 	addi	r2,r20,-1
   23688:	b5bfffc4 	addi	r22,r22,-1
   2368c:	10028e16 	blt	r2,zero,240c8 <_dtoa_r+0xcac>
   23690:	d8000515 	stw	zero,20(sp)
   23694:	b001d30e 	bge	r22,zero,23de4 <_dtoa_r+0x9c8>
   23698:	d8800517 	ldw	r2,20(sp)
   2369c:	d8c00117 	ldw	r3,4(sp)
   236a0:	dd800615 	stw	r22,24(sp)
   236a4:	1585c83a 	sub	r2,r2,r22
   236a8:	d8800515 	stw	r2,20(sp)
   236ac:	0585c83a 	sub	r2,zero,r22
   236b0:	d8800315 	stw	r2,12(sp)
   236b4:	188002a8 	cmpgeui	r2,r3,10
   236b8:	002d883a 	mov	r22,zero
   236bc:	1001d11e 	bne	r2,zero,23e04 <_dtoa_r+0x9e8>
   236c0:	18800190 	cmplti	r2,r3,6
   236c4:	1002a31e 	bne	r2,zero,24154 <_dtoa_r+0xd38>
   236c8:	18ffff04 	addi	r3,r3,-4
   236cc:	d8c00115 	stw	r3,4(sp)
   236d0:	188000e0 	cmpeqi	r2,r3,3
   236d4:	0023883a 	mov	r17,zero
   236d8:	1003b71e 	bne	r2,zero,245b8 <_dtoa_r+0x119c>
   236dc:	18800108 	cmpgei	r2,r3,4
   236e0:	1003a626 	beq	r2,zero,2457c <_dtoa_r+0x1160>
   236e4:	d8800117 	ldw	r2,4(sp)
   236e8:	10800120 	cmpeqi	r2,r2,4
   236ec:	1003611e 	bne	r2,zero,24474 <_dtoa_r+0x1058>
   236f0:	00800144 	movi	r2,5
   236f4:	d8800115 	stw	r2,4(sp)
   236f8:	00800044 	movi	r2,1
   236fc:	d8800715 	stw	r2,28(sp)
   23700:	d8801f17 	ldw	r2,124(sp)
   23704:	d8c00617 	ldw	r3,24(sp)
   23708:	10c5883a 	add	r2,r2,r3
   2370c:	14800044 	addi	r18,r2,1
   23710:	d8800a15 	stw	r2,40(sp)
   23714:	900d883a 	mov	r6,r18
   23718:	0485320e 	bge	zero,r18,24be4 <_dtoa_r+0x17c8>
   2371c:	30800608 	cmpgei	r2,r6,24
   23720:	10053026 	beq	r2,zero,24be4 <_dtoa_r+0x17c8>
   23724:	00c00044 	movi	r3,1
   23728:	00800104 	movi	r2,4
   2372c:	1085883a 	add	r2,r2,r2
   23730:	11000504 	addi	r4,r2,20
   23734:	180b883a 	mov	r5,r3
   23738:	18c00044 	addi	r3,r3,1
   2373c:	313ffb2e 	bgeu	r6,r4,2372c <_dtoa_r+0x310>
   23740:	81401115 	stw	r5,68(r16)
   23744:	8009883a 	mov	r4,r16
   23748:	0026a6c0 	call	26a6c <_Balloc>
   2374c:	1039883a 	mov	fp,r2
   23750:	10050d26 	beq	r2,zero,24b88 <_dtoa_r+0x176c>
   23754:	80801015 	stw	r2,64(r16)
   23758:	908003e8 	cmpgeui	r2,r18,15
   2375c:	1001291e 	bne	r2,zero,23c04 <_dtoa_r+0x7e8>
   23760:	88012826 	beq	r17,zero,23c04 <_dtoa_r+0x7e8>
   23764:	d8c00617 	ldw	r3,24(sp)
   23768:	00c3b40e 	bge	zero,r3,2463c <_dtoa_r+0x1220>
   2376c:	188003cc 	andi	r2,r3,15
   23770:	100490fa 	slli	r2,r2,3
   23774:	1823d13a 	srai	r17,r3,4
   23778:	02c000f4 	movhi	r11,3
   2377c:	5ac1fd04 	addi	r11,r11,2036
   23780:	5885883a 	add	r2,r11,r2
   23784:	88c0040c 	andi	r3,r17,16
   23788:	12400017 	ldw	r9,0(r2)
   2378c:	12000117 	ldw	r8,4(r2)
   23790:	18037626 	beq	r3,zero,2456c <_dtoa_r+0x1150>
   23794:	008000f4 	movhi	r2,3
   23798:	1081f304 	addi	r2,r2,1996
   2379c:	d9000217 	ldw	r4,8(sp)
   237a0:	11800817 	ldw	r6,32(r2)
   237a4:	11c00917 	ldw	r7,36(r2)
   237a8:	a80b883a 	mov	r5,r21
   237ac:	da000c15 	stw	r8,48(sp)
   237b0:	da400b15 	stw	r9,44(sp)
   237b4:	002bc3c0 	call	2bc3c <__divdf3>
   237b8:	da400b17 	ldw	r9,44(sp)
   237bc:	da000c17 	ldw	r8,48(sp)
   237c0:	8c4003cc 	andi	r17,r17,15
   237c4:	1009883a 	mov	r4,r2
   237c8:	180b883a 	mov	r5,r3
   237cc:	04c000c4 	movi	r19,3
   237d0:	88001c26 	beq	r17,zero,23844 <_dtoa_r+0x428>
   237d4:	050000f4 	movhi	r20,3
   237d8:	a501f304 	addi	r20,r20,1996
   237dc:	dc800b15 	stw	r18,44(sp)
   237e0:	dc000c15 	stw	r16,48(sp)
   237e4:	9825883a 	mov	r18,r19
   237e8:	a021883a 	mov	r16,r20
   237ec:	2827883a 	mov	r19,r5
   237f0:	2029883a 	mov	r20,r4
   237f4:	400b883a 	mov	r5,r8
   237f8:	4809883a 	mov	r4,r9
   237fc:	8980004c 	andi	r6,r17,1
   23800:	30000626 	beq	r6,zero,2381c <_dtoa_r+0x400>
   23804:	81800017 	ldw	r6,0(r16)
   23808:	81c00117 	ldw	r7,4(r16)
   2380c:	94800044 	addi	r18,r18,1
   23810:	002c70c0 	call	2c70c <__muldf3>
   23814:	1009883a 	mov	r4,r2
   23818:	180b883a 	mov	r5,r3
   2381c:	8823d07a 	srai	r17,r17,1
   23820:	84000204 	addi	r16,r16,8
   23824:	883ff51e 	bne	r17,zero,237fc <_dtoa_r+0x3e0>
   23828:	2811883a 	mov	r8,r5
   2382c:	dc000c17 	ldw	r16,48(sp)
   23830:	980b883a 	mov	r5,r19
   23834:	9027883a 	mov	r19,r18
   23838:	dc800b17 	ldw	r18,44(sp)
   2383c:	2013883a 	mov	r9,r4
   23840:	a009883a 	mov	r4,r20
   23844:	480d883a 	mov	r6,r9
   23848:	400f883a 	mov	r7,r8
   2384c:	002bc3c0 	call	2bc3c <__divdf3>
   23850:	1023883a 	mov	r17,r2
   23854:	1829883a 	mov	r20,r3
   23858:	d8800817 	ldw	r2,32(sp)
   2385c:	10000626 	beq	r2,zero,23878 <_dtoa_r+0x45c>
   23860:	000d883a 	mov	r6,zero
   23864:	01cffc34 	movhi	r7,16368
   23868:	8809883a 	mov	r4,r17
   2386c:	a00b883a 	mov	r5,r20
   23870:	002c6140 	call	2c614 <__ledf2>
   23874:	10045a16 	blt	r2,zero,249e0 <_dtoa_r+0x15c4>
   23878:	9809883a 	mov	r4,r19
   2387c:	002d8540 	call	2d854 <__floatsidf>
   23880:	880d883a 	mov	r6,r17
   23884:	a00f883a 	mov	r7,r20
   23888:	1009883a 	mov	r4,r2
   2388c:	180b883a 	mov	r5,r3
   23890:	002c70c0 	call	2c70c <__muldf3>
   23894:	000d883a 	mov	r6,zero
   23898:	01d00734 	movhi	r7,16412
   2389c:	1009883a 	mov	r4,r2
   238a0:	180b883a 	mov	r5,r3
   238a4:	002b3380 	call	2b338 <__adddf3>
   238a8:	d8800b15 	stw	r2,44(sp)
   238ac:	00bf3034 	movhi	r2,64704
   238b0:	18a7883a 	add	r19,r3,r2
   238b4:	9000c026 	beq	r18,zero,23bb8 <_dtoa_r+0x79c>
   238b8:	d8800617 	ldw	r2,24(sp)
   238bc:	dc800c15 	stw	r18,48(sp)
   238c0:	d8801115 	stw	r2,68(sp)
   238c4:	d8800c17 	ldw	r2,48(sp)
   238c8:	02c000f4 	movhi	r11,3
   238cc:	5ac1fd04 	addi	r11,r11,2036
   238d0:	10bfffc4 	addi	r2,r2,-1
   238d4:	100490fa 	slli	r2,r2,3
   238d8:	8809883a 	mov	r4,r17
   238dc:	a00b883a 	mov	r5,r20
   238e0:	5885883a 	add	r2,r11,r2
   238e4:	10c00017 	ldw	r3,0(r2)
   238e8:	10800117 	ldw	r2,4(r2)
   238ec:	dac00d15 	stw	r11,52(sp)
   238f0:	d8c00f15 	stw	r3,60(sp)
   238f4:	d8801015 	stw	r2,64(sp)
   238f8:	002d7d40 	call	2d7d4 <__fixdfsi>
   238fc:	11400c04 	addi	r5,r2,48
   23900:	1009883a 	mov	r4,r2
   23904:	d9400e15 	stw	r5,56(sp)
   23908:	002d8540 	call	2d854 <__floatsidf>
   2390c:	8809883a 	mov	r4,r17
   23910:	a00b883a 	mov	r5,r20
   23914:	100d883a 	mov	r6,r2
   23918:	180f883a 	mov	r7,r3
   2391c:	002cde40 	call	2cde4 <__subdf3>
   23920:	d9000717 	ldw	r4,28(sp)
   23924:	dac00d17 	ldw	r11,52(sp)
   23928:	e2000044 	addi	r8,fp,1
   2392c:	1029883a 	mov	r20,r2
   23930:	1823883a 	mov	r17,r3
   23934:	2003ce26 	beq	r4,zero,24870 <_dtoa_r+0x1454>
   23938:	d9800f17 	ldw	r6,60(sp)
   2393c:	d9c01017 	ldw	r7,64(sp)
   23940:	0009883a 	mov	r4,zero
   23944:	014ff834 	movhi	r5,16352
   23948:	da001215 	stw	r8,72(sp)
   2394c:	002bc3c0 	call	2bc3c <__divdf3>
   23950:	d9800b17 	ldw	r6,44(sp)
   23954:	980f883a 	mov	r7,r19
   23958:	1009883a 	mov	r4,r2
   2395c:	180b883a 	mov	r5,r3
   23960:	002cde40 	call	2cde4 <__subdf3>
   23964:	1009883a 	mov	r4,r2
   23968:	d8800e17 	ldw	r2,56(sp)
   2396c:	180b883a 	mov	r5,r3
   23970:	a00d883a 	mov	r6,r20
   23974:	e0800005 	stb	r2,0(fp)
   23978:	880f883a 	mov	r7,r17
   2397c:	d9000d15 	stw	r4,52(sp)
   23980:	d8c00b15 	stw	r3,44(sp)
   23984:	002c5180 	call	2c518 <__gedf2>
   23988:	d9400b17 	ldw	r5,44(sp)
   2398c:	d9000d17 	ldw	r4,52(sp)
   23990:	da001217 	ldw	r8,72(sp)
   23994:	00840b16 	blt	zero,r2,249c4 <_dtoa_r+0x15a8>
   23998:	0005883a 	mov	r2,zero
   2399c:	dc800d15 	stw	r18,52(sp)
   239a0:	dd800e15 	stw	r22,56(sp)
   239a4:	ddc00b15 	stw	r23,44(sp)
   239a8:	dd400f15 	stw	r21,60(sp)
   239ac:	ddc00c17 	ldw	r23,48(sp)
   239b0:	402d883a 	mov	r22,r8
   239b4:	dc000c15 	stw	r16,48(sp)
   239b8:	2025883a 	mov	r18,r4
   239bc:	2827883a 	mov	r19,r5
   239c0:	102b883a 	mov	r21,r2
   239c4:	00002606 	br	23a60 <_dtoa_r+0x644>
   239c8:	ad400044 	addi	r21,r21,1
   239cc:	adc4460e 	bge	r21,r23,24ae8 <_dtoa_r+0x16cc>
   239d0:	9009883a 	mov	r4,r18
   239d4:	980b883a 	mov	r5,r19
   239d8:	000d883a 	mov	r6,zero
   239dc:	01d00934 	movhi	r7,16420
   239e0:	002c70c0 	call	2c70c <__muldf3>
   239e4:	000d883a 	mov	r6,zero
   239e8:	01d00934 	movhi	r7,16420
   239ec:	a009883a 	mov	r4,r20
   239f0:	880b883a 	mov	r5,r17
   239f4:	1025883a 	mov	r18,r2
   239f8:	1827883a 	mov	r19,r3
   239fc:	002c70c0 	call	2c70c <__muldf3>
   23a00:	180b883a 	mov	r5,r3
   23a04:	1009883a 	mov	r4,r2
   23a08:	1823883a 	mov	r17,r3
   23a0c:	1029883a 	mov	r20,r2
   23a10:	002d7d40 	call	2d7d4 <__fixdfsi>
   23a14:	1009883a 	mov	r4,r2
   23a18:	1021883a 	mov	r16,r2
   23a1c:	002d8540 	call	2d854 <__floatsidf>
   23a20:	a009883a 	mov	r4,r20
   23a24:	880b883a 	mov	r5,r17
   23a28:	100d883a 	mov	r6,r2
   23a2c:	180f883a 	mov	r7,r3
   23a30:	002cde40 	call	2cde4 <__subdf3>
   23a34:	b5800044 	addi	r22,r22,1
   23a38:	82000c04 	addi	r8,r16,48
   23a3c:	b23fffc5 	stb	r8,-1(r22)
   23a40:	900d883a 	mov	r6,r18
   23a44:	980f883a 	mov	r7,r19
   23a48:	1009883a 	mov	r4,r2
   23a4c:	180b883a 	mov	r5,r3
   23a50:	1029883a 	mov	r20,r2
   23a54:	1823883a 	mov	r17,r3
   23a58:	002c6140 	call	2c614 <__ledf2>
   23a5c:	10041e16 	blt	r2,zero,24ad8 <_dtoa_r+0x16bc>
   23a60:	a00d883a 	mov	r6,r20
   23a64:	880f883a 	mov	r7,r17
   23a68:	0009883a 	mov	r4,zero
   23a6c:	014ffc34 	movhi	r5,16368
   23a70:	002cde40 	call	2cde4 <__subdf3>
   23a74:	900d883a 	mov	r6,r18
   23a78:	980f883a 	mov	r7,r19
   23a7c:	1009883a 	mov	r4,r2
   23a80:	180b883a 	mov	r5,r3
   23a84:	002c6140 	call	2c614 <__ledf2>
   23a88:	103fcf0e 	bge	r2,zero,239c8 <_dtoa_r+0x5ac>
   23a8c:	d8801117 	ldw	r2,68(sp)
   23a90:	b027883a 	mov	r19,r22
   23a94:	ddc00b17 	ldw	r23,44(sp)
   23a98:	dc000c17 	ldw	r16,48(sp)
   23a9c:	15800044 	addi	r22,r2,1
   23aa0:	00000106 	br	23aa8 <_dtoa_r+0x68c>
   23aa4:	e4c3ed26 	beq	fp,r19,24a5c <_dtoa_r+0x1640>
   23aa8:	98ffffc3 	ldbu	r3,-1(r19)
   23aac:	9811883a 	mov	r8,r19
   23ab0:	9cffffc4 	addi	r19,r19,-1
   23ab4:	18803fcc 	andi	r2,r3,255
   23ab8:	1080201c 	xori	r2,r2,128
   23abc:	10bfe004 	addi	r2,r2,-128
   23ac0:	10800e60 	cmpeqi	r2,r2,57
   23ac4:	103ff71e 	bne	r2,zero,23aa4 <_dtoa_r+0x688>
   23ac8:	18c00044 	addi	r3,r3,1
   23acc:	98c00005 	stb	r3,0(r19)
   23ad0:	b02b883a 	mov	r21,r22
   23ad4:	00015a06 	br	24040 <_dtoa_r+0xc24>
   23ad8:	00a00034 	movhi	r2,32768
   23adc:	10bfffc4 	addi	r2,r2,-1
   23ae0:	90aa703a 	and	r21,r18,r2
   23ae4:	a825883a 	mov	r18,r21
   23ae8:	00800044 	movi	r2,1
   23aec:	88800015 	stw	r2,0(r17)
   23af0:	00dffc34 	movhi	r3,32752
   23af4:	909ffc2c 	andhi	r2,r18,32752
   23af8:	10fe681e 	bne	r2,r3,2349c <_dtoa_r+0x80>
   23afc:	d9002017 	ldw	r4,128(sp)
   23b00:	00c9c3c4 	movi	r3,9999
   23b04:	00800434 	movhi	r2,16
   23b08:	20c00015 	stw	r3,0(r4)
   23b0c:	d8c00217 	ldw	r3,8(sp)
   23b10:	10bfffc4 	addi	r2,r2,-1
   23b14:	9084703a 	and	r2,r18,r2
   23b18:	10c4b03a 	or	r2,r2,r3
   23b1c:	1000121e 	bne	r2,zero,23b68 <_dtoa_r+0x74c>
   23b20:	d8802217 	ldw	r2,136(sp)
   23b24:	070000f4 	movhi	fp,3
   23b28:	10041e26 	beq	r2,zero,24ba4 <_dtoa_r+0x1788>
   23b2c:	008000f4 	movhi	r2,3
   23b30:	e701bf04 	addi	fp,fp,1788
   23b34:	1081c104 	addi	r2,r2,1796
   23b38:	d8c02217 	ldw	r3,136(sp)
   23b3c:	18800015 	stw	r2,0(r3)
   23b40:	003e6706 	br	234e0 <_dtoa_r+0xc4>
   23b44:	01400434 	movhi	r5,16
   23b48:	297fffc4 	addi	r5,r5,-1
   23b4c:	a94a703a 	and	r5,r21,r5
   23b50:	dd001317 	ldw	r20,76(sp)
   23b54:	9809883a 	mov	r4,r19
   23b58:	294ffc34 	orhi	r5,r5,16368
   23b5c:	8c7f0044 	addi	r17,r17,-1023
   23b60:	d8000915 	stw	zero,36(sp)
   23b64:	003e8a06 	br	23590 <_dtoa_r+0x174>
   23b68:	d8802217 	ldw	r2,136(sp)
   23b6c:	070000f4 	movhi	fp,3
   23b70:	10023c1e 	bne	r2,zero,24464 <_dtoa_r+0x1048>
   23b74:	e701c204 	addi	fp,fp,1800
   23b78:	003e5906 	br	234e0 <_dtoa_r+0xc4>
   23b7c:	9809883a 	mov	r4,r19
   23b80:	002d8540 	call	2d854 <__floatsidf>
   23b84:	880d883a 	mov	r6,r17
   23b88:	a00f883a 	mov	r7,r20
   23b8c:	1009883a 	mov	r4,r2
   23b90:	180b883a 	mov	r5,r3
   23b94:	002c70c0 	call	2c70c <__muldf3>
   23b98:	000d883a 	mov	r6,zero
   23b9c:	01d00734 	movhi	r7,16412
   23ba0:	1009883a 	mov	r4,r2
   23ba4:	180b883a 	mov	r5,r3
   23ba8:	002b3380 	call	2b338 <__adddf3>
   23bac:	d8800b15 	stw	r2,44(sp)
   23bb0:	00bf3034 	movhi	r2,64704
   23bb4:	18a7883a 	add	r19,r3,r2
   23bb8:	8809883a 	mov	r4,r17
   23bbc:	a00b883a 	mov	r5,r20
   23bc0:	000d883a 	mov	r6,zero
   23bc4:	01d00534 	movhi	r7,16404
   23bc8:	002cde40 	call	2cde4 <__subdf3>
   23bcc:	d9800b17 	ldw	r6,44(sp)
   23bd0:	980f883a 	mov	r7,r19
   23bd4:	1009883a 	mov	r4,r2
   23bd8:	180b883a 	mov	r5,r3
   23bdc:	1029883a 	mov	r20,r2
   23be0:	1823883a 	mov	r17,r3
   23be4:	002c5180 	call	2c518 <__gedf2>
   23be8:	0083a716 	blt	zero,r2,24a88 <_dtoa_r+0x166c>
   23bec:	d9800b17 	ldw	r6,44(sp)
   23bf0:	99e0003c 	xorhi	r7,r19,32768
   23bf4:	a009883a 	mov	r4,r20
   23bf8:	880b883a 	mov	r5,r17
   23bfc:	002c6140 	call	2c614 <__ledf2>
   23c00:	10001d16 	blt	r2,zero,23c78 <_dtoa_r+0x85c>
   23c04:	d8801417 	ldw	r2,80(sp)
   23c08:	10008816 	blt	r2,zero,23e2c <_dtoa_r+0xa10>
   23c0c:	d8c00617 	ldw	r3,24(sp)
   23c10:	18c003d0 	cmplti	r3,r3,15
   23c14:	18008526 	beq	r3,zero,23e2c <_dtoa_r+0xa10>
   23c18:	02c000f4 	movhi	r11,3
   23c1c:	5ac1fd04 	addi	r11,r11,2036
   23c20:	d8800617 	ldw	r2,24(sp)
   23c24:	100490fa 	slli	r2,r2,3
   23c28:	5885883a 	add	r2,r11,r2
   23c2c:	10c00017 	ldw	r3,0(r2)
   23c30:	10800117 	ldw	r2,4(r2)
   23c34:	d8c00115 	stw	r3,4(sp)
   23c38:	d8800315 	stw	r2,12(sp)
   23c3c:	d8801f17 	ldw	r2,124(sp)
   23c40:	1000130e 	bge	r2,zero,23c90 <_dtoa_r+0x874>
   23c44:	04801216 	blt	zero,r18,23c90 <_dtoa_r+0x874>
   23c48:	90000b1e 	bne	r18,zero,23c78 <_dtoa_r+0x85c>
   23c4c:	d9000117 	ldw	r4,4(sp)
   23c50:	d9400317 	ldw	r5,12(sp)
   23c54:	000d883a 	mov	r6,zero
   23c58:	01d00534 	movhi	r7,16404
   23c5c:	002c70c0 	call	2c70c <__muldf3>
   23c60:	d9000217 	ldw	r4,8(sp)
   23c64:	100d883a 	mov	r6,r2
   23c68:	180f883a 	mov	r7,r3
   23c6c:	a80b883a 	mov	r5,r21
   23c70:	002c6140 	call	2c614 <__ledf2>
   23c74:	00838416 	blt	zero,r2,24a88 <_dtoa_r+0x166c>
   23c78:	e011883a 	mov	r8,fp
   23c7c:	d8000315 	stw	zero,12(sp)
   23c80:	0023883a 	mov	r17,zero
   23c84:	d8801f17 	ldw	r2,124(sp)
   23c88:	00a4303a 	nor	r18,zero,r2
   23c8c:	0001da06 	br	243f8 <_dtoa_r+0xfdc>
   23c90:	dcc00117 	ldw	r19,4(sp)
   23c94:	dd000317 	ldw	r20,12(sp)
   23c98:	dd800217 	ldw	r22,8(sp)
   23c9c:	980d883a 	mov	r6,r19
   23ca0:	a00f883a 	mov	r7,r20
   23ca4:	b009883a 	mov	r4,r22
   23ca8:	a80b883a 	mov	r5,r21
   23cac:	002bc3c0 	call	2bc3c <__divdf3>
   23cb0:	180b883a 	mov	r5,r3
   23cb4:	1009883a 	mov	r4,r2
   23cb8:	002d7d40 	call	2d7d4 <__fixdfsi>
   23cbc:	1009883a 	mov	r4,r2
   23cc0:	1023883a 	mov	r17,r2
   23cc4:	002d8540 	call	2d854 <__floatsidf>
   23cc8:	980d883a 	mov	r6,r19
   23ccc:	a00f883a 	mov	r7,r20
   23cd0:	1009883a 	mov	r4,r2
   23cd4:	180b883a 	mov	r5,r3
   23cd8:	002c70c0 	call	2c70c <__muldf3>
   23cdc:	100d883a 	mov	r6,r2
   23ce0:	b009883a 	mov	r4,r22
   23ce4:	a80b883a 	mov	r5,r21
   23ce8:	180f883a 	mov	r7,r3
   23cec:	002cde40 	call	2cde4 <__subdf3>
   23cf0:	89000c04 	addi	r4,r17,48
   23cf4:	e1000005 	stb	r4,0(fp)
   23cf8:	91800060 	cmpeqi	r6,r18,1
   23cfc:	1009883a 	mov	r4,r2
   23d00:	180b883a 	mov	r5,r3
   23d04:	e4c00044 	addi	r19,fp,1
   23d08:	3002891e 	bne	r6,zero,24730 <_dtoa_r+0x1314>
   23d0c:	ddc00215 	stw	r23,8(sp)
   23d10:	05800044 	movi	r22,1
   23d14:	ddc00117 	ldw	r23,4(sp)
   23d18:	dc000415 	stw	r16,16(sp)
   23d1c:	a023883a 	mov	r17,r20
   23d20:	00001c06 	br	23d94 <_dtoa_r+0x978>
   23d24:	b80d883a 	mov	r6,r23
   23d28:	880f883a 	mov	r7,r17
   23d2c:	a809883a 	mov	r4,r21
   23d30:	a00b883a 	mov	r5,r20
   23d34:	002bc3c0 	call	2bc3c <__divdf3>
   23d38:	180b883a 	mov	r5,r3
   23d3c:	1009883a 	mov	r4,r2
   23d40:	002d7d40 	call	2d7d4 <__fixdfsi>
   23d44:	1009883a 	mov	r4,r2
   23d48:	1021883a 	mov	r16,r2
   23d4c:	002d8540 	call	2d854 <__floatsidf>
   23d50:	b80d883a 	mov	r6,r23
   23d54:	880f883a 	mov	r7,r17
   23d58:	1009883a 	mov	r4,r2
   23d5c:	180b883a 	mov	r5,r3
   23d60:	002c70c0 	call	2c70c <__muldf3>
   23d64:	a809883a 	mov	r4,r21
   23d68:	a00b883a 	mov	r5,r20
   23d6c:	100d883a 	mov	r6,r2
   23d70:	180f883a 	mov	r7,r3
   23d74:	002cde40 	call	2cde4 <__subdf3>
   23d78:	81000c04 	addi	r4,r16,48
   23d7c:	99000005 	stb	r4,0(r19)
   23d80:	b5800044 	addi	r22,r22,1
   23d84:	9cc00044 	addi	r19,r19,1
   23d88:	1009883a 	mov	r4,r2
   23d8c:	180b883a 	mov	r5,r3
   23d90:	b4826426 	beq	r22,r18,24724 <_dtoa_r+0x1308>
   23d94:	000d883a 	mov	r6,zero
   23d98:	01d00934 	movhi	r7,16420
   23d9c:	002c70c0 	call	2c70c <__muldf3>
   23da0:	000d883a 	mov	r6,zero
   23da4:	000f883a 	mov	r7,zero
   23da8:	1009883a 	mov	r4,r2
   23dac:	180b883a 	mov	r5,r3
   23db0:	102b883a 	mov	r21,r2
   23db4:	1829883a 	mov	r20,r3
   23db8:	002c4840 	call	2c484 <__eqdf2>
   23dbc:	103fd91e 	bne	r2,zero,23d24 <_dtoa_r+0x908>
   23dc0:	d8800617 	ldw	r2,24(sp)
   23dc4:	ddc00217 	ldw	r23,8(sp)
   23dc8:	dc000417 	ldw	r16,16(sp)
   23dcc:	15400044 	addi	r21,r2,1
   23dd0:	9811883a 	mov	r8,r19
   23dd4:	00009a06 	br	24040 <_dtoa_r+0xc24>
   23dd8:	0502120e 	bge	zero,r20,24624 <_dtoa_r+0x1208>
   23ddc:	d8000815 	stw	zero,32(sp)
   23de0:	d8000515 	stw	zero,20(sp)
   23de4:	d8800417 	ldw	r2,16(sp)
   23de8:	d8c00117 	ldw	r3,4(sp)
   23dec:	dd800615 	stw	r22,24(sp)
   23df0:	1585883a 	add	r2,r2,r22
   23df4:	d8800415 	stw	r2,16(sp)
   23df8:	d8000315 	stw	zero,12(sp)
   23dfc:	188002a8 	cmpgeui	r2,r3,10
   23e00:	103e2f26 	beq	r2,zero,236c0 <_dtoa_r+0x2a4>
   23e04:	00800044 	movi	r2,1
   23e08:	04400044 	movi	r17,1
   23e0c:	d8000115 	stw	zero,4(sp)
   23e10:	d8800715 	stw	r2,28(sp)
   23e14:	04bfffc4 	movi	r18,-1
   23e18:	d8001f15 	stw	zero,124(sp)
   23e1c:	80001115 	stw	zero,68(r16)
   23e20:	dc800a15 	stw	r18,40(sp)
   23e24:	000b883a 	mov	r5,zero
   23e28:	003e4606 	br	23744 <_dtoa_r+0x328>
   23e2c:	d8c00717 	ldw	r3,28(sp)
   23e30:	1800b41e 	bne	r3,zero,24104 <_dtoa_r+0xce8>
   23e34:	dd000317 	ldw	r20,12(sp)
   23e38:	dcc00517 	ldw	r19,20(sp)
   23e3c:	d8000715 	stw	zero,28(sp)
   23e40:	0023883a 	mov	r17,zero
   23e44:	98000b26 	beq	r19,zero,23e74 <_dtoa_r+0xa58>
   23e48:	d8c00417 	ldw	r3,16(sp)
   23e4c:	00c0090e 	bge	zero,r3,23e74 <_dtoa_r+0xa58>
   23e50:	9805883a 	mov	r2,r19
   23e54:	1cc1ab16 	blt	r3,r19,24504 <_dtoa_r+0x10e8>
   23e58:	d8c00517 	ldw	r3,20(sp)
   23e5c:	98a7c83a 	sub	r19,r19,r2
   23e60:	1887c83a 	sub	r3,r3,r2
   23e64:	d8c00515 	stw	r3,20(sp)
   23e68:	d8c00417 	ldw	r3,16(sp)
   23e6c:	1885c83a 	sub	r2,r3,r2
   23e70:	d8800415 	stw	r2,16(sp)
   23e74:	d8800317 	ldw	r2,12(sp)
   23e78:	10000826 	beq	r2,zero,23e9c <_dtoa_r+0xa80>
   23e7c:	d8800717 	ldw	r2,28(sp)
   23e80:	10000126 	beq	r2,zero,23e88 <_dtoa_r+0xa6c>
   23e84:	a0025a1e 	bne	r20,zero,247f0 <_dtoa_r+0x13d4>
   23e88:	d9800317 	ldw	r6,12(sp)
   23e8c:	b80b883a 	mov	r5,r23
   23e90:	8009883a 	mov	r4,r16
   23e94:	00271c40 	call	271c4 <__pow5mult>
   23e98:	102f883a 	mov	r23,r2
   23e9c:	01400044 	movi	r5,1
   23ea0:	8009883a 	mov	r4,r16
   23ea4:	0026ec00 	call	26ec0 <__i2b>
   23ea8:	d8800315 	stw	r2,12(sp)
   23eac:	b0015a1e 	bne	r22,zero,24418 <_dtoa_r+0xffc>
   23eb0:	d8800117 	ldw	r2,4(sp)
   23eb4:	10800090 	cmplti	r2,r2,2
   23eb8:	1001751e 	bne	r2,zero,24490 <_dtoa_r+0x1074>
   23ebc:	00800044 	movi	r2,1
   23ec0:	d9400417 	ldw	r5,16(sp)
   23ec4:	1145883a 	add	r2,r2,r5
   23ec8:	108007cc 	andi	r2,r2,31
   23ecc:	10009826 	beq	r2,zero,24130 <_dtoa_r+0xd14>
   23ed0:	00c00804 	movi	r3,32
   23ed4:	1887c83a 	sub	r3,r3,r2
   23ed8:	19000150 	cmplti	r4,r3,5
   23edc:	20017e1e 	bne	r4,zero,244d8 <_dtoa_r+0x10bc>
   23ee0:	00c00704 	movi	r3,28
   23ee4:	1885c83a 	sub	r2,r3,r2
   23ee8:	d8c00517 	ldw	r3,20(sp)
   23eec:	98a7883a 	add	r19,r19,r2
   23ef0:	1887883a 	add	r3,r3,r2
   23ef4:	2885883a 	add	r2,r5,r2
   23ef8:	d8c00515 	stw	r3,20(sp)
   23efc:	d8800415 	stw	r2,16(sp)
   23f00:	d8800517 	ldw	r2,20(sp)
   23f04:	0080050e 	bge	zero,r2,23f1c <_dtoa_r+0xb00>
   23f08:	b80b883a 	mov	r5,r23
   23f0c:	100d883a 	mov	r6,r2
   23f10:	8009883a 	mov	r4,r16
   23f14:	00273040 	call	27304 <__lshift>
   23f18:	102f883a 	mov	r23,r2
   23f1c:	d8800417 	ldw	r2,16(sp)
   23f20:	0080050e 	bge	zero,r2,23f38 <_dtoa_r+0xb1c>
   23f24:	d9400317 	ldw	r5,12(sp)
   23f28:	100d883a 	mov	r6,r2
   23f2c:	8009883a 	mov	r4,r16
   23f30:	00273040 	call	27304 <__lshift>
   23f34:	d8800315 	stw	r2,12(sp)
   23f38:	d8800817 	ldw	r2,32(sp)
   23f3c:	10004c1e 	bne	r2,zero,24070 <_dtoa_r+0xc54>
   23f40:	04811a0e 	bge	zero,r18,243ac <_dtoa_r+0xf90>
   23f44:	d8800717 	ldw	r2,28(sp)
   23f48:	1000a11e 	bne	r2,zero,241d0 <_dtoa_r+0xdb4>
   23f4c:	d8800617 	ldw	r2,24(sp)
   23f50:	15400044 	addi	r21,r2,1
   23f54:	dd800317 	ldw	r22,12(sp)
   23f58:	04c00044 	movi	r19,1
   23f5c:	00000706 	br	23f7c <_dtoa_r+0xb60>
   23f60:	b80b883a 	mov	r5,r23
   23f64:	000f883a 	mov	r7,zero
   23f68:	01800284 	movi	r6,10
   23f6c:	8009883a 	mov	r4,r16
   23f70:	0026b340 	call	26b34 <__multadd>
   23f74:	102f883a 	mov	r23,r2
   23f78:	9cc00044 	addi	r19,r19,1
   23f7c:	b00b883a 	mov	r5,r22
   23f80:	b809883a 	mov	r4,r23
   23f84:	00232200 	call	23220 <quorem>
   23f88:	15000c04 	addi	r20,r2,48
   23f8c:	e4c5883a 	add	r2,fp,r19
   23f90:	153fffc5 	stb	r20,-1(r2)
   23f94:	9cbff216 	blt	r19,r18,23f60 <_dtoa_r+0xb44>
   23f98:	04800116 	blt	zero,r18,23fa0 <_dtoa_r+0xb84>
   23f9c:	04800044 	movi	r18,1
   23fa0:	e4a5883a 	add	r18,fp,r18
   23fa4:	d8000215 	stw	zero,8(sp)
   23fa8:	b80b883a 	mov	r5,r23
   23fac:	8009883a 	mov	r4,r16
   23fb0:	01800044 	movi	r6,1
   23fb4:	00273040 	call	27304 <__lshift>
   23fb8:	d9400317 	ldw	r5,12(sp)
   23fbc:	1009883a 	mov	r4,r2
   23fc0:	102f883a 	mov	r23,r2
   23fc4:	002748c0 	call	2748c <__mcmp>
   23fc8:	00800216 	blt	zero,r2,23fd4 <_dtoa_r+0xbb8>
   23fcc:	00017c06 	br	245c0 <_dtoa_r+0x11a4>
   23fd0:	e4819026 	beq	fp,r18,24614 <_dtoa_r+0x11f8>
   23fd4:	90ffffc3 	ldbu	r3,-1(r18)
   23fd8:	9011883a 	mov	r8,r18
   23fdc:	94bfffc4 	addi	r18,r18,-1
   23fe0:	18803fcc 	andi	r2,r3,255
   23fe4:	1080201c 	xori	r2,r2,128
   23fe8:	10bfe004 	addi	r2,r2,-128
   23fec:	10800e60 	cmpeqi	r2,r2,57
   23ff0:	103ff71e 	bne	r2,zero,23fd0 <_dtoa_r+0xbb4>
   23ff4:	18c00044 	addi	r3,r3,1
   23ff8:	90c00005 	stb	r3,0(r18)
   23ffc:	d9400317 	ldw	r5,12(sp)
   24000:	8009883a 	mov	r4,r16
   24004:	da000115 	stw	r8,4(sp)
   24008:	0026b100 	call	26b10 <_Bfree>
   2400c:	da000117 	ldw	r8,4(sp)
   24010:	88000b26 	beq	r17,zero,24040 <_dtoa_r+0xc24>
   24014:	d9400217 	ldw	r5,8(sp)
   24018:	28000426 	beq	r5,zero,2402c <_dtoa_r+0xc10>
   2401c:	2c400326 	beq	r5,r17,2402c <_dtoa_r+0xc10>
   24020:	8009883a 	mov	r4,r16
   24024:	0026b100 	call	26b10 <_Bfree>
   24028:	da000117 	ldw	r8,4(sp)
   2402c:	880b883a 	mov	r5,r17
   24030:	8009883a 	mov	r4,r16
   24034:	da000115 	stw	r8,4(sp)
   24038:	0026b100 	call	26b10 <_Bfree>
   2403c:	da000117 	ldw	r8,4(sp)
   24040:	b80b883a 	mov	r5,r23
   24044:	8009883a 	mov	r4,r16
   24048:	da000115 	stw	r8,4(sp)
   2404c:	0026b100 	call	26b10 <_Bfree>
   24050:	da000117 	ldw	r8,4(sp)
   24054:	d8802017 	ldw	r2,128(sp)
   24058:	40000005 	stb	zero,0(r8)
   2405c:	15400015 	stw	r21,0(r2)
   24060:	d8802217 	ldw	r2,136(sp)
   24064:	103d1e26 	beq	r2,zero,234e0 <_dtoa_r+0xc4>
   24068:	12000015 	stw	r8,0(r2)
   2406c:	003d1c06 	br	234e0 <_dtoa_r+0xc4>
   24070:	d9400317 	ldw	r5,12(sp)
   24074:	b809883a 	mov	r4,r23
   24078:	002748c0 	call	2748c <__mcmp>
   2407c:	103fb00e 	bge	r2,zero,23f40 <_dtoa_r+0xb24>
   24080:	b80b883a 	mov	r5,r23
   24084:	000f883a 	mov	r7,zero
   24088:	01800284 	movi	r6,10
   2408c:	8009883a 	mov	r4,r16
   24090:	0026b340 	call	26b34 <__multadd>
   24094:	d8c00617 	ldw	r3,24(sp)
   24098:	102f883a 	mov	r23,r2
   2409c:	d8800717 	ldw	r2,28(sp)
   240a0:	1d7fffc4 	addi	r21,r3,-1
   240a4:	1000411e 	bne	r2,zero,241ac <_dtoa_r+0xd90>
   240a8:	dc800a17 	ldw	r18,40(sp)
   240ac:	0482940e 	bge	zero,r18,24b00 <_dtoa_r+0x16e4>
   240b0:	dd400617 	ldw	r21,24(sp)
   240b4:	003fa706 	br	23f54 <_dtoa_r+0xb38>
   240b8:	00800044 	movi	r2,1
   240bc:	d8800815 	stw	r2,32(sp)
   240c0:	a0bfffc4 	addi	r2,r20,-1
   240c4:	103d720e 	bge	r2,zero,23690 <_dtoa_r+0x274>
   240c8:	00800044 	movi	r2,1
   240cc:	1505c83a 	sub	r2,r2,r20
   240d0:	d8800515 	stw	r2,20(sp)
   240d4:	d8000415 	stw	zero,16(sp)
   240d8:	003d6e06 	br	23694 <_dtoa_r+0x278>
   240dc:	b009883a 	mov	r4,r22
   240e0:	002d8540 	call	2d854 <__floatsidf>
   240e4:	980d883a 	mov	r6,r19
   240e8:	900f883a 	mov	r7,r18
   240ec:	1009883a 	mov	r4,r2
   240f0:	180b883a 	mov	r5,r3
   240f4:	002c4840 	call	2c484 <__eqdf2>
   240f8:	103d5226 	beq	r2,zero,23644 <_dtoa_r+0x228>
   240fc:	b5bfffc4 	addi	r22,r22,-1
   24100:	003d5006 	br	23644 <_dtoa_r+0x228>
   24104:	d8c00117 	ldw	r3,4(sp)
   24108:	18c00088 	cmpgei	r3,r3,2
   2410c:	18013526 	beq	r3,zero,245e4 <_dtoa_r+0x11c8>
   24110:	d8800317 	ldw	r2,12(sp)
   24114:	953fffc4 	addi	r20,r18,-1
   24118:	1500fc16 	blt	r2,r20,2450c <_dtoa_r+0x10f0>
   2411c:	1529c83a 	sub	r20,r2,r20
   24120:	d8800517 	ldw	r2,20(sp)
   24124:	9002620e 	bge	r18,zero,24ab0 <_dtoa_r+0x1694>
   24128:	14a7c83a 	sub	r19,r2,r18
   2412c:	00010306 	br	2453c <_dtoa_r+0x1120>
   24130:	00800704 	movi	r2,28
   24134:	d8c00517 	ldw	r3,20(sp)
   24138:	98a7883a 	add	r19,r19,r2
   2413c:	1887883a 	add	r3,r3,r2
   24140:	d8c00515 	stw	r3,20(sp)
   24144:	d8c00417 	ldw	r3,16(sp)
   24148:	1885883a 	add	r2,r3,r2
   2414c:	d8800415 	stw	r2,16(sp)
   24150:	003f6b06 	br	23f00 <_dtoa_r+0xae4>
   24154:	d8c00117 	ldw	r3,4(sp)
   24158:	188000e0 	cmpeqi	r2,r3,3
   2415c:	1001151e 	bne	r2,zero,245b4 <_dtoa_r+0x1198>
   24160:	18800108 	cmpgei	r2,r3,4
   24164:	10000226 	beq	r2,zero,24170 <_dtoa_r+0xd54>
   24168:	04400044 	movi	r17,1
   2416c:	003d5d06 	br	236e4 <_dtoa_r+0x2c8>
   24170:	188000a0 	cmpeqi	r2,r3,2
   24174:	10028d26 	beq	r2,zero,24bac <_dtoa_r+0x1790>
   24178:	04400044 	movi	r17,1
   2417c:	d8000715 	stw	zero,28(sp)
   24180:	d8801f17 	ldw	r2,124(sp)
   24184:	0080be0e 	bge	zero,r2,24480 <_dtoa_r+0x1064>
   24188:	d8800a15 	stw	r2,40(sp)
   2418c:	1025883a 	mov	r18,r2
   24190:	100d883a 	mov	r6,r2
   24194:	003d6106 	br	2371c <_dtoa_r+0x300>
   24198:	01000804 	movi	r4,32
   2419c:	2089c83a 	sub	r4,r4,r2
   241a0:	d8800217 	ldw	r2,8(sp)
   241a4:	1108983a 	sll	r4,r2,r4
   241a8:	003cf206 	br	23574 <_dtoa_r+0x158>
   241ac:	880b883a 	mov	r5,r17
   241b0:	000f883a 	mov	r7,zero
   241b4:	01800284 	movi	r6,10
   241b8:	8009883a 	mov	r4,r16
   241bc:	0026b340 	call	26b34 <__multadd>
   241c0:	dc800a17 	ldw	r18,40(sp)
   241c4:	1023883a 	mov	r17,r2
   241c8:	04825d0e 	bge	zero,r18,24b40 <_dtoa_r+0x1724>
   241cc:	dd400615 	stw	r21,24(sp)
   241d0:	04c0c616 	blt	zero,r19,244ec <_dtoa_r+0x10d0>
   241d4:	b0016e1e 	bne	r22,zero,24790 <_dtoa_r+0x1374>
   241d8:	8827883a 	mov	r19,r17
   241dc:	e0bfffc4 	addi	r2,fp,-1
   241e0:	1485883a 	add	r2,r2,r18
   241e4:	d8800515 	stw	r2,20(sp)
   241e8:	d8800217 	ldw	r2,8(sp)
   241ec:	e02d883a 	mov	r22,fp
   241f0:	df000815 	stw	fp,32(sp)
   241f4:	1080004c 	andi	r2,r2,1
   241f8:	d8800715 	stw	r2,28(sp)
   241fc:	dc800317 	ldw	r18,12(sp)
   24200:	b809883a 	mov	r4,r23
   24204:	900b883a 	mov	r5,r18
   24208:	00232200 	call	23220 <quorem>
   2420c:	880b883a 	mov	r5,r17
   24210:	b809883a 	mov	r4,r23
   24214:	102b883a 	mov	r21,r2
   24218:	002748c0 	call	2748c <__mcmp>
   2421c:	900b883a 	mov	r5,r18
   24220:	980d883a 	mov	r6,r19
   24224:	8009883a 	mov	r4,r16
   24228:	1025883a 	mov	r18,r2
   2422c:	00274e40 	call	274e4 <__mdiff>
   24230:	100b883a 	mov	r5,r2
   24234:	10800317 	ldw	r2,12(r2)
   24238:	af000c04 	addi	fp,r21,48
   2423c:	1000261e 	bne	r2,zero,242d8 <_dtoa_r+0xebc>
   24240:	b809883a 	mov	r4,r23
   24244:	d9400415 	stw	r5,16(sp)
   24248:	002748c0 	call	2748c <__mcmp>
   2424c:	d9400417 	ldw	r5,16(sp)
   24250:	1029883a 	mov	r20,r2
   24254:	8009883a 	mov	r4,r16
   24258:	0026b100 	call	26b10 <_Bfree>
   2425c:	a000401e 	bne	r20,zero,24360 <_dtoa_r+0xf44>
   24260:	d8800117 	ldw	r2,4(sp)
   24264:	1000021e 	bne	r2,zero,24270 <_dtoa_r+0xe54>
   24268:	d8800717 	ldw	r2,28(sp)
   2426c:	1000cb26 	beq	r2,zero,2459c <_dtoa_r+0x1180>
   24270:	90020816 	blt	r18,zero,24a94 <_dtoa_r+0x1678>
   24274:	d8800517 	ldw	r2,20(sp)
   24278:	b7000005 	stb	fp,0(r22)
   2427c:	b4800044 	addi	r18,r22,1
   24280:	15815426 	beq	r2,r22,247d4 <_dtoa_r+0x13b8>
   24284:	b80b883a 	mov	r5,r23
   24288:	000f883a 	mov	r7,zero
   2428c:	01800284 	movi	r6,10
   24290:	8009883a 	mov	r4,r16
   24294:	0026b340 	call	26b34 <__multadd>
   24298:	102f883a 	mov	r23,r2
   2429c:	880b883a 	mov	r5,r17
   242a0:	000f883a 	mov	r7,zero
   242a4:	01800284 	movi	r6,10
   242a8:	8009883a 	mov	r4,r16
   242ac:	8cc02826 	beq	r17,r19,24350 <_dtoa_r+0xf34>
   242b0:	0026b340 	call	26b34 <__multadd>
   242b4:	980b883a 	mov	r5,r19
   242b8:	000f883a 	mov	r7,zero
   242bc:	01800284 	movi	r6,10
   242c0:	8009883a 	mov	r4,r16
   242c4:	1023883a 	mov	r17,r2
   242c8:	0026b340 	call	26b34 <__multadd>
   242cc:	1027883a 	mov	r19,r2
   242d0:	902d883a 	mov	r22,r18
   242d4:	003fc906 	br	241fc <_dtoa_r+0xde0>
   242d8:	8009883a 	mov	r4,r16
   242dc:	e029883a 	mov	r20,fp
   242e0:	df000817 	ldw	fp,32(sp)
   242e4:	0026b100 	call	26b10 <_Bfree>
   242e8:	90000616 	blt	r18,zero,24304 <_dtoa_r+0xee8>
   242ec:	d8800217 	ldw	r2,8(sp)
   242f0:	d8c00117 	ldw	r3,4(sp)
   242f4:	1080004c 	andi	r2,r2,1
   242f8:	1ca4b03a 	or	r18,r3,r18
   242fc:	1484b03a 	or	r2,r2,r18
   24300:	1000201e 	bne	r2,zero,24384 <_dtoa_r+0xf68>
   24304:	b80b883a 	mov	r5,r23
   24308:	8009883a 	mov	r4,r16
   2430c:	01800044 	movi	r6,1
   24310:	00273040 	call	27304 <__lshift>
   24314:	d9400317 	ldw	r5,12(sp)
   24318:	1009883a 	mov	r4,r2
   2431c:	102f883a 	mov	r23,r2
   24320:	002748c0 	call	2748c <__mcmp>
   24324:	0080990e 	bge	zero,r2,2458c <_dtoa_r+0x1170>
   24328:	a0c00e60 	cmpeqi	r3,r20,57
   2432c:	1801ce1e 	bne	r3,zero,24a68 <_dtoa_r+0x164c>
   24330:	ad000c44 	addi	r20,r21,49
   24334:	d8800617 	ldw	r2,24(sp)
   24338:	dc400215 	stw	r17,8(sp)
   2433c:	b2000044 	addi	r8,r22,1
   24340:	b5000005 	stb	r20,0(r22)
   24344:	15400044 	addi	r21,r2,1
   24348:	9823883a 	mov	r17,r19
   2434c:	003f2b06 	br	23ffc <_dtoa_r+0xbe0>
   24350:	0026b340 	call	26b34 <__multadd>
   24354:	1023883a 	mov	r17,r2
   24358:	1027883a 	mov	r19,r2
   2435c:	003fdc06 	br	242d0 <_dtoa_r+0xeb4>
   24360:	90022316 	blt	r18,zero,24bf0 <_dtoa_r+0x17d4>
   24364:	d8800117 	ldw	r2,4(sp)
   24368:	14a4b03a 	or	r18,r2,r18
   2436c:	d8800717 	ldw	r2,28(sp)
   24370:	14a4b03a 	or	r18,r2,r18
   24374:	90021e26 	beq	r18,zero,24bf0 <_dtoa_r+0x17d4>
   24378:	053fbe0e 	bge	zero,r20,24274 <_dtoa_r+0xe58>
   2437c:	e029883a 	mov	r20,fp
   24380:	df000817 	ldw	fp,32(sp)
   24384:	a0800e60 	cmpeqi	r2,r20,57
   24388:	1001b71e 	bne	r2,zero,24a68 <_dtoa_r+0x164c>
   2438c:	d8800617 	ldw	r2,24(sp)
   24390:	a0c00044 	addi	r3,r20,1
   24394:	dc400215 	stw	r17,8(sp)
   24398:	b2000044 	addi	r8,r22,1
   2439c:	15400044 	addi	r21,r2,1
   243a0:	b0c00005 	stb	r3,0(r22)
   243a4:	9823883a 	mov	r17,r19
   243a8:	003f1406 	br	23ffc <_dtoa_r+0xbe0>
   243ac:	d8800117 	ldw	r2,4(sp)
   243b0:	108000d0 	cmplti	r2,r2,3
   243b4:	103ee31e 	bne	r2,zero,23f44 <_dtoa_r+0xb28>
   243b8:	9000d81e 	bne	r18,zero,2471c <_dtoa_r+0x1300>
   243bc:	d9400317 	ldw	r5,12(sp)
   243c0:	8009883a 	mov	r4,r16
   243c4:	000f883a 	mov	r7,zero
   243c8:	01800144 	movi	r6,5
   243cc:	0026b340 	call	26b34 <__multadd>
   243d0:	100b883a 	mov	r5,r2
   243d4:	b809883a 	mov	r4,r23
   243d8:	d8800315 	stw	r2,12(sp)
   243dc:	002748c0 	call	2748c <__mcmp>
   243e0:	0080ce0e 	bge	zero,r2,2471c <_dtoa_r+0x1300>
   243e4:	00800c44 	movi	r2,49
   243e8:	e0800005 	stb	r2,0(fp)
   243ec:	d8800617 	ldw	r2,24(sp)
   243f0:	e2000044 	addi	r8,fp,1
   243f4:	14800044 	addi	r18,r2,1
   243f8:	d9400317 	ldw	r5,12(sp)
   243fc:	8009883a 	mov	r4,r16
   24400:	da000115 	stw	r8,4(sp)
   24404:	0026b100 	call	26b10 <_Bfree>
   24408:	da000117 	ldw	r8,4(sp)
   2440c:	95400044 	addi	r21,r18,1
   24410:	883f061e 	bne	r17,zero,2402c <_dtoa_r+0xc10>
   24414:	003f0a06 	br	24040 <_dtoa_r+0xc24>
   24418:	100b883a 	mov	r5,r2
   2441c:	b00d883a 	mov	r6,r22
   24420:	8009883a 	mov	r4,r16
   24424:	00271c40 	call	271c4 <__pow5mult>
   24428:	d8c00117 	ldw	r3,4(sp)
   2442c:	d8800315 	stw	r2,12(sp)
   24430:	18c00090 	cmplti	r3,r3,2
   24434:	1800461e 	bne	r3,zero,24550 <_dtoa_r+0x1134>
   24438:	002d883a 	mov	r22,zero
   2443c:	d8c00317 	ldw	r3,12(sp)
   24440:	18800417 	ldw	r2,16(r3)
   24444:	10800104 	addi	r2,r2,4
   24448:	100490ba 	slli	r2,r2,2
   2444c:	1885883a 	add	r2,r3,r2
   24450:	11000017 	ldw	r4,0(r2)
   24454:	0026d9c0 	call	26d9c <__hi0bits>
   24458:	00c00804 	movi	r3,32
   2445c:	1885c83a 	sub	r2,r3,r2
   24460:	003e9706 	br	23ec0 <_dtoa_r+0xaa4>
   24464:	008000f4 	movhi	r2,3
   24468:	e701c204 	addi	fp,fp,1800
   2446c:	1081c2c4 	addi	r2,r2,1803
   24470:	003db106 	br	23b38 <_dtoa_r+0x71c>
   24474:	00800044 	movi	r2,1
   24478:	d8800715 	stw	r2,28(sp)
   2447c:	003f4006 	br	24180 <_dtoa_r+0xd64>
   24480:	00800044 	movi	r2,1
   24484:	04800044 	movi	r18,1
   24488:	d8801f15 	stw	r2,124(sp)
   2448c:	003e6306 	br	23e1c <_dtoa_r+0xa00>
   24490:	d8800217 	ldw	r2,8(sp)
   24494:	103e891e 	bne	r2,zero,23ebc <_dtoa_r+0xaa0>
   24498:	00800434 	movhi	r2,16
   2449c:	10bfffc4 	addi	r2,r2,-1
   244a0:	a884703a 	and	r2,r21,r2
   244a4:	103e851e 	bne	r2,zero,23ebc <_dtoa_r+0xaa0>
   244a8:	a89ffc2c 	andhi	r2,r21,32752
   244ac:	10017c26 	beq	r2,zero,24aa0 <_dtoa_r+0x1684>
   244b0:	d8800517 	ldw	r2,20(sp)
   244b4:	10800044 	addi	r2,r2,1
   244b8:	d8800515 	stw	r2,20(sp)
   244bc:	d8800417 	ldw	r2,16(sp)
   244c0:	10800044 	addi	r2,r2,1
   244c4:	d8800415 	stw	r2,16(sp)
   244c8:	00800044 	movi	r2,1
   244cc:	b001761e 	bne	r22,zero,24aa8 <_dtoa_r+0x168c>
   244d0:	102d883a 	mov	r22,r2
   244d4:	003e7906 	br	23ebc <_dtoa_r+0xaa0>
   244d8:	18c00120 	cmpeqi	r3,r3,4
   244dc:	183e881e 	bne	r3,zero,23f00 <_dtoa_r+0xae4>
   244e0:	00c00f04 	movi	r3,60
   244e4:	1885c83a 	sub	r2,r3,r2
   244e8:	003f1206 	br	24134 <_dtoa_r+0xd18>
   244ec:	880b883a 	mov	r5,r17
   244f0:	980d883a 	mov	r6,r19
   244f4:	8009883a 	mov	r4,r16
   244f8:	00273040 	call	27304 <__lshift>
   244fc:	1023883a 	mov	r17,r2
   24500:	003f3406 	br	241d4 <_dtoa_r+0xdb8>
   24504:	1805883a 	mov	r2,r3
   24508:	003e5306 	br	23e58 <_dtoa_r+0xa3c>
   2450c:	d8800317 	ldw	r2,12(sp)
   24510:	d8c00517 	ldw	r3,20(sp)
   24514:	dd000315 	stw	r20,12(sp)
   24518:	a085c83a 	sub	r2,r20,r2
   2451c:	b0ad883a 	add	r22,r22,r2
   24520:	d8800417 	ldw	r2,16(sp)
   24524:	1827883a 	mov	r19,r3
   24528:	0029883a 	mov	r20,zero
   2452c:	1485883a 	add	r2,r2,r18
   24530:	d8800415 	stw	r2,16(sp)
   24534:	1c85883a 	add	r2,r3,r18
   24538:	d8800515 	stw	r2,20(sp)
   2453c:	01400044 	movi	r5,1
   24540:	8009883a 	mov	r4,r16
   24544:	0026ec00 	call	26ec0 <__i2b>
   24548:	1023883a 	mov	r17,r2
   2454c:	003e3d06 	br	23e44 <_dtoa_r+0xa28>
   24550:	d8800217 	ldw	r2,8(sp)
   24554:	103fb81e 	bne	r2,zero,24438 <_dtoa_r+0x101c>
   24558:	00800434 	movhi	r2,16
   2455c:	10bfffc4 	addi	r2,r2,-1
   24560:	a884703a 	and	r2,r21,r2
   24564:	103fb41e 	bne	r2,zero,24438 <_dtoa_r+0x101c>
   24568:	003fcf06 	br	244a8 <_dtoa_r+0x108c>
   2456c:	d9000217 	ldw	r4,8(sp)
   24570:	a80b883a 	mov	r5,r21
   24574:	04c00084 	movi	r19,2
   24578:	003c9506 	br	237d0 <_dtoa_r+0x3b4>
   2457c:	00800084 	movi	r2,2
   24580:	d8800115 	stw	r2,4(sp)
   24584:	d8000715 	stw	zero,28(sp)
   24588:	003efd06 	br	24180 <_dtoa_r+0xd64>
   2458c:	103f691e 	bne	r2,zero,24334 <_dtoa_r+0xf18>
   24590:	a080004c 	andi	r2,r20,1
   24594:	103f641e 	bne	r2,zero,24328 <_dtoa_r+0xf0c>
   24598:	003f6606 	br	24334 <_dtoa_r+0xf18>
   2459c:	e029883a 	mov	r20,fp
   245a0:	a0800e60 	cmpeqi	r2,r20,57
   245a4:	df000817 	ldw	fp,32(sp)
   245a8:	10012f1e 	bne	r2,zero,24a68 <_dtoa_r+0x164c>
   245ac:	04bf6016 	blt	zero,r18,24330 <_dtoa_r+0xf14>
   245b0:	003f6006 	br	24334 <_dtoa_r+0xf18>
   245b4:	04400044 	movi	r17,1
   245b8:	d8000715 	stw	zero,28(sp)
   245bc:	003c5006 	br	23700 <_dtoa_r+0x2e4>
   245c0:	1000021e 	bne	r2,zero,245cc <_dtoa_r+0x11b0>
   245c4:	a0c0004c 	andi	r3,r20,1
   245c8:	183e821e 	bne	r3,zero,23fd4 <_dtoa_r+0xbb8>
   245cc:	90bfffc7 	ldb	r2,-1(r18)
   245d0:	9011883a 	mov	r8,r18
   245d4:	94bfffc4 	addi	r18,r18,-1
   245d8:	10800c20 	cmpeqi	r2,r2,48
   245dc:	103ffb1e 	bne	r2,zero,245cc <_dtoa_r+0x11b0>
   245e0:	003e8606 	br	23ffc <_dtoa_r+0xbe0>
   245e4:	d8c00917 	ldw	r3,36(sp)
   245e8:	18009526 	beq	r3,zero,24840 <_dtoa_r+0x1424>
   245ec:	d8c00517 	ldw	r3,20(sp)
   245f0:	d9000417 	ldw	r4,16(sp)
   245f4:	10810cc4 	addi	r2,r2,1075
   245f8:	dd000317 	ldw	r20,12(sp)
   245fc:	2089883a 	add	r4,r4,r2
   24600:	1885883a 	add	r2,r3,r2
   24604:	1827883a 	mov	r19,r3
   24608:	d9000415 	stw	r4,16(sp)
   2460c:	d8800515 	stw	r2,20(sp)
   24610:	003fca06 	br	2453c <_dtoa_r+0x1120>
   24614:	00800c44 	movi	r2,49
   24618:	e0800005 	stb	r2,0(fp)
   2461c:	ad400044 	addi	r21,r21,1
   24620:	003e7606 	br	23ffc <_dtoa_r+0xbe0>
   24624:	00800044 	movi	r2,1
   24628:	1505c83a 	sub	r2,r2,r20
   2462c:	d8800515 	stw	r2,20(sp)
   24630:	d8000415 	stw	zero,16(sp)
   24634:	d8000815 	stw	zero,32(sp)
   24638:	003dea06 	br	23de4 <_dtoa_r+0x9c8>
   2463c:	d8800617 	ldw	r2,24(sp)
   24640:	1000e326 	beq	r2,zero,249d0 <_dtoa_r+0x15b4>
   24644:	0091c83a 	sub	r8,zero,r2
   24648:	408003cc 	andi	r2,r8,15
   2464c:	100490fa 	slli	r2,r2,3
   24650:	02c000f4 	movhi	r11,3
   24654:	5ac1fd04 	addi	r11,r11,2036
   24658:	5885883a 	add	r2,r11,r2
   2465c:	4011d13a 	srai	r8,r8,4
   24660:	11800017 	ldw	r6,0(r2)
   24664:	11c00117 	ldw	r7,4(r2)
   24668:	d9000217 	ldw	r4,8(sp)
   2466c:	a80b883a 	mov	r5,r21
   24670:	da000b15 	stw	r8,44(sp)
   24674:	002c70c0 	call	2c70c <__muldf3>
   24678:	da000b17 	ldw	r8,44(sp)
   2467c:	40013726 	beq	r8,zero,24b5c <_dtoa_r+0x1740>
   24680:	024000f4 	movhi	r9,3
   24684:	000b883a 	mov	r5,zero
   24688:	04c00084 	movi	r19,2
   2468c:	4a41f304 	addi	r9,r9,1996
   24690:	dc800b15 	stw	r18,44(sp)
   24694:	1009883a 	mov	r4,r2
   24698:	9825883a 	mov	r18,r19
   2469c:	d8800c15 	stw	r2,48(sp)
   246a0:	8027883a 	mov	r19,r16
   246a4:	2805883a 	mov	r2,r5
   246a8:	1829883a 	mov	r20,r3
   246ac:	4021883a 	mov	r16,r8
   246b0:	4823883a 	mov	r17,r9
   246b4:	180b883a 	mov	r5,r3
   246b8:	8180004c 	andi	r6,r16,1
   246bc:	30000726 	beq	r6,zero,246dc <_dtoa_r+0x12c0>
   246c0:	89800017 	ldw	r6,0(r17)
   246c4:	89c00117 	ldw	r7,4(r17)
   246c8:	94800044 	addi	r18,r18,1
   246cc:	002c70c0 	call	2c70c <__muldf3>
   246d0:	1009883a 	mov	r4,r2
   246d4:	180b883a 	mov	r5,r3
   246d8:	00800044 	movi	r2,1
   246dc:	8021d07a 	srai	r16,r16,1
   246e0:	8c400204 	addi	r17,r17,8
   246e4:	803ff41e 	bne	r16,zero,246b8 <_dtoa_r+0x129c>
   246e8:	a007883a 	mov	r3,r20
   246ec:	2829883a 	mov	r20,r5
   246f0:	100b883a 	mov	r5,r2
   246f4:	29403fcc 	andi	r5,r5,255
   246f8:	9821883a 	mov	r16,r19
   246fc:	d8800c17 	ldw	r2,48(sp)
   24700:	9027883a 	mov	r19,r18
   24704:	2023883a 	mov	r17,r4
   24708:	dc800b17 	ldw	r18,44(sp)
   2470c:	283c521e 	bne	r5,zero,23858 <_dtoa_r+0x43c>
   24710:	1023883a 	mov	r17,r2
   24714:	1829883a 	mov	r20,r3
   24718:	003c4f06 	br	23858 <_dtoa_r+0x43c>
   2471c:	e011883a 	mov	r8,fp
   24720:	003d5806 	br	23c84 <_dtoa_r+0x868>
   24724:	8023883a 	mov	r17,r16
   24728:	ddc00217 	ldw	r23,8(sp)
   2472c:	dc000417 	ldw	r16,16(sp)
   24730:	200d883a 	mov	r6,r4
   24734:	280f883a 	mov	r7,r5
   24738:	002b3380 	call	2b338 <__adddf3>
   2473c:	1009883a 	mov	r4,r2
   24740:	d9800117 	ldw	r6,4(sp)
   24744:	d9c00317 	ldw	r7,12(sp)
   24748:	1029883a 	mov	r20,r2
   2474c:	d8800617 	ldw	r2,24(sp)
   24750:	180b883a 	mov	r5,r3
   24754:	1825883a 	mov	r18,r3
   24758:	15400044 	addi	r21,r2,1
   2475c:	002c5180 	call	2c518 <__gedf2>
   24760:	a82d883a 	mov	r22,r21
   24764:	00bcd016 	blt	zero,r2,23aa8 <_dtoa_r+0x68c>
   24768:	d9800117 	ldw	r6,4(sp)
   2476c:	d9c00317 	ldw	r7,12(sp)
   24770:	a009883a 	mov	r4,r20
   24774:	900b883a 	mov	r5,r18
   24778:	002c4840 	call	2c484 <__eqdf2>
   2477c:	1000021e 	bne	r2,zero,24788 <_dtoa_r+0x136c>
   24780:	8880004c 	andi	r2,r17,1
   24784:	103cc81e 	bne	r2,zero,23aa8 <_dtoa_r+0x68c>
   24788:	9811883a 	mov	r8,r19
   2478c:	003e2c06 	br	24040 <_dtoa_r+0xc24>
   24790:	89400117 	ldw	r5,4(r17)
   24794:	8009883a 	mov	r4,r16
   24798:	0026a6c0 	call	26a6c <_Balloc>
   2479c:	1027883a 	mov	r19,r2
   247a0:	1000f226 	beq	r2,zero,24b6c <_dtoa_r+0x1750>
   247a4:	89800417 	ldw	r6,16(r17)
   247a8:	89400304 	addi	r5,r17,12
   247ac:	11000304 	addi	r4,r2,12
   247b0:	31800084 	addi	r6,r6,2
   247b4:	300c90ba 	slli	r6,r6,2
   247b8:	002674c0 	call	2674c <memcpy>
   247bc:	980b883a 	mov	r5,r19
   247c0:	01800044 	movi	r6,1
   247c4:	8009883a 	mov	r4,r16
   247c8:	00273040 	call	27304 <__lshift>
   247cc:	1027883a 	mov	r19,r2
   247d0:	003e8206 	br	241dc <_dtoa_r+0xdc0>
   247d4:	d8800617 	ldw	r2,24(sp)
   247d8:	e029883a 	mov	r20,fp
   247dc:	dc400215 	stw	r17,8(sp)
   247e0:	df000817 	ldw	fp,32(sp)
   247e4:	15400044 	addi	r21,r2,1
   247e8:	9823883a 	mov	r17,r19
   247ec:	003dee06 	br	23fa8 <_dtoa_r+0xb8c>
   247f0:	880b883a 	mov	r5,r17
   247f4:	a00d883a 	mov	r6,r20
   247f8:	8009883a 	mov	r4,r16
   247fc:	00271c40 	call	271c4 <__pow5mult>
   24800:	b80d883a 	mov	r6,r23
   24804:	100b883a 	mov	r5,r2
   24808:	8009883a 	mov	r4,r16
   2480c:	1023883a 	mov	r17,r2
   24810:	0026f700 	call	26f70 <__multiply>
   24814:	d8800915 	stw	r2,36(sp)
   24818:	d8800317 	ldw	r2,12(sp)
   2481c:	b80b883a 	mov	r5,r23
   24820:	8009883a 	mov	r4,r16
   24824:	1529c83a 	sub	r20,r2,r20
   24828:	dd000315 	stw	r20,12(sp)
   2482c:	0026b100 	call	26b10 <_Bfree>
   24830:	d8800917 	ldw	r2,36(sp)
   24834:	102f883a 	mov	r23,r2
   24838:	a03d9826 	beq	r20,zero,23e9c <_dtoa_r+0xa80>
   2483c:	003d9206 	br	23e88 <_dtoa_r+0xa6c>
   24840:	d8c01317 	ldw	r3,76(sp)
   24844:	00800d84 	movi	r2,54
   24848:	d9000517 	ldw	r4,20(sp)
   2484c:	10c5c83a 	sub	r2,r2,r3
   24850:	d8c00417 	ldw	r3,16(sp)
   24854:	dd000317 	ldw	r20,12(sp)
   24858:	2027883a 	mov	r19,r4
   2485c:	1887883a 	add	r3,r3,r2
   24860:	2085883a 	add	r2,r4,r2
   24864:	d8c00415 	stw	r3,16(sp)
   24868:	d8800515 	stw	r2,20(sp)
   2486c:	003f3306 	br	2453c <_dtoa_r+0x1120>
   24870:	d9000b17 	ldw	r4,44(sp)
   24874:	d9800f17 	ldw	r6,60(sp)
   24878:	d9c01017 	ldw	r7,64(sp)
   2487c:	980b883a 	mov	r5,r19
   24880:	dac01215 	stw	r11,72(sp)
   24884:	da000d15 	stw	r8,52(sp)
   24888:	002c70c0 	call	2c70c <__muldf3>
   2488c:	d9000e17 	ldw	r4,56(sp)
   24890:	d9400c17 	ldw	r5,48(sp)
   24894:	d8800715 	stw	r2,28(sp)
   24898:	e1000005 	stb	r4,0(fp)
   2489c:	d8c00915 	stw	r3,36(sp)
   248a0:	29000058 	cmpnei	r4,r5,1
   248a4:	da000d17 	ldw	r8,52(sp)
   248a8:	dac01217 	ldw	r11,72(sp)
   248ac:	e167883a 	add	r19,fp,r5
   248b0:	2000a126 	beq	r4,zero,24b38 <_dtoa_r+0x171c>
   248b4:	dc000c15 	stw	r16,48(sp)
   248b8:	dc800b15 	stw	r18,44(sp)
   248bc:	4021883a 	mov	r16,r8
   248c0:	a009883a 	mov	r4,r20
   248c4:	880b883a 	mov	r5,r17
   248c8:	dac00d15 	stw	r11,52(sp)
   248cc:	000d883a 	mov	r6,zero
   248d0:	01d00934 	movhi	r7,16420
   248d4:	002c70c0 	call	2c70c <__muldf3>
   248d8:	180b883a 	mov	r5,r3
   248dc:	1009883a 	mov	r4,r2
   248e0:	1825883a 	mov	r18,r3
   248e4:	1029883a 	mov	r20,r2
   248e8:	002d7d40 	call	2d7d4 <__fixdfsi>
   248ec:	1009883a 	mov	r4,r2
   248f0:	1023883a 	mov	r17,r2
   248f4:	002d8540 	call	2d854 <__floatsidf>
   248f8:	a009883a 	mov	r4,r20
   248fc:	900b883a 	mov	r5,r18
   24900:	100d883a 	mov	r6,r2
   24904:	180f883a 	mov	r7,r3
   24908:	84000044 	addi	r16,r16,1
   2490c:	8c400c04 	addi	r17,r17,48
   24910:	002cde40 	call	2cde4 <__subdf3>
   24914:	847fffc5 	stb	r17,-1(r16)
   24918:	1009883a 	mov	r4,r2
   2491c:	180b883a 	mov	r5,r3
   24920:	9c3fea1e 	bne	r19,r16,248cc <_dtoa_r+0x14b0>
   24924:	dc800b17 	ldw	r18,44(sp)
   24928:	dc000c17 	ldw	r16,48(sp)
   2492c:	dac00d17 	ldw	r11,52(sp)
   24930:	1029883a 	mov	r20,r2
   24934:	1823883a 	mov	r17,r3
   24938:	d9000717 	ldw	r4,28(sp)
   2493c:	d9400917 	ldw	r5,36(sp)
   24940:	000d883a 	mov	r6,zero
   24944:	01cff834 	movhi	r7,16352
   24948:	dac00b15 	stw	r11,44(sp)
   2494c:	002b3380 	call	2b338 <__adddf3>
   24950:	100d883a 	mov	r6,r2
   24954:	180f883a 	mov	r7,r3
   24958:	a009883a 	mov	r4,r20
   2495c:	880b883a 	mov	r5,r17
   24960:	002c5180 	call	2c518 <__gedf2>
   24964:	00805916 	blt	zero,r2,24acc <_dtoa_r+0x16b0>
   24968:	d9800717 	ldw	r6,28(sp)
   2496c:	d9c00917 	ldw	r7,36(sp)
   24970:	0009883a 	mov	r4,zero
   24974:	014ff834 	movhi	r5,16352
   24978:	002cde40 	call	2cde4 <__subdf3>
   2497c:	100d883a 	mov	r6,r2
   24980:	180f883a 	mov	r7,r3
   24984:	a009883a 	mov	r4,r20
   24988:	880b883a 	mov	r5,r17
   2498c:	002c6140 	call	2c614 <__ledf2>
   24990:	dac00b17 	ldw	r11,44(sp)
   24994:	10000616 	blt	r2,zero,249b0 <_dtoa_r+0x1594>
   24998:	d8801417 	ldw	r2,80(sp)
   2499c:	103d2516 	blt	r2,zero,23e34 <_dtoa_r+0xa18>
   249a0:	d8800617 	ldw	r2,24(sp)
   249a4:	108003c8 	cmpgei	r2,r2,15
   249a8:	103d221e 	bne	r2,zero,23e34 <_dtoa_r+0xa18>
   249ac:	003c9c06 	br	23c20 <_dtoa_r+0x804>
   249b0:	98bfffc7 	ldb	r2,-1(r19)
   249b4:	9811883a 	mov	r8,r19
   249b8:	9cffffc4 	addi	r19,r19,-1
   249bc:	10800c20 	cmpeqi	r2,r2,48
   249c0:	103ffb1e 	bne	r2,zero,249b0 <_dtoa_r+0x1594>
   249c4:	d8801117 	ldw	r2,68(sp)
   249c8:	15400044 	addi	r21,r2,1
   249cc:	003d9c06 	br	24040 <_dtoa_r+0xc24>
   249d0:	dc400217 	ldw	r17,8(sp)
   249d4:	a829883a 	mov	r20,r21
   249d8:	04c00084 	movi	r19,2
   249dc:	003b9e06 	br	23858 <_dtoa_r+0x43c>
   249e0:	903c6626 	beq	r18,zero,23b7c <_dtoa_r+0x760>
   249e4:	d8800a17 	ldw	r2,40(sp)
   249e8:	00bc860e 	bge	zero,r2,23c04 <_dtoa_r+0x7e8>
   249ec:	a00b883a 	mov	r5,r20
   249f0:	8809883a 	mov	r4,r17
   249f4:	000d883a 	mov	r6,zero
   249f8:	01d00934 	movhi	r7,16420
   249fc:	002c70c0 	call	2c70c <__muldf3>
   24a00:	99000044 	addi	r4,r19,1
   24a04:	1023883a 	mov	r17,r2
   24a08:	1829883a 	mov	r20,r3
   24a0c:	002d8540 	call	2d854 <__floatsidf>
   24a10:	880d883a 	mov	r6,r17
   24a14:	a00f883a 	mov	r7,r20
   24a18:	1009883a 	mov	r4,r2
   24a1c:	180b883a 	mov	r5,r3
   24a20:	002c70c0 	call	2c70c <__muldf3>
   24a24:	1009883a 	mov	r4,r2
   24a28:	000d883a 	mov	r6,zero
   24a2c:	01d00734 	movhi	r7,16412
   24a30:	180b883a 	mov	r5,r3
   24a34:	002b3380 	call	2b338 <__adddf3>
   24a38:	d9000617 	ldw	r4,24(sp)
   24a3c:	d8800b15 	stw	r2,44(sp)
   24a40:	00bf3034 	movhi	r2,64704
   24a44:	18a7883a 	add	r19,r3,r2
   24a48:	d8800a17 	ldw	r2,40(sp)
   24a4c:	213fffc4 	addi	r4,r4,-1
   24a50:	d9001115 	stw	r4,68(sp)
   24a54:	d8800c15 	stw	r2,48(sp)
   24a58:	003b9a06 	br	238c4 <_dtoa_r+0x4a8>
   24a5c:	00c00c44 	movi	r3,49
   24a60:	b5800044 	addi	r22,r22,1
   24a64:	003c1906 	br	23acc <_dtoa_r+0x6b0>
   24a68:	00800e44 	movi	r2,57
   24a6c:	b0800005 	stb	r2,0(r22)
   24a70:	d8800617 	ldw	r2,24(sp)
   24a74:	dc400215 	stw	r17,8(sp)
   24a78:	b4800044 	addi	r18,r22,1
   24a7c:	15400044 	addi	r21,r2,1
   24a80:	9823883a 	mov	r17,r19
   24a84:	003d5306 	br	23fd4 <_dtoa_r+0xbb8>
   24a88:	d8000315 	stw	zero,12(sp)
   24a8c:	0023883a 	mov	r17,zero
   24a90:	003e5406 	br	243e4 <_dtoa_r+0xfc8>
   24a94:	e029883a 	mov	r20,fp
   24a98:	df000817 	ldw	fp,32(sp)
   24a9c:	003e2506 	br	24334 <_dtoa_r+0xf18>
   24aa0:	0005883a 	mov	r2,zero
   24aa4:	003e8906 	br	244cc <_dtoa_r+0x10b0>
   24aa8:	102d883a 	mov	r22,r2
   24aac:	003e6306 	br	2443c <_dtoa_r+0x1020>
   24ab0:	d8c00417 	ldw	r3,16(sp)
   24ab4:	1027883a 	mov	r19,r2
   24ab8:	1485883a 	add	r2,r2,r18
   24abc:	1c87883a 	add	r3,r3,r18
   24ac0:	d8c00415 	stw	r3,16(sp)
   24ac4:	d8800515 	stw	r2,20(sp)
   24ac8:	003e9c06 	br	2453c <_dtoa_r+0x1120>
   24acc:	d8801117 	ldw	r2,68(sp)
   24ad0:	15800044 	addi	r22,r2,1
   24ad4:	003bf406 	br	23aa8 <_dtoa_r+0x68c>
   24ad8:	ddc00b17 	ldw	r23,44(sp)
   24adc:	dc000c17 	ldw	r16,48(sp)
   24ae0:	b011883a 	mov	r8,r22
   24ae4:	003fb706 	br	249c4 <_dtoa_r+0x15a8>
   24ae8:	dc800d17 	ldw	r18,52(sp)
   24aec:	dd800e17 	ldw	r22,56(sp)
   24af0:	ddc00b17 	ldw	r23,44(sp)
   24af4:	dc000c17 	ldw	r16,48(sp)
   24af8:	dd400f17 	ldw	r21,60(sp)
   24afc:	003c4106 	br	23c04 <_dtoa_r+0x7e8>
   24b00:	d8800117 	ldw	r2,4(sp)
   24b04:	108000c8 	cmpgei	r2,r2,3
   24b08:	1000081e 	bne	r2,zero,24b2c <_dtoa_r+0x1710>
   24b0c:	d9400317 	ldw	r5,12(sp)
   24b10:	b809883a 	mov	r4,r23
   24b14:	00232200 	call	23220 <quorem>
   24b18:	15000c04 	addi	r20,r2,48
   24b1c:	dd400617 	ldw	r21,24(sp)
   24b20:	dc800a17 	ldw	r18,40(sp)
   24b24:	e5000005 	stb	r20,0(fp)
   24b28:	003d1b06 	br	23f98 <_dtoa_r+0xb7c>
   24b2c:	dc800a17 	ldw	r18,40(sp)
   24b30:	dd400615 	stw	r21,24(sp)
   24b34:	003e2006 	br	243b8 <_dtoa_r+0xf9c>
   24b38:	4027883a 	mov	r19,r8
   24b3c:	003f7e06 	br	24938 <_dtoa_r+0x151c>
   24b40:	d8800117 	ldw	r2,4(sp)
   24b44:	108000c8 	cmpgei	r2,r2,3
   24b48:	103ff81e 	bne	r2,zero,24b2c <_dtoa_r+0x1710>
   24b4c:	dd400615 	stw	r21,24(sp)
   24b50:	dc800a17 	ldw	r18,40(sp)
   24b54:	04fd9f0e 	bge	zero,r19,241d4 <_dtoa_r+0xdb8>
   24b58:	003e6406 	br	244ec <_dtoa_r+0x10d0>
   24b5c:	1023883a 	mov	r17,r2
   24b60:	1829883a 	mov	r20,r3
   24b64:	04c00084 	movi	r19,2
   24b68:	003b3b06 	br	23858 <_dtoa_r+0x43c>
   24b6c:	01c000f4 	movhi	r7,3
   24b70:	010000f4 	movhi	r4,3
   24b74:	39c1c304 	addi	r7,r7,1804
   24b78:	000d883a 	mov	r6,zero
   24b7c:	0140ba84 	movi	r5,746
   24b80:	2101c804 	addi	r4,r4,1824
   24b84:	00298640 	call	29864 <__assert_func>
   24b88:	01c000f4 	movhi	r7,3
   24b8c:	010000f4 	movhi	r4,3
   24b90:	39c1c304 	addi	r7,r7,1804
   24b94:	000d883a 	mov	r6,zero
   24b98:	01406a84 	movi	r5,426
   24b9c:	2101c804 	addi	r4,r4,1824
   24ba0:	00298640 	call	29864 <__assert_func>
   24ba4:	e701bf04 	addi	fp,fp,1788
   24ba8:	003a4d06 	br	234e0 <_dtoa_r+0xc4>
   24bac:	80001115 	stw	zero,68(r16)
   24bb0:	000b883a 	mov	r5,zero
   24bb4:	8009883a 	mov	r4,r16
   24bb8:	0026a6c0 	call	26a6c <_Balloc>
   24bbc:	1039883a 	mov	fp,r2
   24bc0:	103ff126 	beq	r2,zero,24b88 <_dtoa_r+0x176c>
   24bc4:	80801015 	stw	r2,64(r16)
   24bc8:	00bfffc4 	movi	r2,-1
   24bcc:	d8800a15 	stw	r2,40(sp)
   24bd0:	00800044 	movi	r2,1
   24bd4:	04bfffc4 	movi	r18,-1
   24bd8:	d8800715 	stw	r2,28(sp)
   24bdc:	d8001f15 	stw	zero,124(sp)
   24be0:	003c0806 	br	23c04 <_dtoa_r+0x7e8>
   24be4:	80001115 	stw	zero,68(r16)
   24be8:	000b883a 	mov	r5,zero
   24bec:	003ad506 	br	23744 <_dtoa_r+0x328>
   24bf0:	a005883a 	mov	r2,r20
   24bf4:	e029883a 	mov	r20,fp
   24bf8:	df000817 	ldw	fp,32(sp)
   24bfc:	00bdcd0e 	bge	zero,r2,24334 <_dtoa_r+0xf18>
   24c00:	003dc006 	br	24304 <_dtoa_r+0xee8>

00024c04 <__sflush_r>:
   24c04:	2880030b 	ldhu	r2,12(r5)
   24c08:	defffb04 	addi	sp,sp,-20
   24c0c:	dcc00315 	stw	r19,12(sp)
   24c10:	dc000015 	stw	r16,0(sp)
   24c14:	dfc00415 	stw	ra,16(sp)
   24c18:	dc800215 	stw	r18,8(sp)
   24c1c:	dc400115 	stw	r17,4(sp)
   24c20:	10c0020c 	andi	r3,r2,8
   24c24:	2821883a 	mov	r16,r5
   24c28:	2027883a 	mov	r19,r4
   24c2c:	18003c1e 	bne	r3,zero,24d20 <__sflush_r+0x11c>
   24c30:	29000117 	ldw	r4,4(r5)
   24c34:	10c20014 	ori	r3,r2,2048
   24c38:	28c0030d 	sth	r3,12(r5)
   24c3c:	0100580e 	bge	zero,r4,24da0 <__sflush_r+0x19c>
   24c40:	82000a17 	ldw	r8,40(r16)
   24c44:	40003426 	beq	r8,zero,24d18 <__sflush_r+0x114>
   24c48:	9c400017 	ldw	r17,0(r19)
   24c4c:	1084000c 	andi	r2,r2,4096
   24c50:	98000015 	stw	zero,0(r19)
   24c54:	81400717 	ldw	r5,28(r16)
   24c58:	1000561e 	bne	r2,zero,24db4 <__sflush_r+0x1b0>
   24c5c:	000d883a 	mov	r6,zero
   24c60:	01c00044 	movi	r7,1
   24c64:	9809883a 	mov	r4,r19
   24c68:	403ee83a 	callr	r8
   24c6c:	100d883a 	mov	r6,r2
   24c70:	10bfffd8 	cmpnei	r2,r2,-1
   24c74:	10005b26 	beq	r2,zero,24de4 <__sflush_r+0x1e0>
   24c78:	80c0030b 	ldhu	r3,12(r16)
   24c7c:	82000a17 	ldw	r8,40(r16)
   24c80:	18c0010c 	andi	r3,r3,4
   24c84:	18000626 	beq	r3,zero,24ca0 <__sflush_r+0x9c>
   24c88:	80c00117 	ldw	r3,4(r16)
   24c8c:	80800c17 	ldw	r2,48(r16)
   24c90:	30cdc83a 	sub	r6,r6,r3
   24c94:	10000226 	beq	r2,zero,24ca0 <__sflush_r+0x9c>
   24c98:	80800f17 	ldw	r2,60(r16)
   24c9c:	308dc83a 	sub	r6,r6,r2
   24ca0:	81400717 	ldw	r5,28(r16)
   24ca4:	000f883a 	mov	r7,zero
   24ca8:	9809883a 	mov	r4,r19
   24cac:	403ee83a 	callr	r8
   24cb0:	10ffffd8 	cmpnei	r3,r2,-1
   24cb4:	1800411e 	bne	r3,zero,24dbc <__sflush_r+0x1b8>
   24cb8:	99400017 	ldw	r5,0(r19)
   24cbc:	28c007b0 	cmpltui	r3,r5,30
   24cc0:	18002c26 	beq	r3,zero,24d74 <__sflush_r+0x170>
   24cc4:	00f7f034 	movhi	r3,57280
   24cc8:	18ffff84 	addi	r3,r3,-2
   24ccc:	1949d83a 	sra	r4,r3,r5
   24cd0:	80c0030b 	ldhu	r3,12(r16)
   24cd4:	2100004c 	andi	r4,r4,1
   24cd8:	2000271e 	bne	r4,zero,24d78 <__sflush_r+0x174>
   24cdc:	81000417 	ldw	r4,16(r16)
   24ce0:	19bdffcc 	andi	r6,r3,63487
   24ce4:	8180030d 	sth	r6,12(r16)
   24ce8:	80000115 	stw	zero,4(r16)
   24cec:	81000015 	stw	r4,0(r16)
   24cf0:	18c4000c 	andi	r3,r3,4096
   24cf4:	1800431e 	bne	r3,zero,24e04 <__sflush_r+0x200>
   24cf8:	81400c17 	ldw	r5,48(r16)
   24cfc:	9c400015 	stw	r17,0(r19)
   24d00:	28000526 	beq	r5,zero,24d18 <__sflush_r+0x114>
   24d04:	80801004 	addi	r2,r16,64
   24d08:	28800226 	beq	r5,r2,24d14 <__sflush_r+0x110>
   24d0c:	9809883a 	mov	r4,r19
   24d10:	00253900 	call	25390 <_free_r>
   24d14:	80000c15 	stw	zero,48(r16)
   24d18:	0005883a 	mov	r2,zero
   24d1c:	00001906 	br	24d84 <__sflush_r+0x180>
   24d20:	2c800417 	ldw	r18,16(r5)
   24d24:	903ffc26 	beq	r18,zero,24d18 <__sflush_r+0x114>
   24d28:	2c400017 	ldw	r17,0(r5)
   24d2c:	108000cc 	andi	r2,r2,3
   24d30:	2c800015 	stw	r18,0(r5)
   24d34:	8ca3c83a 	sub	r17,r17,r18
   24d38:	10001c1e 	bne	r2,zero,24dac <__sflush_r+0x1a8>
   24d3c:	28800517 	ldw	r2,20(r5)
   24d40:	80800215 	stw	r2,8(r16)
   24d44:	04400316 	blt	zero,r17,24d54 <__sflush_r+0x150>
   24d48:	003ff306 	br	24d18 <__sflush_r+0x114>
   24d4c:	90a5883a 	add	r18,r18,r2
   24d50:	047ff10e 	bge	zero,r17,24d18 <__sflush_r+0x114>
   24d54:	80800917 	ldw	r2,36(r16)
   24d58:	81400717 	ldw	r5,28(r16)
   24d5c:	880f883a 	mov	r7,r17
   24d60:	900d883a 	mov	r6,r18
   24d64:	9809883a 	mov	r4,r19
   24d68:	103ee83a 	callr	r2
   24d6c:	88a3c83a 	sub	r17,r17,r2
   24d70:	00bff616 	blt	zero,r2,24d4c <__sflush_r+0x148>
   24d74:	80c0030b 	ldhu	r3,12(r16)
   24d78:	18c01014 	ori	r3,r3,64
   24d7c:	80c0030d 	sth	r3,12(r16)
   24d80:	00bfffc4 	movi	r2,-1
   24d84:	dfc00417 	ldw	ra,16(sp)
   24d88:	dcc00317 	ldw	r19,12(sp)
   24d8c:	dc800217 	ldw	r18,8(sp)
   24d90:	dc400117 	ldw	r17,4(sp)
   24d94:	dc000017 	ldw	r16,0(sp)
   24d98:	dec00504 	addi	sp,sp,20
   24d9c:	f800283a 	ret
   24da0:	29000f17 	ldw	r4,60(r5)
   24da4:	013fa616 	blt	zero,r4,24c40 <__sflush_r+0x3c>
   24da8:	003fdb06 	br	24d18 <__sflush_r+0x114>
   24dac:	0005883a 	mov	r2,zero
   24db0:	003fe306 	br	24d40 <__sflush_r+0x13c>
   24db4:	81801417 	ldw	r6,80(r16)
   24db8:	003fb106 	br	24c80 <__sflush_r+0x7c>
   24dbc:	80c0030b 	ldhu	r3,12(r16)
   24dc0:	81000417 	ldw	r4,16(r16)
   24dc4:	80000115 	stw	zero,4(r16)
   24dc8:	197dffcc 	andi	r5,r3,63487
   24dcc:	8140030d 	sth	r5,12(r16)
   24dd0:	81000015 	stw	r4,0(r16)
   24dd4:	18c4000c 	andi	r3,r3,4096
   24dd8:	183fc726 	beq	r3,zero,24cf8 <__sflush_r+0xf4>
   24ddc:	80801415 	stw	r2,80(r16)
   24de0:	003fc506 	br	24cf8 <__sflush_r+0xf4>
   24de4:	98800017 	ldw	r2,0(r19)
   24de8:	103fa326 	beq	r2,zero,24c78 <__sflush_r+0x74>
   24dec:	10c00760 	cmpeqi	r3,r2,29
   24df0:	1800021e 	bne	r3,zero,24dfc <__sflush_r+0x1f8>
   24df4:	10800598 	cmpnei	r2,r2,22
   24df8:	103fde1e 	bne	r2,zero,24d74 <__sflush_r+0x170>
   24dfc:	9c400015 	stw	r17,0(r19)
   24e00:	003fc506 	br	24d18 <__sflush_r+0x114>
   24e04:	283fbc1e 	bne	r5,zero,24cf8 <__sflush_r+0xf4>
   24e08:	003ff406 	br	24ddc <__sflush_r+0x1d8>

00024e0c <_fflush_r>:
   24e0c:	defffd04 	addi	sp,sp,-12
   24e10:	dc000115 	stw	r16,4(sp)
   24e14:	dfc00215 	stw	ra,8(sp)
   24e18:	2021883a 	mov	r16,r4
   24e1c:	20000226 	beq	r4,zero,24e28 <_fflush_r+0x1c>
   24e20:	20800e17 	ldw	r2,56(r4)
   24e24:	10000726 	beq	r2,zero,24e44 <_fflush_r+0x38>
   24e28:	2880030f 	ldh	r2,12(r5)
   24e2c:	10000a1e 	bne	r2,zero,24e58 <_fflush_r+0x4c>
   24e30:	0005883a 	mov	r2,zero
   24e34:	dfc00217 	ldw	ra,8(sp)
   24e38:	dc000117 	ldw	r16,4(sp)
   24e3c:	dec00304 	addi	sp,sp,12
   24e40:	f800283a 	ret
   24e44:	d9400015 	stw	r5,0(sp)
   24e48:	00252240 	call	25224 <__sinit>
   24e4c:	d9400017 	ldw	r5,0(sp)
   24e50:	2880030f 	ldh	r2,12(r5)
   24e54:	103ff626 	beq	r2,zero,24e30 <_fflush_r+0x24>
   24e58:	8009883a 	mov	r4,r16
   24e5c:	dfc00217 	ldw	ra,8(sp)
   24e60:	dc000117 	ldw	r16,4(sp)
   24e64:	dec00304 	addi	sp,sp,12
   24e68:	0024c041 	jmpi	24c04 <__sflush_r>

00024e6c <fflush>:
   24e6c:	20001726 	beq	r4,zero,24ecc <fflush+0x60>
   24e70:	008000f4 	movhi	r2,3
   24e74:	200b883a 	mov	r5,r4
   24e78:	110a4217 	ldw	r4,10504(r2)
   24e7c:	20000226 	beq	r4,zero,24e88 <fflush+0x1c>
   24e80:	20800e17 	ldw	r2,56(r4)
   24e84:	10000526 	beq	r2,zero,24e9c <fflush+0x30>
   24e88:	2880030f 	ldh	r2,12(r5)
   24e8c:	1000021e 	bne	r2,zero,24e98 <fflush+0x2c>
   24e90:	0005883a 	mov	r2,zero
   24e94:	f800283a 	ret
   24e98:	0024c041 	jmpi	24c04 <__sflush_r>
   24e9c:	defffd04 	addi	sp,sp,-12
   24ea0:	d9400115 	stw	r5,4(sp)
   24ea4:	d9000015 	stw	r4,0(sp)
   24ea8:	dfc00215 	stw	ra,8(sp)
   24eac:	00252240 	call	25224 <__sinit>
   24eb0:	d9400117 	ldw	r5,4(sp)
   24eb4:	d9000017 	ldw	r4,0(sp)
   24eb8:	2880030f 	ldh	r2,12(r5)
   24ebc:	10000826 	beq	r2,zero,24ee0 <fflush+0x74>
   24ec0:	dfc00217 	ldw	ra,8(sp)
   24ec4:	dec00304 	addi	sp,sp,12
   24ec8:	0024c041 	jmpi	24c04 <__sflush_r>
   24ecc:	008000f4 	movhi	r2,3
   24ed0:	110a4117 	ldw	r4,10500(r2)
   24ed4:	014000b4 	movhi	r5,2
   24ed8:	29538304 	addi	r5,r5,19980
   24edc:	0025bd41 	jmpi	25bd4 <_fwalk_reent>
   24ee0:	0005883a 	mov	r2,zero
   24ee4:	dfc00217 	ldw	ra,8(sp)
   24ee8:	dec00304 	addi	sp,sp,12
   24eec:	f800283a 	ret

00024ef0 <__fp_lock>:
   24ef0:	0005883a 	mov	r2,zero
   24ef4:	f800283a 	ret

00024ef8 <_cleanup_r>:
   24ef8:	014000f4 	movhi	r5,3
   24efc:	29668b04 	addi	r5,r5,-26068
   24f00:	0025bd41 	jmpi	25bd4 <_fwalk_reent>

00024f04 <__fp_unlock>:
   24f04:	0005883a 	mov	r2,zero
   24f08:	f800283a 	ret

00024f0c <__sinit.part.0>:
   24f0c:	00c000b4 	movhi	r3,2
   24f10:	20800117 	ldw	r2,4(r4)
   24f14:	18d3be04 	addi	r3,r3,20216
   24f18:	20c00f15 	stw	r3,60(r4)
   24f1c:	2140bb04 	addi	r5,r4,748
   24f20:	00c000c4 	movi	r3,3
   24f24:	20c0b915 	stw	r3,740(r4)
   24f28:	2140ba15 	stw	r5,744(r4)
   24f2c:	2000b815 	stw	zero,736(r4)
   24f30:	10001705 	stb	zero,92(r2)
   24f34:	10001745 	stb	zero,93(r2)
   24f38:	10001785 	stb	zero,94(r2)
   24f3c:	100017c5 	stb	zero,95(r2)
   24f40:	10001805 	stb	zero,96(r2)
   24f44:	10001845 	stb	zero,97(r2)
   24f48:	10001885 	stb	zero,98(r2)
   24f4c:	100018c5 	stb	zero,99(r2)
   24f50:	00c00104 	movi	r3,4
   24f54:	10c00315 	stw	r3,12(r2)
   24f58:	020000f4 	movhi	r8,3
   24f5c:	20c00217 	ldw	r3,8(r4)
   24f60:	01c000f4 	movhi	r7,3
   24f64:	018000f4 	movhi	r6,3
   24f68:	014000f4 	movhi	r5,3
   24f6c:	42208304 	addi	r8,r8,-32244
   24f70:	39e09a04 	addi	r7,r7,-32152
   24f74:	31a0ba04 	addi	r6,r6,-32024
   24f78:	2960d104 	addi	r5,r5,-31932
   24f7c:	02400074 	movhi	r9,1
   24f80:	10000015 	stw	zero,0(r2)
   24f84:	10000115 	stw	zero,4(r2)
   24f88:	10000215 	stw	zero,8(r2)
   24f8c:	10001915 	stw	zero,100(r2)
   24f90:	10000415 	stw	zero,16(r2)
   24f94:	10000515 	stw	zero,20(r2)
   24f98:	10000615 	stw	zero,24(r2)
   24f9c:	10800715 	stw	r2,28(r2)
   24fa0:	12000815 	stw	r8,32(r2)
   24fa4:	11c00915 	stw	r7,36(r2)
   24fa8:	11800a15 	stw	r6,40(r2)
   24fac:	11400b15 	stw	r5,44(r2)
   24fb0:	4a400284 	addi	r9,r9,10
   24fb4:	1a400315 	stw	r9,12(r3)
   24fb8:	18000015 	stw	zero,0(r3)
   24fbc:	18000115 	stw	zero,4(r3)
   24fc0:	18000215 	stw	zero,8(r3)
   24fc4:	18001915 	stw	zero,100(r3)
   24fc8:	18000415 	stw	zero,16(r3)
   24fcc:	18001705 	stb	zero,92(r3)
   24fd0:	18001745 	stb	zero,93(r3)
   24fd4:	18001785 	stb	zero,94(r3)
   24fd8:	180017c5 	stb	zero,95(r3)
   24fdc:	18001805 	stb	zero,96(r3)
   24fe0:	18001845 	stb	zero,97(r3)
   24fe4:	18001885 	stb	zero,98(r3)
   24fe8:	180018c5 	stb	zero,99(r3)
   24fec:	20800317 	ldw	r2,12(r4)
   24ff0:	024000b4 	movhi	r9,2
   24ff4:	18000515 	stw	zero,20(r3)
   24ff8:	18000615 	stw	zero,24(r3)
   24ffc:	18c00715 	stw	r3,28(r3)
   25000:	1a000815 	stw	r8,32(r3)
   25004:	19c00915 	stw	r7,36(r3)
   25008:	19800a15 	stw	r6,40(r3)
   2500c:	19400b15 	stw	r5,44(r3)
   25010:	4a400484 	addi	r9,r9,18
   25014:	10000015 	stw	zero,0(r2)
   25018:	10000115 	stw	zero,4(r2)
   2501c:	10000215 	stw	zero,8(r2)
   25020:	10001915 	stw	zero,100(r2)
   25024:	12400315 	stw	r9,12(r2)
   25028:	10000415 	stw	zero,16(r2)
   2502c:	10000515 	stw	zero,20(r2)
   25030:	10000615 	stw	zero,24(r2)
   25034:	10001705 	stb	zero,92(r2)
   25038:	10001745 	stb	zero,93(r2)
   2503c:	10001785 	stb	zero,94(r2)
   25040:	100017c5 	stb	zero,95(r2)
   25044:	10001805 	stb	zero,96(r2)
   25048:	10001845 	stb	zero,97(r2)
   2504c:	10001885 	stb	zero,98(r2)
   25050:	100018c5 	stb	zero,99(r2)
   25054:	10800715 	stw	r2,28(r2)
   25058:	12000815 	stw	r8,32(r2)
   2505c:	11c00915 	stw	r7,36(r2)
   25060:	11800a15 	stw	r6,40(r2)
   25064:	11400b15 	stw	r5,44(r2)
   25068:	00800044 	movi	r2,1
   2506c:	20800e15 	stw	r2,56(r4)
   25070:	f800283a 	ret

00025074 <__sfmoreglue>:
   25074:	defffc04 	addi	sp,sp,-16
   25078:	dc400115 	stw	r17,4(sp)
   2507c:	2c7fffc4 	addi	r17,r5,-1
   25080:	8c401a24 	muli	r17,r17,104
   25084:	dc800215 	stw	r18,8(sp)
   25088:	2825883a 	mov	r18,r5
   2508c:	89401d04 	addi	r5,r17,116
   25090:	dc000015 	stw	r16,0(sp)
   25094:	dfc00315 	stw	ra,12(sp)
   25098:	0025ec80 	call	25ec8 <_malloc_r>
   2509c:	1021883a 	mov	r16,r2
   250a0:	10000726 	beq	r2,zero,250c0 <__sfmoreglue+0x4c>
   250a4:	11000304 	addi	r4,r2,12
   250a8:	10000015 	stw	zero,0(r2)
   250ac:	14800115 	stw	r18,4(r2)
   250b0:	11000215 	stw	r4,8(r2)
   250b4:	89801a04 	addi	r6,r17,104
   250b8:	000b883a 	mov	r5,zero
   250bc:	00269740 	call	26974 <memset>
   250c0:	8005883a 	mov	r2,r16
   250c4:	dfc00317 	ldw	ra,12(sp)
   250c8:	dc800217 	ldw	r18,8(sp)
   250cc:	dc400117 	ldw	r17,4(sp)
   250d0:	dc000017 	ldw	r16,0(sp)
   250d4:	dec00404 	addi	sp,sp,16
   250d8:	f800283a 	ret

000250dc <__sfp>:
   250dc:	defffc04 	addi	sp,sp,-16
   250e0:	008000f4 	movhi	r2,3
   250e4:	dc400115 	stw	r17,4(sp)
   250e8:	144a4117 	ldw	r17,10500(r2)
   250ec:	dc800215 	stw	r18,8(sp)
   250f0:	dfc00315 	stw	ra,12(sp)
   250f4:	88800e17 	ldw	r2,56(r17)
   250f8:	dc000015 	stw	r16,0(sp)
   250fc:	2025883a 	mov	r18,r4
   25100:	10002d26 	beq	r2,zero,251b8 <__sfp+0xdc>
   25104:	8c40b804 	addi	r17,r17,736
   25108:	88800117 	ldw	r2,4(r17)
   2510c:	8c000217 	ldw	r16,8(r17)
   25110:	10bfffc4 	addi	r2,r2,-1
   25114:	1000030e 	bge	r2,zero,25124 <__sfp+0x48>
   25118:	00002306 	br	251a8 <__sfp+0xcc>
   2511c:	84001a04 	addi	r16,r16,104
   25120:	28002126 	beq	r5,zero,251a8 <__sfp+0xcc>
   25124:	80c0030f 	ldh	r3,12(r16)
   25128:	10bfffc4 	addi	r2,r2,-1
   2512c:	117fffd8 	cmpnei	r5,r2,-1
   25130:	183ffa1e 	bne	r3,zero,2511c <__sfp+0x40>
   25134:	00bffff4 	movhi	r2,65535
   25138:	10800044 	addi	r2,r2,1
   2513c:	80800315 	stw	r2,12(r16)
   25140:	80001915 	stw	zero,100(r16)
   25144:	80000015 	stw	zero,0(r16)
   25148:	80000215 	stw	zero,8(r16)
   2514c:	80000115 	stw	zero,4(r16)
   25150:	80000415 	stw	zero,16(r16)
   25154:	80000515 	stw	zero,20(r16)
   25158:	80000615 	stw	zero,24(r16)
   2515c:	80001705 	stb	zero,92(r16)
   25160:	80001745 	stb	zero,93(r16)
   25164:	80001785 	stb	zero,94(r16)
   25168:	800017c5 	stb	zero,95(r16)
   2516c:	80001805 	stb	zero,96(r16)
   25170:	80001845 	stb	zero,97(r16)
   25174:	80001885 	stb	zero,98(r16)
   25178:	800018c5 	stb	zero,99(r16)
   2517c:	80000c15 	stw	zero,48(r16)
   25180:	80000d15 	stw	zero,52(r16)
   25184:	80001115 	stw	zero,68(r16)
   25188:	80001215 	stw	zero,72(r16)
   2518c:	8005883a 	mov	r2,r16
   25190:	dfc00317 	ldw	ra,12(sp)
   25194:	dc800217 	ldw	r18,8(sp)
   25198:	dc400117 	ldw	r17,4(sp)
   2519c:	dc000017 	ldw	r16,0(sp)
   251a0:	dec00404 	addi	sp,sp,16
   251a4:	f800283a 	ret
   251a8:	8c000017 	ldw	r16,0(r17)
   251ac:	80000526 	beq	r16,zero,251c4 <__sfp+0xe8>
   251b0:	8023883a 	mov	r17,r16
   251b4:	003fd406 	br	25108 <__sfp+0x2c>
   251b8:	8809883a 	mov	r4,r17
   251bc:	0024f0c0 	call	24f0c <__sinit.part.0>
   251c0:	003fd006 	br	25104 <__sfp+0x28>
   251c4:	01406b04 	movi	r5,428
   251c8:	9009883a 	mov	r4,r18
   251cc:	0025ec80 	call	25ec8 <_malloc_r>
   251d0:	1021883a 	mov	r16,r2
   251d4:	10000a26 	beq	r2,zero,25200 <__sfp+0x124>
   251d8:	10000015 	stw	zero,0(r2)
   251dc:	11000304 	addi	r4,r2,12
   251e0:	00800104 	movi	r2,4
   251e4:	80800115 	stw	r2,4(r16)
   251e8:	81000215 	stw	r4,8(r16)
   251ec:	01806804 	movi	r6,416
   251f0:	000b883a 	mov	r5,zero
   251f4:	00269740 	call	26974 <memset>
   251f8:	8c000015 	stw	r16,0(r17)
   251fc:	003fec06 	br	251b0 <__sfp+0xd4>
   25200:	88000015 	stw	zero,0(r17)
   25204:	00800304 	movi	r2,12
   25208:	90800015 	stw	r2,0(r18)
   2520c:	003fdf06 	br	2518c <__sfp+0xb0>

00025210 <_cleanup>:
   25210:	008000f4 	movhi	r2,3
   25214:	110a4117 	ldw	r4,10500(r2)
   25218:	014000f4 	movhi	r5,3
   2521c:	29668b04 	addi	r5,r5,-26068
   25220:	0025bd41 	jmpi	25bd4 <_fwalk_reent>

00025224 <__sinit>:
   25224:	20800e17 	ldw	r2,56(r4)
   25228:	10000126 	beq	r2,zero,25230 <__sinit+0xc>
   2522c:	f800283a 	ret
   25230:	0024f0c1 	jmpi	24f0c <__sinit.part.0>

00025234 <__sfp_lock_acquire>:
   25234:	f800283a 	ret

00025238 <__sfp_lock_release>:
   25238:	f800283a 	ret

0002523c <__sinit_lock_acquire>:
   2523c:	f800283a 	ret

00025240 <__sinit_lock_release>:
   25240:	f800283a 	ret

00025244 <__fp_lock_all>:
   25244:	008000f4 	movhi	r2,3
   25248:	110a4217 	ldw	r4,10504(r2)
   2524c:	014000b4 	movhi	r5,2
   25250:	2953bc04 	addi	r5,r5,20208
   25254:	0025b3c1 	jmpi	25b3c <_fwalk>

00025258 <__fp_unlock_all>:
   25258:	008000f4 	movhi	r2,3
   2525c:	110a4217 	ldw	r4,10504(r2)
   25260:	014000b4 	movhi	r5,2
   25264:	2953c104 	addi	r5,r5,20228
   25268:	0025b3c1 	jmpi	25b3c <_fwalk>

0002526c <_malloc_trim_r>:
   2526c:	defffa04 	addi	sp,sp,-24
   25270:	dcc00315 	stw	r19,12(sp)
   25274:	04c000f4 	movhi	r19,3
   25278:	dd000415 	stw	r20,16(sp)
   2527c:	dc800215 	stw	r18,8(sp)
   25280:	dc400115 	stw	r17,4(sp)
   25284:	dc000015 	stw	r16,0(sp)
   25288:	2829883a 	mov	r20,r5
   2528c:	dfc00515 	stw	ra,20(sp)
   25290:	9cc44c04 	addi	r19,r19,4400
   25294:	2025883a 	mov	r18,r4
   25298:	002e0f00 	call	2e0f0 <__malloc_lock>
   2529c:	98800217 	ldw	r2,8(r19)
   252a0:	14400117 	ldw	r17,4(r2)
   252a4:	00bfff04 	movi	r2,-4
   252a8:	88a2703a 	and	r17,r17,r2
   252ac:	8c03fbc4 	addi	r16,r17,4079
   252b0:	8521c83a 	sub	r16,r16,r20
   252b4:	8020d33a 	srli	r16,r16,12
   252b8:	843fffc4 	addi	r16,r16,-1
   252bc:	8020933a 	slli	r16,r16,12
   252c0:	80840008 	cmpgei	r2,r16,4096
   252c4:	10000626 	beq	r2,zero,252e0 <_malloc_trim_r+0x74>
   252c8:	000b883a 	mov	r5,zero
   252cc:	9009883a 	mov	r4,r18
   252d0:	00281b40 	call	281b4 <_sbrk_r>
   252d4:	98c00217 	ldw	r3,8(r19)
   252d8:	1c47883a 	add	r3,r3,r17
   252dc:	10c00b26 	beq	r2,r3,2530c <_malloc_trim_r+0xa0>
   252e0:	9009883a 	mov	r4,r18
   252e4:	002e1140 	call	2e114 <__malloc_unlock>
   252e8:	0005883a 	mov	r2,zero
   252ec:	dfc00517 	ldw	ra,20(sp)
   252f0:	dd000417 	ldw	r20,16(sp)
   252f4:	dcc00317 	ldw	r19,12(sp)
   252f8:	dc800217 	ldw	r18,8(sp)
   252fc:	dc400117 	ldw	r17,4(sp)
   25300:	dc000017 	ldw	r16,0(sp)
   25304:	dec00604 	addi	sp,sp,24
   25308:	f800283a 	ret
   2530c:	040bc83a 	sub	r5,zero,r16
   25310:	9009883a 	mov	r4,r18
   25314:	00281b40 	call	281b4 <_sbrk_r>
   25318:	10bfffd8 	cmpnei	r2,r2,-1
   2531c:	10000d26 	beq	r2,zero,25354 <_malloc_trim_r+0xe8>
   25320:	008000f4 	movhi	r2,3
   25324:	10916c17 	ldw	r2,17840(r2)
   25328:	98c00217 	ldw	r3,8(r19)
   2532c:	8c23c83a 	sub	r17,r17,r16
   25330:	8c400054 	ori	r17,r17,1
   25334:	1405c83a 	sub	r2,r2,r16
   25338:	1c400115 	stw	r17,4(r3)
   2533c:	9009883a 	mov	r4,r18
   25340:	00c000f4 	movhi	r3,3
   25344:	18916c15 	stw	r2,17840(r3)
   25348:	002e1140 	call	2e114 <__malloc_unlock>
   2534c:	00800044 	movi	r2,1
   25350:	003fe606 	br	252ec <_malloc_trim_r+0x80>
   25354:	000b883a 	mov	r5,zero
   25358:	9009883a 	mov	r4,r18
   2535c:	00281b40 	call	281b4 <_sbrk_r>
   25360:	99000217 	ldw	r4,8(r19)
   25364:	1107c83a 	sub	r3,r2,r4
   25368:	19400410 	cmplti	r5,r3,16
   2536c:	283fdc1e 	bne	r5,zero,252e0 <_malloc_trim_r+0x74>
   25370:	014000f4 	movhi	r5,3
   25374:	294a4317 	ldw	r5,10508(r5)
   25378:	18c00054 	ori	r3,r3,1
   2537c:	20c00115 	stw	r3,4(r4)
   25380:	1145c83a 	sub	r2,r2,r5
   25384:	014000f4 	movhi	r5,3
   25388:	28916c15 	stw	r2,17840(r5)
   2538c:	003fd406 	br	252e0 <_malloc_trim_r+0x74>

00025390 <_free_r>:
   25390:	28005f26 	beq	r5,zero,25510 <_free_r+0x180>
   25394:	defffd04 	addi	sp,sp,-12
   25398:	dc400115 	stw	r17,4(sp)
   2539c:	dc000015 	stw	r16,0(sp)
   253a0:	2023883a 	mov	r17,r4
   253a4:	2821883a 	mov	r16,r5
   253a8:	dfc00215 	stw	ra,8(sp)
   253ac:	002e0f00 	call	2e0f0 <__malloc_lock>
   253b0:	81ffff17 	ldw	r7,-4(r16)
   253b4:	00bfff84 	movi	r2,-2
   253b8:	80fffe04 	addi	r3,r16,-8
   253bc:	3884703a 	and	r2,r7,r2
   253c0:	018000f4 	movhi	r6,3
   253c4:	1889883a 	add	r4,r3,r2
   253c8:	31844c04 	addi	r6,r6,4400
   253cc:	21400117 	ldw	r5,4(r4)
   253d0:	32000217 	ldw	r8,8(r6)
   253d4:	027fff04 	movi	r9,-4
   253d8:	2a4a703a 	and	r5,r5,r9
   253dc:	41006526 	beq	r8,r4,25574 <_free_r+0x1e4>
   253e0:	21400115 	stw	r5,4(r4)
   253e4:	39c0004c 	andi	r7,r7,1
   253e8:	2151883a 	add	r8,r4,r5
   253ec:	3800281e 	bne	r7,zero,25490 <_free_r+0x100>
   253f0:	82bffe17 	ldw	r10,-8(r16)
   253f4:	42000117 	ldw	r8,4(r8)
   253f8:	01c000f4 	movhi	r7,3
   253fc:	1a87c83a 	sub	r3,r3,r10
   25400:	1a400217 	ldw	r9,8(r3)
   25404:	39c44e04 	addi	r7,r7,4408
   25408:	1285883a 	add	r2,r2,r10
   2540c:	4200004c 	andi	r8,r8,1
   25410:	49c04d26 	beq	r9,r7,25548 <_free_r+0x1b8>
   25414:	1a800317 	ldw	r10,12(r3)
   25418:	4a800315 	stw	r10,12(r9)
   2541c:	52400215 	stw	r9,8(r10)
   25420:	40006926 	beq	r8,zero,255c8 <_free_r+0x238>
   25424:	11400054 	ori	r5,r2,1
   25428:	19400115 	stw	r5,4(r3)
   2542c:	20800015 	stw	r2,0(r4)
   25430:	11008028 	cmpgeui	r4,r2,512
   25434:	20001e1e 	bne	r4,zero,254b0 <_free_r+0x120>
   25438:	1008d0fa 	srli	r4,r2,3
   2543c:	100ad17a 	srli	r5,r2,5
   25440:	31c00117 	ldw	r7,4(r6)
   25444:	20800044 	addi	r2,r4,1
   25448:	100490fa 	slli	r2,r2,3
   2544c:	01000044 	movi	r4,1
   25450:	2148983a 	sll	r4,r4,r5
   25454:	3085883a 	add	r2,r6,r2
   25458:	11400017 	ldw	r5,0(r2)
   2545c:	21c8b03a 	or	r4,r4,r7
   25460:	11fffe04 	addi	r7,r2,-8
   25464:	19c00315 	stw	r7,12(r3)
   25468:	19400215 	stw	r5,8(r3)
   2546c:	31000115 	stw	r4,4(r6)
   25470:	10c00015 	stw	r3,0(r2)
   25474:	28c00315 	stw	r3,12(r5)
   25478:	8809883a 	mov	r4,r17
   2547c:	dfc00217 	ldw	ra,8(sp)
   25480:	dc400117 	ldw	r17,4(sp)
   25484:	dc000017 	ldw	r16,0(sp)
   25488:	dec00304 	addi	sp,sp,12
   2548c:	002e1141 	jmpi	2e114 <__malloc_unlock>
   25490:	41c00117 	ldw	r7,4(r8)
   25494:	39c0004c 	andi	r7,r7,1
   25498:	38001e26 	beq	r7,zero,25514 <_free_r+0x184>
   2549c:	11400054 	ori	r5,r2,1
   254a0:	817fff15 	stw	r5,-4(r16)
   254a4:	20800015 	stw	r2,0(r4)
   254a8:	11008028 	cmpgeui	r4,r2,512
   254ac:	203fe226 	beq	r4,zero,25438 <_free_r+0xa8>
   254b0:	1008d27a 	srli	r4,r2,9
   254b4:	21400168 	cmpgeui	r5,r4,5
   254b8:	2800451e 	bne	r5,zero,255d0 <_free_r+0x240>
   254bc:	1008d1ba 	srli	r4,r2,6
   254c0:	21c00e44 	addi	r7,r4,57
   254c4:	380e90fa 	slli	r7,r7,3
   254c8:	21000e04 	addi	r4,r4,56
   254cc:	31cf883a 	add	r7,r6,r7
   254d0:	39400017 	ldw	r5,0(r7)
   254d4:	39fffe04 	addi	r7,r7,-8
   254d8:	39405326 	beq	r7,r5,25628 <_free_r+0x298>
   254dc:	01bfff04 	movi	r6,-4
   254e0:	00000206 	br	254ec <_free_r+0x15c>
   254e4:	29400217 	ldw	r5,8(r5)
   254e8:	39400326 	beq	r7,r5,254f8 <_free_r+0x168>
   254ec:	29000117 	ldw	r4,4(r5)
   254f0:	2188703a 	and	r4,r4,r6
   254f4:	113ffb36 	bltu	r2,r4,254e4 <_free_r+0x154>
   254f8:	29c00317 	ldw	r7,12(r5)
   254fc:	19c00315 	stw	r7,12(r3)
   25500:	19400215 	stw	r5,8(r3)
   25504:	38c00215 	stw	r3,8(r7)
   25508:	28c00315 	stw	r3,12(r5)
   2550c:	003fda06 	br	25478 <_free_r+0xe8>
   25510:	f800283a 	ret
   25514:	01c000f4 	movhi	r7,3
   25518:	1145883a 	add	r2,r2,r5
   2551c:	39c44e04 	addi	r7,r7,4408
   25520:	21400217 	ldw	r5,8(r4)
   25524:	29c03726 	beq	r5,r7,25604 <_free_r+0x274>
   25528:	22000317 	ldw	r8,12(r4)
   2552c:	11c00054 	ori	r7,r2,1
   25530:	1889883a 	add	r4,r3,r2
   25534:	2a000315 	stw	r8,12(r5)
   25538:	41400215 	stw	r5,8(r8)
   2553c:	19c00115 	stw	r7,4(r3)
   25540:	20800015 	stw	r2,0(r4)
   25544:	003fba06 	br	25430 <_free_r+0xa0>
   25548:	40004f1e 	bne	r8,zero,25688 <_free_r+0x2f8>
   2554c:	21800217 	ldw	r6,8(r4)
   25550:	21000317 	ldw	r4,12(r4)
   25554:	288b883a 	add	r5,r5,r2
   25558:	28800054 	ori	r2,r5,1
   2555c:	31000315 	stw	r4,12(r6)
   25560:	21800215 	stw	r6,8(r4)
   25564:	18800115 	stw	r2,4(r3)
   25568:	1947883a 	add	r3,r3,r5
   2556c:	19400015 	stw	r5,0(r3)
   25570:	003fc106 	br	25478 <_free_r+0xe8>
   25574:	39c0004c 	andi	r7,r7,1
   25578:	114b883a 	add	r5,r2,r5
   2557c:	3800071e 	bne	r7,zero,2559c <_free_r+0x20c>
   25580:	81fffe17 	ldw	r7,-8(r16)
   25584:	19c7c83a 	sub	r3,r3,r7
   25588:	18800317 	ldw	r2,12(r3)
   2558c:	19000217 	ldw	r4,8(r3)
   25590:	29cb883a 	add	r5,r5,r7
   25594:	20800315 	stw	r2,12(r4)
   25598:	11000215 	stw	r4,8(r2)
   2559c:	008000f4 	movhi	r2,3
   255a0:	29000054 	ori	r4,r5,1
   255a4:	108a4417 	ldw	r2,10512(r2)
   255a8:	19000115 	stw	r4,4(r3)
   255ac:	30c00215 	stw	r3,8(r6)
   255b0:	28bfb136 	bltu	r5,r2,25478 <_free_r+0xe8>
   255b4:	008000f4 	movhi	r2,3
   255b8:	11516117 	ldw	r5,17796(r2)
   255bc:	8809883a 	mov	r4,r17
   255c0:	002526c0 	call	2526c <_malloc_trim_r>
   255c4:	003fac06 	br	25478 <_free_r+0xe8>
   255c8:	1145883a 	add	r2,r2,r5
   255cc:	003fd406 	br	25520 <_free_r+0x190>
   255d0:	21400568 	cmpgeui	r5,r4,21
   255d4:	28000726 	beq	r5,zero,255f4 <_free_r+0x264>
   255d8:	21401568 	cmpgeui	r5,r4,85
   255dc:	2800191e 	bne	r5,zero,25644 <_free_r+0x2b4>
   255e0:	1008d33a 	srli	r4,r2,12
   255e4:	21c01bc4 	addi	r7,r4,111
   255e8:	380e90fa 	slli	r7,r7,3
   255ec:	21001b84 	addi	r4,r4,110
   255f0:	003fb606 	br	254cc <_free_r+0x13c>
   255f4:	21c01704 	addi	r7,r4,92
   255f8:	380e90fa 	slli	r7,r7,3
   255fc:	210016c4 	addi	r4,r4,91
   25600:	003fb206 	br	254cc <_free_r+0x13c>
   25604:	30c00515 	stw	r3,20(r6)
   25608:	30c00415 	stw	r3,16(r6)
   2560c:	11000054 	ori	r4,r2,1
   25610:	19c00315 	stw	r7,12(r3)
   25614:	19c00215 	stw	r7,8(r3)
   25618:	19000115 	stw	r4,4(r3)
   2561c:	1887883a 	add	r3,r3,r2
   25620:	18800015 	stw	r2,0(r3)
   25624:	003f9406 	br	25478 <_free_r+0xe8>
   25628:	2009d0ba 	srai	r4,r4,2
   2562c:	00800044 	movi	r2,1
   25630:	32000117 	ldw	r8,4(r6)
   25634:	1104983a 	sll	r2,r2,r4
   25638:	1204b03a 	or	r2,r2,r8
   2563c:	30800115 	stw	r2,4(r6)
   25640:	003fae06 	br	254fc <_free_r+0x16c>
   25644:	21405568 	cmpgeui	r5,r4,341
   25648:	2800051e 	bne	r5,zero,25660 <_free_r+0x2d0>
   2564c:	1008d3fa 	srli	r4,r2,15
   25650:	21c01e04 	addi	r7,r4,120
   25654:	380e90fa 	slli	r7,r7,3
   25658:	21001dc4 	addi	r4,r4,119
   2565c:	003f9b06 	br	254cc <_free_r+0x13c>
   25660:	21015568 	cmpgeui	r4,r4,1365
   25664:	2000051e 	bne	r4,zero,2567c <_free_r+0x2ec>
   25668:	1008d4ba 	srli	r4,r2,18
   2566c:	21c01f44 	addi	r7,r4,125
   25670:	380e90fa 	slli	r7,r7,3
   25674:	21001f04 	addi	r4,r4,124
   25678:	003f9406 	br	254cc <_free_r+0x13c>
   2567c:	01c0fe04 	movi	r7,1016
   25680:	01001f84 	movi	r4,126
   25684:	003f9106 	br	254cc <_free_r+0x13c>
   25688:	11400054 	ori	r5,r2,1
   2568c:	19400115 	stw	r5,4(r3)
   25690:	20800015 	stw	r2,0(r4)
   25694:	003f7806 	br	25478 <_free_r+0xe8>

00025698 <__sfvwrite_r>:
   25698:	30800217 	ldw	r2,8(r6)
   2569c:	1000c326 	beq	r2,zero,259ac <__sfvwrite_r+0x314>
   256a0:	2a80030b 	ldhu	r10,12(r5)
   256a4:	defff504 	addi	sp,sp,-44
   256a8:	df000915 	stw	fp,36(sp)
   256ac:	dcc00415 	stw	r19,16(sp)
   256b0:	dc000115 	stw	r16,4(sp)
   256b4:	dfc00a15 	stw	ra,40(sp)
   256b8:	ddc00815 	stw	r23,32(sp)
   256bc:	dd800715 	stw	r22,28(sp)
   256c0:	dd400615 	stw	r21,24(sp)
   256c4:	dd000515 	stw	r20,20(sp)
   256c8:	dc800315 	stw	r18,12(sp)
   256cc:	dc400215 	stw	r17,8(sp)
   256d0:	5080020c 	andi	r2,r10,8
   256d4:	3039883a 	mov	fp,r6
   256d8:	2027883a 	mov	r19,r4
   256dc:	2821883a 	mov	r16,r5
   256e0:	10002226 	beq	r2,zero,2576c <__sfvwrite_r+0xd4>
   256e4:	28800417 	ldw	r2,16(r5)
   256e8:	10002026 	beq	r2,zero,2576c <__sfvwrite_r+0xd4>
   256ec:	5080008c 	andi	r2,r10,2
   256f0:	e4400017 	ldw	r17,0(fp)
   256f4:	10002526 	beq	r2,zero,2578c <__sfvwrite_r+0xf4>
   256f8:	80800917 	ldw	r2,36(r16)
   256fc:	81400717 	ldw	r5,28(r16)
   25700:	05600034 	movhi	r21,32768
   25704:	0029883a 	mov	r20,zero
   25708:	0025883a 	mov	r18,zero
   2570c:	ad7f0004 	addi	r21,r21,-1024
   25710:	a00d883a 	mov	r6,r20
   25714:	9809883a 	mov	r4,r19
   25718:	90001026 	beq	r18,zero,2575c <__sfvwrite_r+0xc4>
   2571c:	900f883a 	mov	r7,r18
   25720:	ac80012e 	bgeu	r21,r18,25728 <__sfvwrite_r+0x90>
   25724:	a80f883a 	mov	r7,r21
   25728:	103ee83a 	callr	r2
   2572c:	00809a0e 	bge	zero,r2,25998 <__sfvwrite_r+0x300>
   25730:	e0c00217 	ldw	r3,8(fp)
   25734:	a0a9883a 	add	r20,r20,r2
   25738:	90a5c83a 	sub	r18,r18,r2
   2573c:	1885c83a 	sub	r2,r3,r2
   25740:	e0800215 	stw	r2,8(fp)
   25744:	10008326 	beq	r2,zero,25954 <__sfvwrite_r+0x2bc>
   25748:	80800917 	ldw	r2,36(r16)
   2574c:	81400717 	ldw	r5,28(r16)
   25750:	a00d883a 	mov	r6,r20
   25754:	9809883a 	mov	r4,r19
   25758:	903ff01e 	bne	r18,zero,2571c <__sfvwrite_r+0x84>
   2575c:	8d000017 	ldw	r20,0(r17)
   25760:	8c800117 	ldw	r18,4(r17)
   25764:	8c400204 	addi	r17,r17,8
   25768:	003fe906 	br	25710 <__sfvwrite_r+0x78>
   2576c:	800b883a 	mov	r5,r16
   25770:	9809883a 	mov	r4,r19
   25774:	00230d40 	call	230d4 <__swsetup_r>
   25778:	10008a1e 	bne	r2,zero,259a4 <__sfvwrite_r+0x30c>
   2577c:	8280030b 	ldhu	r10,12(r16)
   25780:	e4400017 	ldw	r17,0(fp)
   25784:	5080008c 	andi	r2,r10,2
   25788:	103fdb1e 	bne	r2,zero,256f8 <__sfvwrite_r+0x60>
   2578c:	5080004c 	andi	r2,r10,1
   25790:	10004e1e 	bne	r2,zero,258cc <__sfvwrite_r+0x234>
   25794:	00a00034 	movhi	r2,32768
   25798:	81c00017 	ldw	r7,0(r16)
   2579c:	80c00217 	ldw	r3,8(r16)
   257a0:	10bfffc4 	addi	r2,r2,-1
   257a4:	002d883a 	mov	r22,zero
   257a8:	0025883a 	mov	r18,zero
   257ac:	d8800015 	stw	r2,0(sp)
   257b0:	3809883a 	mov	r4,r7
   257b4:	1829883a 	mov	r20,r3
   257b8:	90004026 	beq	r18,zero,258bc <__sfvwrite_r+0x224>
   257bc:	5080800c 	andi	r2,r10,512
   257c0:	10009426 	beq	r2,zero,25a14 <__sfvwrite_r+0x37c>
   257c4:	182b883a 	mov	r21,r3
   257c8:	90c0b936 	bltu	r18,r3,25ab0 <__sfvwrite_r+0x418>
   257cc:	5081200c 	andi	r2,r10,1152
   257d0:	10002426 	beq	r2,zero,25864 <__sfvwrite_r+0x1cc>
   257d4:	80800517 	ldw	r2,20(r16)
   257d8:	81000417 	ldw	r4,16(r16)
   257dc:	108000e4 	muli	r2,r2,3
   257e0:	392fc83a 	sub	r23,r7,r4
   257e4:	b8c00044 	addi	r3,r23,1
   257e8:	1012d7fa 	srli	r9,r2,31
   257ec:	1c87883a 	add	r3,r3,r18
   257f0:	4893883a 	add	r9,r9,r2
   257f4:	4829d07a 	srai	r20,r9,1
   257f8:	a00b883a 	mov	r5,r20
   257fc:	a0c0022e 	bgeu	r20,r3,25808 <__sfvwrite_r+0x170>
   25800:	1829883a 	mov	r20,r3
   25804:	180b883a 	mov	r5,r3
   25808:	5281000c 	andi	r10,r10,1024
   2580c:	5000b926 	beq	r10,zero,25af4 <__sfvwrite_r+0x45c>
   25810:	9809883a 	mov	r4,r19
   25814:	0025ec80 	call	25ec8 <_malloc_r>
   25818:	1000c426 	beq	r2,zero,25b2c <__sfvwrite_r+0x494>
   2581c:	81400417 	ldw	r5,16(r16)
   25820:	1009883a 	mov	r4,r2
   25824:	b80d883a 	mov	r6,r23
   25828:	002674c0 	call	2674c <memcpy>
   2582c:	1007883a 	mov	r3,r2
   25830:	8080030b 	ldhu	r2,12(r16)
   25834:	013edfc4 	movi	r4,-1153
   25838:	1104703a 	and	r2,r2,r4
   2583c:	10802014 	ori	r2,r2,128
   25840:	8080030d 	sth	r2,12(r16)
   25844:	a5cfc83a 	sub	r7,r20,r23
   25848:	1dc9883a 	add	r4,r3,r23
   2584c:	85000515 	stw	r20,20(r16)
   25850:	80c00415 	stw	r3,16(r16)
   25854:	81000015 	stw	r4,0(r16)
   25858:	9029883a 	mov	r20,r18
   2585c:	81c00215 	stw	r7,8(r16)
   25860:	902b883a 	mov	r21,r18
   25864:	a80d883a 	mov	r6,r21
   25868:	b00b883a 	mov	r5,r22
   2586c:	002684c0 	call	2684c <memmove>
   25870:	80c00217 	ldw	r3,8(r16)
   25874:	81c00017 	ldw	r7,0(r16)
   25878:	902f883a 	mov	r23,r18
   2587c:	1d07c83a 	sub	r3,r3,r20
   25880:	3d4d883a 	add	r6,r7,r21
   25884:	80c00215 	stw	r3,8(r16)
   25888:	81800015 	stw	r6,0(r16)
   2588c:	0025883a 	mov	r18,zero
   25890:	e0800217 	ldw	r2,8(fp)
   25894:	b5ed883a 	add	r22,r22,r23
   25898:	15c5c83a 	sub	r2,r2,r23
   2589c:	e0800215 	stw	r2,8(fp)
   258a0:	10002c26 	beq	r2,zero,25954 <__sfvwrite_r+0x2bc>
   258a4:	81c00017 	ldw	r7,0(r16)
   258a8:	80c00217 	ldw	r3,8(r16)
   258ac:	8280030b 	ldhu	r10,12(r16)
   258b0:	3809883a 	mov	r4,r7
   258b4:	1829883a 	mov	r20,r3
   258b8:	903fc01e 	bne	r18,zero,257bc <__sfvwrite_r+0x124>
   258bc:	8d800017 	ldw	r22,0(r17)
   258c0:	8c800117 	ldw	r18,4(r17)
   258c4:	8c400204 	addi	r17,r17,8
   258c8:	003fb906 	br	257b0 <__sfvwrite_r+0x118>
   258cc:	002f883a 	mov	r23,zero
   258d0:	0005883a 	mov	r2,zero
   258d4:	002b883a 	mov	r21,zero
   258d8:	0029883a 	mov	r20,zero
   258dc:	a0003526 	beq	r20,zero,259b4 <__sfvwrite_r+0x31c>
   258e0:	10003926 	beq	r2,zero,259c8 <__sfvwrite_r+0x330>
   258e4:	b805883a 	mov	r2,r23
   258e8:	a02d883a 	mov	r22,r20
   258ec:	1500012e 	bgeu	r2,r20,258f4 <__sfvwrite_r+0x25c>
   258f0:	102d883a 	mov	r22,r2
   258f4:	81000017 	ldw	r4,0(r16)
   258f8:	80800417 	ldw	r2,16(r16)
   258fc:	84800217 	ldw	r18,8(r16)
   25900:	81c00517 	ldw	r7,20(r16)
   25904:	1100022e 	bgeu	r2,r4,25910 <__sfvwrite_r+0x278>
   25908:	91e5883a 	add	r18,r18,r7
   2590c:	95803616 	blt	r18,r22,259e8 <__sfvwrite_r+0x350>
   25910:	b1c06a16 	blt	r22,r7,25abc <__sfvwrite_r+0x424>
   25914:	80800917 	ldw	r2,36(r16)
   25918:	81400717 	ldw	r5,28(r16)
   2591c:	a80d883a 	mov	r6,r21
   25920:	9809883a 	mov	r4,r19
   25924:	103ee83a 	callr	r2
   25928:	1025883a 	mov	r18,r2
   2592c:	00801a0e 	bge	zero,r2,25998 <__sfvwrite_r+0x300>
   25930:	bcafc83a 	sub	r23,r23,r18
   25934:	b8001426 	beq	r23,zero,25988 <__sfvwrite_r+0x2f0>
   25938:	00800044 	movi	r2,1
   2593c:	e0c00217 	ldw	r3,8(fp)
   25940:	acab883a 	add	r21,r21,r18
   25944:	a4a9c83a 	sub	r20,r20,r18
   25948:	1c87c83a 	sub	r3,r3,r18
   2594c:	e0c00215 	stw	r3,8(fp)
   25950:	183fe21e 	bne	r3,zero,258dc <__sfvwrite_r+0x244>
   25954:	0005883a 	mov	r2,zero
   25958:	dfc00a17 	ldw	ra,40(sp)
   2595c:	df000917 	ldw	fp,36(sp)
   25960:	ddc00817 	ldw	r23,32(sp)
   25964:	dd800717 	ldw	r22,28(sp)
   25968:	dd400617 	ldw	r21,24(sp)
   2596c:	dd000517 	ldw	r20,20(sp)
   25970:	dcc00417 	ldw	r19,16(sp)
   25974:	dc800317 	ldw	r18,12(sp)
   25978:	dc400217 	ldw	r17,8(sp)
   2597c:	dc000117 	ldw	r16,4(sp)
   25980:	dec00b04 	addi	sp,sp,44
   25984:	f800283a 	ret
   25988:	800b883a 	mov	r5,r16
   2598c:	9809883a 	mov	r4,r19
   25990:	0024e0c0 	call	24e0c <_fflush_r>
   25994:	103fe926 	beq	r2,zero,2593c <__sfvwrite_r+0x2a4>
   25998:	8080030b 	ldhu	r2,12(r16)
   2599c:	10801014 	ori	r2,r2,64
   259a0:	8080030d 	sth	r2,12(r16)
   259a4:	00bfffc4 	movi	r2,-1
   259a8:	003feb06 	br	25958 <__sfvwrite_r+0x2c0>
   259ac:	0005883a 	mov	r2,zero
   259b0:	f800283a 	ret
   259b4:	8d000117 	ldw	r20,4(r17)
   259b8:	8805883a 	mov	r2,r17
   259bc:	8c400204 	addi	r17,r17,8
   259c0:	a03ffc26 	beq	r20,zero,259b4 <__sfvwrite_r+0x31c>
   259c4:	15400017 	ldw	r21,0(r2)
   259c8:	a00d883a 	mov	r6,r20
   259cc:	01400284 	movi	r5,10
   259d0:	a809883a 	mov	r4,r21
   259d4:	002667c0 	call	2667c <memchr>
   259d8:	10004326 	beq	r2,zero,25ae8 <__sfvwrite_r+0x450>
   259dc:	10800044 	addi	r2,r2,1
   259e0:	156fc83a 	sub	r23,r2,r21
   259e4:	003fbf06 	br	258e4 <__sfvwrite_r+0x24c>
   259e8:	a80b883a 	mov	r5,r21
   259ec:	900d883a 	mov	r6,r18
   259f0:	002684c0 	call	2684c <memmove>
   259f4:	80800017 	ldw	r2,0(r16)
   259f8:	800b883a 	mov	r5,r16
   259fc:	9809883a 	mov	r4,r19
   25a00:	1485883a 	add	r2,r2,r18
   25a04:	80800015 	stw	r2,0(r16)
   25a08:	0024e0c0 	call	24e0c <_fflush_r>
   25a0c:	103fc826 	beq	r2,zero,25930 <__sfvwrite_r+0x298>
   25a10:	003fe106 	br	25998 <__sfvwrite_r+0x300>
   25a14:	80800417 	ldw	r2,16(r16)
   25a18:	11c01236 	bltu	r2,r7,25a64 <__sfvwrite_r+0x3cc>
   25a1c:	81400517 	ldw	r5,20(r16)
   25a20:	91401036 	bltu	r18,r5,25a64 <__sfvwrite_r+0x3cc>
   25a24:	00a00034 	movhi	r2,32768
   25a28:	902f883a 	mov	r23,r18
   25a2c:	90800136 	bltu	r18,r2,25a34 <__sfvwrite_r+0x39c>
   25a30:	ddc00017 	ldw	r23,0(sp)
   25a34:	b809883a 	mov	r4,r23
   25a38:	00209380 	call	20938 <__modsi3>
   25a3c:	80c00917 	ldw	r3,36(r16)
   25a40:	81400717 	ldw	r5,28(r16)
   25a44:	b88fc83a 	sub	r7,r23,r2
   25a48:	b00d883a 	mov	r6,r22
   25a4c:	9809883a 	mov	r4,r19
   25a50:	183ee83a 	callr	r3
   25a54:	102f883a 	mov	r23,r2
   25a58:	00bfcf0e 	bge	zero,r2,25998 <__sfvwrite_r+0x300>
   25a5c:	95e5c83a 	sub	r18,r18,r23
   25a60:	003f8b06 	br	25890 <__sfvwrite_r+0x1f8>
   25a64:	182f883a 	mov	r23,r3
   25a68:	90c0012e 	bgeu	r18,r3,25a70 <__sfvwrite_r+0x3d8>
   25a6c:	902f883a 	mov	r23,r18
   25a70:	3809883a 	mov	r4,r7
   25a74:	b80d883a 	mov	r6,r23
   25a78:	b00b883a 	mov	r5,r22
   25a7c:	002684c0 	call	2684c <memmove>
   25a80:	80c00217 	ldw	r3,8(r16)
   25a84:	81c00017 	ldw	r7,0(r16)
   25a88:	1dc7c83a 	sub	r3,r3,r23
   25a8c:	3dcf883a 	add	r7,r7,r23
   25a90:	80c00215 	stw	r3,8(r16)
   25a94:	81c00015 	stw	r7,0(r16)
   25a98:	183ff01e 	bne	r3,zero,25a5c <__sfvwrite_r+0x3c4>
   25a9c:	800b883a 	mov	r5,r16
   25aa0:	9809883a 	mov	r4,r19
   25aa4:	0024e0c0 	call	24e0c <_fflush_r>
   25aa8:	103fec26 	beq	r2,zero,25a5c <__sfvwrite_r+0x3c4>
   25aac:	003fba06 	br	25998 <__sfvwrite_r+0x300>
   25ab0:	9029883a 	mov	r20,r18
   25ab4:	902b883a 	mov	r21,r18
   25ab8:	003f6a06 	br	25864 <__sfvwrite_r+0x1cc>
   25abc:	b00d883a 	mov	r6,r22
   25ac0:	a80b883a 	mov	r5,r21
   25ac4:	002684c0 	call	2684c <memmove>
   25ac8:	80c00217 	ldw	r3,8(r16)
   25acc:	80800017 	ldw	r2,0(r16)
   25ad0:	b025883a 	mov	r18,r22
   25ad4:	1d87c83a 	sub	r3,r3,r22
   25ad8:	1585883a 	add	r2,r2,r22
   25adc:	80c00215 	stw	r3,8(r16)
   25ae0:	80800015 	stw	r2,0(r16)
   25ae4:	003f9206 	br	25930 <__sfvwrite_r+0x298>
   25ae8:	a0800044 	addi	r2,r20,1
   25aec:	102f883a 	mov	r23,r2
   25af0:	003f7d06 	br	258e8 <__sfvwrite_r+0x250>
   25af4:	280d883a 	mov	r6,r5
   25af8:	200b883a 	mov	r5,r4
   25afc:	9809883a 	mov	r4,r19
   25b00:	0027bc00 	call	27bc0 <_realloc_r>
   25b04:	1007883a 	mov	r3,r2
   25b08:	103f4e1e 	bne	r2,zero,25844 <__sfvwrite_r+0x1ac>
   25b0c:	81400417 	ldw	r5,16(r16)
   25b10:	9809883a 	mov	r4,r19
   25b14:	00253900 	call	25390 <_free_r>
   25b18:	8080030b 	ldhu	r2,12(r16)
   25b1c:	00c00304 	movi	r3,12
   25b20:	98c00015 	stw	r3,0(r19)
   25b24:	10bfdfcc 	andi	r2,r2,65407
   25b28:	003f9c06 	br	2599c <__sfvwrite_r+0x304>
   25b2c:	00c00304 	movi	r3,12
   25b30:	8080030b 	ldhu	r2,12(r16)
   25b34:	98c00015 	stw	r3,0(r19)
   25b38:	003f9806 	br	2599c <__sfvwrite_r+0x304>

00025b3c <_fwalk>:
   25b3c:	defffa04 	addi	sp,sp,-24
   25b40:	dd000415 	stw	r20,16(sp)
   25b44:	dcc00315 	stw	r19,12(sp)
   25b48:	dc800215 	stw	r18,8(sp)
   25b4c:	dfc00515 	stw	ra,20(sp)
   25b50:	dc400115 	stw	r17,4(sp)
   25b54:	dc000015 	stw	r16,0(sp)
   25b58:	2827883a 	mov	r19,r5
   25b5c:	2480b804 	addi	r18,r4,736
   25b60:	0029883a 	mov	r20,zero
   25b64:	94400117 	ldw	r17,4(r18)
   25b68:	94000217 	ldw	r16,8(r18)
   25b6c:	8c7fffc4 	addi	r17,r17,-1
   25b70:	88000d16 	blt	r17,zero,25ba8 <_fwalk+0x6c>
   25b74:	8080030b 	ldhu	r2,12(r16)
   25b78:	8c7fffc4 	addi	r17,r17,-1
   25b7c:	108000b0 	cmpltui	r2,r2,2
   25b80:	1000061e 	bne	r2,zero,25b9c <_fwalk+0x60>
   25b84:	8080038f 	ldh	r2,14(r16)
   25b88:	8009883a 	mov	r4,r16
   25b8c:	10bfffe0 	cmpeqi	r2,r2,-1
   25b90:	1000021e 	bne	r2,zero,25b9c <_fwalk+0x60>
   25b94:	983ee83a 	callr	r19
   25b98:	a0a8b03a 	or	r20,r20,r2
   25b9c:	88bfffd8 	cmpnei	r2,r17,-1
   25ba0:	84001a04 	addi	r16,r16,104
   25ba4:	103ff31e 	bne	r2,zero,25b74 <_fwalk+0x38>
   25ba8:	94800017 	ldw	r18,0(r18)
   25bac:	903fed1e 	bne	r18,zero,25b64 <_fwalk+0x28>
   25bb0:	a005883a 	mov	r2,r20
   25bb4:	dfc00517 	ldw	ra,20(sp)
   25bb8:	dd000417 	ldw	r20,16(sp)
   25bbc:	dcc00317 	ldw	r19,12(sp)
   25bc0:	dc800217 	ldw	r18,8(sp)
   25bc4:	dc400117 	ldw	r17,4(sp)
   25bc8:	dc000017 	ldw	r16,0(sp)
   25bcc:	dec00604 	addi	sp,sp,24
   25bd0:	f800283a 	ret

00025bd4 <_fwalk_reent>:
   25bd4:	defff904 	addi	sp,sp,-28
   25bd8:	dd400515 	stw	r21,20(sp)
   25bdc:	dd000415 	stw	r20,16(sp)
   25be0:	dcc00315 	stw	r19,12(sp)
   25be4:	dc800215 	stw	r18,8(sp)
   25be8:	dfc00615 	stw	ra,24(sp)
   25bec:	dc400115 	stw	r17,4(sp)
   25bf0:	dc000015 	stw	r16,0(sp)
   25bf4:	2025883a 	mov	r18,r4
   25bf8:	2829883a 	mov	r20,r5
   25bfc:	24c0b804 	addi	r19,r4,736
   25c00:	002b883a 	mov	r21,zero
   25c04:	9c400117 	ldw	r17,4(r19)
   25c08:	9c000217 	ldw	r16,8(r19)
   25c0c:	8c7fffc4 	addi	r17,r17,-1
   25c10:	88000e16 	blt	r17,zero,25c4c <_fwalk_reent+0x78>
   25c14:	8080030b 	ldhu	r2,12(r16)
   25c18:	8c7fffc4 	addi	r17,r17,-1
   25c1c:	108000b0 	cmpltui	r2,r2,2
   25c20:	1000071e 	bne	r2,zero,25c40 <_fwalk_reent+0x6c>
   25c24:	8080038f 	ldh	r2,14(r16)
   25c28:	800b883a 	mov	r5,r16
   25c2c:	9009883a 	mov	r4,r18
   25c30:	10bfffe0 	cmpeqi	r2,r2,-1
   25c34:	1000021e 	bne	r2,zero,25c40 <_fwalk_reent+0x6c>
   25c38:	a03ee83a 	callr	r20
   25c3c:	a8aab03a 	or	r21,r21,r2
   25c40:	88bfffd8 	cmpnei	r2,r17,-1
   25c44:	84001a04 	addi	r16,r16,104
   25c48:	103ff21e 	bne	r2,zero,25c14 <_fwalk_reent+0x40>
   25c4c:	9cc00017 	ldw	r19,0(r19)
   25c50:	983fec1e 	bne	r19,zero,25c04 <_fwalk_reent+0x30>
   25c54:	a805883a 	mov	r2,r21
   25c58:	dfc00617 	ldw	ra,24(sp)
   25c5c:	dd400517 	ldw	r21,20(sp)
   25c60:	dd000417 	ldw	r20,16(sp)
   25c64:	dcc00317 	ldw	r19,12(sp)
   25c68:	dc800217 	ldw	r18,8(sp)
   25c6c:	dc400117 	ldw	r17,4(sp)
   25c70:	dc000017 	ldw	r16,0(sp)
   25c74:	dec00704 	addi	sp,sp,28
   25c78:	f800283a 	ret

00025c7c <__localeconv_l>:
   25c7c:	20803c04 	addi	r2,r4,240
   25c80:	f800283a 	ret

00025c84 <_localeconv_r>:
   25c84:	008000f4 	movhi	r2,3
   25c88:	10858a04 	addi	r2,r2,5672
   25c8c:	f800283a 	ret

00025c90 <localeconv>:
   25c90:	008000f4 	movhi	r2,3
   25c94:	10858a04 	addi	r2,r2,5672
   25c98:	f800283a 	ret

00025c9c <__smakebuf_r>:
   25c9c:	2880030b 	ldhu	r2,12(r5)
   25ca0:	deffe804 	addi	sp,sp,-96
   25ca4:	dc001215 	stw	r16,72(sp)
   25ca8:	dfc01715 	stw	ra,92(sp)
   25cac:	dd001615 	stw	r20,88(sp)
   25cb0:	dcc01515 	stw	r19,84(sp)
   25cb4:	dc801415 	stw	r18,80(sp)
   25cb8:	dc401315 	stw	r17,76(sp)
   25cbc:	10c0008c 	andi	r3,r2,2
   25cc0:	2821883a 	mov	r16,r5
   25cc4:	18000d26 	beq	r3,zero,25cfc <__smakebuf_r+0x60>
   25cc8:	288010c4 	addi	r2,r5,67
   25ccc:	28800015 	stw	r2,0(r5)
   25cd0:	28800415 	stw	r2,16(r5)
   25cd4:	00800044 	movi	r2,1
   25cd8:	28800515 	stw	r2,20(r5)
   25cdc:	dfc01717 	ldw	ra,92(sp)
   25ce0:	dd001617 	ldw	r20,88(sp)
   25ce4:	dcc01517 	ldw	r19,84(sp)
   25ce8:	dc801417 	ldw	r18,80(sp)
   25cec:	dc401317 	ldw	r17,76(sp)
   25cf0:	dc001217 	ldw	r16,72(sp)
   25cf4:	dec01804 	addi	sp,sp,96
   25cf8:	f800283a 	ret
   25cfc:	2940038f 	ldh	r5,14(r5)
   25d00:	2023883a 	mov	r17,r4
   25d04:	28002816 	blt	r5,zero,25da8 <__smakebuf_r+0x10c>
   25d08:	d80d883a 	mov	r6,sp
   25d0c:	0029d8c0 	call	29d8c <_fstat_r>
   25d10:	10002416 	blt	r2,zero,25da4 <__smakebuf_r+0x108>
   25d14:	d8800117 	ldw	r2,4(sp)
   25d18:	10bc000c 	andi	r2,r2,61440
   25d1c:	10880018 	cmpnei	r2,r2,8192
   25d20:	1000421e 	bne	r2,zero,25e2c <__smakebuf_r+0x190>
   25d24:	8140038f 	ldh	r5,14(r16)
   25d28:	8809883a 	mov	r4,r17
   25d2c:	0029dec0 	call	29dec <_isatty_r>
   25d30:	10000826 	beq	r2,zero,25d54 <__smakebuf_r+0xb8>
   25d34:	8080030b 	ldhu	r2,12(r16)
   25d38:	80c010c4 	addi	r3,r16,67
   25d3c:	80c00015 	stw	r3,0(r16)
   25d40:	10800054 	ori	r2,r2,1
   25d44:	8080030d 	sth	r2,12(r16)
   25d48:	00800044 	movi	r2,1
   25d4c:	80c00415 	stw	r3,16(r16)
   25d50:	80800515 	stw	r2,20(r16)
   25d54:	04c00044 	movi	r19,1
   25d58:	05010004 	movi	r20,1024
   25d5c:	04820004 	movi	r18,2048
   25d60:	a00b883a 	mov	r5,r20
   25d64:	8809883a 	mov	r4,r17
   25d68:	0025ec80 	call	25ec8 <_malloc_r>
   25d6c:	10001726 	beq	r2,zero,25dcc <__smakebuf_r+0x130>
   25d70:	80c0030b 	ldhu	r3,12(r16)
   25d74:	010000b4 	movhi	r4,2
   25d78:	2113be04 	addi	r4,r4,20216
   25d7c:	89000f15 	stw	r4,60(r17)
   25d80:	18c02014 	ori	r3,r3,128
   25d84:	80c0030d 	sth	r3,12(r16)
   25d88:	80800015 	stw	r2,0(r16)
   25d8c:	80800415 	stw	r2,16(r16)
   25d90:	85000515 	stw	r20,20(r16)
   25d94:	98001d1e 	bne	r19,zero,25e0c <__smakebuf_r+0x170>
   25d98:	90e4b03a 	or	r18,r18,r3
   25d9c:	8480030d 	sth	r18,12(r16)
   25da0:	003fce06 	br	25cdc <__smakebuf_r+0x40>
   25da4:	8080030b 	ldhu	r2,12(r16)
   25da8:	1080200c 	andi	r2,r2,128
   25dac:	0027883a 	mov	r19,zero
   25db0:	10001326 	beq	r2,zero,25e00 <__smakebuf_r+0x164>
   25db4:	05001004 	movi	r20,64
   25db8:	a00b883a 	mov	r5,r20
   25dbc:	8809883a 	mov	r4,r17
   25dc0:	0025883a 	mov	r18,zero
   25dc4:	0025ec80 	call	25ec8 <_malloc_r>
   25dc8:	103fe91e 	bne	r2,zero,25d70 <__smakebuf_r+0xd4>
   25dcc:	8080030b 	ldhu	r2,12(r16)
   25dd0:	10c0800c 	andi	r3,r2,512
   25dd4:	183fc11e 	bne	r3,zero,25cdc <__smakebuf_r+0x40>
   25dd8:	00ffff04 	movi	r3,-4
   25ddc:	10c4703a 	and	r2,r2,r3
   25de0:	10800094 	ori	r2,r2,2
   25de4:	80c010c4 	addi	r3,r16,67
   25de8:	8080030d 	sth	r2,12(r16)
   25dec:	00800044 	movi	r2,1
   25df0:	80c00015 	stw	r3,0(r16)
   25df4:	80c00415 	stw	r3,16(r16)
   25df8:	80800515 	stw	r2,20(r16)
   25dfc:	003fb706 	br	25cdc <__smakebuf_r+0x40>
   25e00:	05010004 	movi	r20,1024
   25e04:	0025883a 	mov	r18,zero
   25e08:	003fd506 	br	25d60 <__smakebuf_r+0xc4>
   25e0c:	8140038f 	ldh	r5,14(r16)
   25e10:	8809883a 	mov	r4,r17
   25e14:	0029dec0 	call	29dec <_isatty_r>
   25e18:	80c0030b 	ldhu	r3,12(r16)
   25e1c:	103fde26 	beq	r2,zero,25d98 <__smakebuf_r+0xfc>
   25e20:	18ffff0c 	andi	r3,r3,65532
   25e24:	18c00054 	ori	r3,r3,1
   25e28:	003fdb06 	br	25d98 <__smakebuf_r+0xfc>
   25e2c:	0027883a 	mov	r19,zero
   25e30:	05010004 	movi	r20,1024
   25e34:	04820004 	movi	r18,2048
   25e38:	003fc906 	br	25d60 <__smakebuf_r+0xc4>

00025e3c <__swhatbuf_r>:
   25e3c:	deffea04 	addi	sp,sp,-88
   25e40:	dc001215 	stw	r16,72(sp)
   25e44:	2821883a 	mov	r16,r5
   25e48:	2940038f 	ldh	r5,14(r5)
   25e4c:	dc801415 	stw	r18,80(sp)
   25e50:	dc401315 	stw	r17,76(sp)
   25e54:	dfc01515 	stw	ra,84(sp)
   25e58:	3023883a 	mov	r17,r6
   25e5c:	3825883a 	mov	r18,r7
   25e60:	28001016 	blt	r5,zero,25ea4 <__swhatbuf_r+0x68>
   25e64:	d80d883a 	mov	r6,sp
   25e68:	0029d8c0 	call	29d8c <_fstat_r>
   25e6c:	10000d16 	blt	r2,zero,25ea4 <__swhatbuf_r+0x68>
   25e70:	d8c00117 	ldw	r3,4(sp)
   25e74:	01010004 	movi	r4,1024
   25e78:	00820004 	movi	r2,2048
   25e7c:	18fc000c 	andi	r3,r3,61440
   25e80:	18c80020 	cmpeqi	r3,r3,8192
   25e84:	90c00015 	stw	r3,0(r18)
   25e88:	89000015 	stw	r4,0(r17)
   25e8c:	dfc01517 	ldw	ra,84(sp)
   25e90:	dc801417 	ldw	r18,80(sp)
   25e94:	dc401317 	ldw	r17,76(sp)
   25e98:	dc001217 	ldw	r16,72(sp)
   25e9c:	dec01604 	addi	sp,sp,88
   25ea0:	f800283a 	ret
   25ea4:	8080030b 	ldhu	r2,12(r16)
   25ea8:	0007883a 	mov	r3,zero
   25eac:	1080200c 	andi	r2,r2,128
   25eb0:	10000326 	beq	r2,zero,25ec0 <__swhatbuf_r+0x84>
   25eb4:	01001004 	movi	r4,64
   25eb8:	0005883a 	mov	r2,zero
   25ebc:	003ff106 	br	25e84 <__swhatbuf_r+0x48>
   25ec0:	01010004 	movi	r4,1024
   25ec4:	003fef06 	br	25e84 <__swhatbuf_r+0x48>

00025ec8 <_malloc_r>:
   25ec8:	defff604 	addi	sp,sp,-40
   25ecc:	dc400115 	stw	r17,4(sp)
   25ed0:	2c4002c4 	addi	r17,r5,11
   25ed4:	dc800215 	stw	r18,8(sp)
   25ed8:	dfc00915 	stw	ra,36(sp)
   25edc:	df000815 	stw	fp,32(sp)
   25ee0:	ddc00715 	stw	r23,28(sp)
   25ee4:	dd800615 	stw	r22,24(sp)
   25ee8:	dd400515 	stw	r21,20(sp)
   25eec:	dd000415 	stw	r20,16(sp)
   25ef0:	dcc00315 	stw	r19,12(sp)
   25ef4:	dc000015 	stw	r16,0(sp)
   25ef8:	888005e8 	cmpgeui	r2,r17,23
   25efc:	2025883a 	mov	r18,r4
   25f00:	1000261e 	bne	r2,zero,25f9c <_malloc_r+0xd4>
   25f04:	29400468 	cmpgeui	r5,r5,17
   25f08:	28008d1e 	bne	r5,zero,26140 <_malloc_r+0x278>
   25f0c:	002e0f00 	call	2e0f0 <__malloc_lock>
   25f10:	04400404 	movi	r17,16
   25f14:	00800604 	movi	r2,24
   25f18:	01c00084 	movi	r7,2
   25f1c:	04c000f4 	movhi	r19,3
   25f20:	9cc44c04 	addi	r19,r19,4400
   25f24:	9885883a 	add	r2,r19,r2
   25f28:	14000117 	ldw	r16,4(r2)
   25f2c:	10fffe04 	addi	r3,r2,-8
   25f30:	80c0cb26 	beq	r16,r3,26260 <_malloc_r+0x398>
   25f34:	80800117 	ldw	r2,4(r16)
   25f38:	81000317 	ldw	r4,12(r16)
   25f3c:	00ffff04 	movi	r3,-4
   25f40:	10c4703a 	and	r2,r2,r3
   25f44:	81400217 	ldw	r5,8(r16)
   25f48:	8085883a 	add	r2,r16,r2
   25f4c:	10c00117 	ldw	r3,4(r2)
   25f50:	29000315 	stw	r4,12(r5)
   25f54:	21400215 	stw	r5,8(r4)
   25f58:	18c00054 	ori	r3,r3,1
   25f5c:	10c00115 	stw	r3,4(r2)
   25f60:	9009883a 	mov	r4,r18
   25f64:	002e1140 	call	2e114 <__malloc_unlock>
   25f68:	80800204 	addi	r2,r16,8
   25f6c:	dfc00917 	ldw	ra,36(sp)
   25f70:	df000817 	ldw	fp,32(sp)
   25f74:	ddc00717 	ldw	r23,28(sp)
   25f78:	dd800617 	ldw	r22,24(sp)
   25f7c:	dd400517 	ldw	r21,20(sp)
   25f80:	dd000417 	ldw	r20,16(sp)
   25f84:	dcc00317 	ldw	r19,12(sp)
   25f88:	dc800217 	ldw	r18,8(sp)
   25f8c:	dc400117 	ldw	r17,4(sp)
   25f90:	dc000017 	ldw	r16,0(sp)
   25f94:	dec00a04 	addi	sp,sp,40
   25f98:	f800283a 	ret
   25f9c:	00bffe04 	movi	r2,-8
   25fa0:	88a2703a 	and	r17,r17,r2
   25fa4:	88006616 	blt	r17,zero,26140 <_malloc_r+0x278>
   25fa8:	89406536 	bltu	r17,r5,26140 <_malloc_r+0x278>
   25fac:	002e0f00 	call	2e0f0 <__malloc_lock>
   25fb0:	88807e28 	cmpgeui	r2,r17,504
   25fb4:	1000ef26 	beq	r2,zero,26374 <_malloc_r+0x4ac>
   25fb8:	8804d27a 	srli	r2,r17,9
   25fbc:	10006426 	beq	r2,zero,26150 <_malloc_r+0x288>
   25fc0:	10c00168 	cmpgeui	r3,r2,5
   25fc4:	1800c31e 	bne	r3,zero,262d4 <_malloc_r+0x40c>
   25fc8:	8804d1ba 	srli	r2,r17,6
   25fcc:	11c00e44 	addi	r7,r2,57
   25fd0:	380890fa 	slli	r4,r7,3
   25fd4:	12000e04 	addi	r8,r2,56
   25fd8:	04c000f4 	movhi	r19,3
   25fdc:	9cc44c04 	addi	r19,r19,4400
   25fe0:	9909883a 	add	r4,r19,r4
   25fe4:	24000117 	ldw	r16,4(r4)
   25fe8:	213ffe04 	addi	r4,r4,-8
   25fec:	24000b26 	beq	r4,r16,2601c <_malloc_r+0x154>
   25ff0:	01bfff04 	movi	r6,-4
   25ff4:	00000306 	br	26004 <_malloc_r+0x13c>
   25ff8:	1800970e 	bge	r3,zero,26258 <_malloc_r+0x390>
   25ffc:	84000317 	ldw	r16,12(r16)
   26000:	24000626 	beq	r4,r16,2601c <_malloc_r+0x154>
   26004:	80800117 	ldw	r2,4(r16)
   26008:	1184703a 	and	r2,r2,r6
   2600c:	1447c83a 	sub	r3,r2,r17
   26010:	19400408 	cmpgei	r5,r3,16
   26014:	283ff826 	beq	r5,zero,25ff8 <_malloc_r+0x130>
   26018:	400f883a 	mov	r7,r8
   2601c:	9c000417 	ldw	r16,16(r19)
   26020:	024000f4 	movhi	r9,3
   26024:	4a444e04 	addi	r9,r9,4408
   26028:	82407f26 	beq	r16,r9,26228 <_malloc_r+0x360>
   2602c:	80800117 	ldw	r2,4(r16)
   26030:	00ffff04 	movi	r3,-4
   26034:	10c4703a 	and	r2,r2,r3
   26038:	1447c83a 	sub	r3,r2,r17
   2603c:	19000410 	cmplti	r4,r3,16
   26040:	2000cf26 	beq	r4,zero,26380 <_malloc_r+0x4b8>
   26044:	9a400515 	stw	r9,20(r19)
   26048:	9a400415 	stw	r9,16(r19)
   2604c:	1800c10e 	bge	r3,zero,26354 <_malloc_r+0x48c>
   26050:	10c08028 	cmpgeui	r3,r2,512
   26054:	99400117 	ldw	r5,4(r19)
   26058:	1800851e 	bne	r3,zero,26270 <_malloc_r+0x3a8>
   2605c:	1006d0fa 	srli	r3,r2,3
   26060:	1008d17a 	srli	r4,r2,5
   26064:	18800044 	addi	r2,r3,1
   26068:	100490fa 	slli	r2,r2,3
   2606c:	00c00044 	movi	r3,1
   26070:	1906983a 	sll	r3,r3,r4
   26074:	9885883a 	add	r2,r19,r2
   26078:	11000017 	ldw	r4,0(r2)
   2607c:	28cab03a 	or	r5,r5,r3
   26080:	10fffe04 	addi	r3,r2,-8
   26084:	80c00315 	stw	r3,12(r16)
   26088:	81000215 	stw	r4,8(r16)
   2608c:	99400115 	stw	r5,4(r19)
   26090:	14000015 	stw	r16,0(r2)
   26094:	24000315 	stw	r16,12(r4)
   26098:	3805d0ba 	srai	r2,r7,2
   2609c:	01000044 	movi	r4,1
   260a0:	2088983a 	sll	r4,r4,r2
   260a4:	29002e36 	bltu	r5,r4,26160 <_malloc_r+0x298>
   260a8:	2144703a 	and	r2,r4,r5
   260ac:	10000a1e 	bne	r2,zero,260d8 <_malloc_r+0x210>
   260b0:	2109883a 	add	r4,r4,r4
   260b4:	00bfff04 	movi	r2,-4
   260b8:	3884703a 	and	r2,r7,r2
   260bc:	2146703a 	and	r3,r4,r5
   260c0:	11c00104 	addi	r7,r2,4
   260c4:	1800041e 	bne	r3,zero,260d8 <_malloc_r+0x210>
   260c8:	2109883a 	add	r4,r4,r4
   260cc:	2144703a 	and	r2,r4,r5
   260d0:	39c00104 	addi	r7,r7,4
   260d4:	103ffc26 	beq	r2,zero,260c8 <_malloc_r+0x200>
   260d8:	02bfff04 	movi	r10,-4
   260dc:	381690fa 	slli	r11,r7,3
   260e0:	3819883a 	mov	r12,r7
   260e4:	9ad7883a 	add	r11,r19,r11
   260e8:	5811883a 	mov	r8,r11
   260ec:	40800317 	ldw	r2,12(r8)
   260f0:	40808126 	beq	r8,r2,262f8 <_malloc_r+0x430>
   260f4:	10c00117 	ldw	r3,4(r2)
   260f8:	1021883a 	mov	r16,r2
   260fc:	10800317 	ldw	r2,12(r2)
   26100:	1a86703a 	and	r3,r3,r10
   26104:	1c4bc83a 	sub	r5,r3,r17
   26108:	29800410 	cmplti	r6,r5,16
   2610c:	30007f26 	beq	r6,zero,2630c <_malloc_r+0x444>
   26110:	283ff716 	blt	r5,zero,260f0 <_malloc_r+0x228>
   26114:	80c7883a 	add	r3,r16,r3
   26118:	19400117 	ldw	r5,4(r3)
   2611c:	81800217 	ldw	r6,8(r16)
   26120:	9009883a 	mov	r4,r18
   26124:	29400054 	ori	r5,r5,1
   26128:	19400115 	stw	r5,4(r3)
   2612c:	30800315 	stw	r2,12(r6)
   26130:	11800215 	stw	r6,8(r2)
   26134:	002e1140 	call	2e114 <__malloc_unlock>
   26138:	80800204 	addi	r2,r16,8
   2613c:	003f8b06 	br	25f6c <_malloc_r+0xa4>
   26140:	00800304 	movi	r2,12
   26144:	90800015 	stw	r2,0(r18)
   26148:	0005883a 	mov	r2,zero
   2614c:	003f8706 	br	25f6c <_malloc_r+0xa4>
   26150:	01008004 	movi	r4,512
   26154:	01c01004 	movi	r7,64
   26158:	02000fc4 	movi	r8,63
   2615c:	003f9e06 	br	25fd8 <_malloc_r+0x110>
   26160:	9c000217 	ldw	r16,8(r19)
   26164:	00bfff04 	movi	r2,-4
   26168:	80c00117 	ldw	r3,4(r16)
   2616c:	18aa703a 	and	r21,r3,r2
   26170:	ac400336 	bltu	r21,r17,26180 <_malloc_r+0x2b8>
   26174:	ac47c83a 	sub	r3,r21,r17
   26178:	18800408 	cmpgei	r2,r3,16
   2617c:	10002c1e 	bne	r2,zero,26230 <_malloc_r+0x368>
   26180:	008000f4 	movhi	r2,3
   26184:	108a4317 	ldw	r2,10508(r2)
   26188:	00c000f4 	movhi	r3,3
   2618c:	1d116117 	ldw	r20,17796(r3)
   26190:	10bfffd8 	cmpnei	r2,r2,-1
   26194:	856f883a 	add	r23,r16,r21
   26198:	8d29883a 	add	r20,r17,r20
   2619c:	1000e726 	beq	r2,zero,2653c <_malloc_r+0x674>
   261a0:	a50403c4 	addi	r20,r20,4111
   261a4:	00bc0004 	movi	r2,-4096
   261a8:	a0a8703a 	and	r20,r20,r2
   261ac:	a00b883a 	mov	r5,r20
   261b0:	9009883a 	mov	r4,r18
   261b4:	00281b40 	call	281b4 <_sbrk_r>
   261b8:	102d883a 	mov	r22,r2
   261bc:	10bfffd8 	cmpnei	r2,r2,-1
   261c0:	10008426 	beq	r2,zero,263d4 <_malloc_r+0x50c>
   261c4:	b5c08236 	bltu	r22,r23,263d0 <_malloc_r+0x508>
   261c8:	008000f4 	movhi	r2,3
   261cc:	11116c17 	ldw	r4,17840(r2)
   261d0:	a109883a 	add	r4,r20,r4
   261d4:	11116c15 	stw	r4,17840(r2)
   261d8:	2007883a 	mov	r3,r4
   261dc:	bd80a51e 	bne	r23,r22,26474 <_malloc_r+0x5ac>
   261e0:	b083ffcc 	andi	r2,r22,4095
   261e4:	1000a31e 	bne	r2,zero,26474 <_malloc_r+0x5ac>
   261e8:	9d800217 	ldw	r22,8(r19)
   261ec:	ad07883a 	add	r3,r21,r20
   261f0:	18c00054 	ori	r3,r3,1
   261f4:	b0c00115 	stw	r3,4(r22)
   261f8:	008000f4 	movhi	r2,3
   261fc:	10916017 	ldw	r2,17792(r2)
   26200:	1100022e 	bgeu	r2,r4,2620c <_malloc_r+0x344>
   26204:	008000f4 	movhi	r2,3
   26208:	11116015 	stw	r4,17792(r2)
   2620c:	008000f4 	movhi	r2,3
   26210:	10915f17 	ldw	r2,17788(r2)
   26214:	1100022e 	bgeu	r2,r4,26220 <_malloc_r+0x358>
   26218:	008000f4 	movhi	r2,3
   2621c:	11115f15 	stw	r4,17788(r2)
   26220:	b021883a 	mov	r16,r22
   26224:	00006d06 	br	263dc <_malloc_r+0x514>
   26228:	99400117 	ldw	r5,4(r19)
   2622c:	003f9a06 	br	26098 <_malloc_r+0x1d0>
   26230:	88800054 	ori	r2,r17,1
   26234:	80800115 	stw	r2,4(r16)
   26238:	8463883a 	add	r17,r16,r17
   2623c:	9c400215 	stw	r17,8(r19)
   26240:	18c00054 	ori	r3,r3,1
   26244:	88c00115 	stw	r3,4(r17)
   26248:	9009883a 	mov	r4,r18
   2624c:	002e1140 	call	2e114 <__malloc_unlock>
   26250:	80800204 	addi	r2,r16,8
   26254:	003f4506 	br	25f6c <_malloc_r+0xa4>
   26258:	81000317 	ldw	r4,12(r16)
   2625c:	003f3906 	br	25f44 <_malloc_r+0x7c>
   26260:	14000317 	ldw	r16,12(r2)
   26264:	143f331e 	bne	r2,r16,25f34 <_malloc_r+0x6c>
   26268:	39c00084 	addi	r7,r7,2
   2626c:	003f6b06 	br	2601c <_malloc_r+0x154>
   26270:	1006d27a 	srli	r3,r2,9
   26274:	19000168 	cmpgeui	r4,r3,5
   26278:	20005026 	beq	r4,zero,263bc <_malloc_r+0x4f4>
   2627c:	19000568 	cmpgeui	r4,r3,21
   26280:	2000c01e 	bne	r4,zero,26584 <_malloc_r+0x6bc>
   26284:	19801704 	addi	r6,r3,92
   26288:	300c90fa 	slli	r6,r6,3
   2628c:	190016c4 	addi	r4,r3,91
   26290:	998d883a 	add	r6,r19,r6
   26294:	30c00017 	ldw	r3,0(r6)
   26298:	31bffe04 	addi	r6,r6,-8
   2629c:	30c0a926 	beq	r6,r3,26544 <_malloc_r+0x67c>
   262a0:	023fff04 	movi	r8,-4
   262a4:	00000206 	br	262b0 <_malloc_r+0x3e8>
   262a8:	18c00217 	ldw	r3,8(r3)
   262ac:	30c00326 	beq	r6,r3,262bc <_malloc_r+0x3f4>
   262b0:	19000117 	ldw	r4,4(r3)
   262b4:	2208703a 	and	r4,r4,r8
   262b8:	113ffb36 	bltu	r2,r4,262a8 <_malloc_r+0x3e0>
   262bc:	19800317 	ldw	r6,12(r3)
   262c0:	81800315 	stw	r6,12(r16)
   262c4:	80c00215 	stw	r3,8(r16)
   262c8:	34000215 	stw	r16,8(r6)
   262cc:	1c000315 	stw	r16,12(r3)
   262d0:	003f7106 	br	26098 <_malloc_r+0x1d0>
   262d4:	10c00568 	cmpgeui	r3,r2,21
   262d8:	18004926 	beq	r3,zero,26400 <_malloc_r+0x538>
   262dc:	10c01568 	cmpgeui	r3,r2,85
   262e0:	1800af1e 	bne	r3,zero,265a0 <_malloc_r+0x6d8>
   262e4:	8804d33a 	srli	r2,r17,12
   262e8:	11c01bc4 	addi	r7,r2,111
   262ec:	380890fa 	slli	r4,r7,3
   262f0:	12001b84 	addi	r8,r2,110
   262f4:	003f3806 	br	25fd8 <_malloc_r+0x110>
   262f8:	63000044 	addi	r12,r12,1
   262fc:	608000cc 	andi	r2,r12,3
   26300:	42000204 	addi	r8,r8,8
   26304:	103f791e 	bne	r2,zero,260ec <_malloc_r+0x224>
   26308:	00004406 	br	2641c <_malloc_r+0x554>
   2630c:	81000217 	ldw	r4,8(r16)
   26310:	89800054 	ori	r6,r17,1
   26314:	81800115 	stw	r6,4(r16)
   26318:	20800315 	stw	r2,12(r4)
   2631c:	11000215 	stw	r4,8(r2)
   26320:	8463883a 	add	r17,r16,r17
   26324:	9c400515 	stw	r17,20(r19)
   26328:	9c400415 	stw	r17,16(r19)
   2632c:	28800054 	ori	r2,r5,1
   26330:	88800115 	stw	r2,4(r17)
   26334:	8a400315 	stw	r9,12(r17)
   26338:	8a400215 	stw	r9,8(r17)
   2633c:	80c7883a 	add	r3,r16,r3
   26340:	19400015 	stw	r5,0(r3)
   26344:	9009883a 	mov	r4,r18
   26348:	002e1140 	call	2e114 <__malloc_unlock>
   2634c:	80800204 	addi	r2,r16,8
   26350:	003f0606 	br	25f6c <_malloc_r+0xa4>
   26354:	8085883a 	add	r2,r16,r2
   26358:	10c00117 	ldw	r3,4(r2)
   2635c:	9009883a 	mov	r4,r18
   26360:	18c00054 	ori	r3,r3,1
   26364:	10c00115 	stw	r3,4(r2)
   26368:	002e1140 	call	2e114 <__malloc_unlock>
   2636c:	80800204 	addi	r2,r16,8
   26370:	003efe06 	br	25f6c <_malloc_r+0xa4>
   26374:	880ed0fa 	srli	r7,r17,3
   26378:	88800204 	addi	r2,r17,8
   2637c:	003ee706 	br	25f1c <_malloc_r+0x54>
   26380:	89000054 	ori	r4,r17,1
   26384:	81000115 	stw	r4,4(r16)
   26388:	8463883a 	add	r17,r16,r17
   2638c:	9c400515 	stw	r17,20(r19)
   26390:	9c400415 	stw	r17,16(r19)
   26394:	19000054 	ori	r4,r3,1
   26398:	89000115 	stw	r4,4(r17)
   2639c:	8085883a 	add	r2,r16,r2
   263a0:	8a400315 	stw	r9,12(r17)
   263a4:	8a400215 	stw	r9,8(r17)
   263a8:	10c00015 	stw	r3,0(r2)
   263ac:	9009883a 	mov	r4,r18
   263b0:	002e1140 	call	2e114 <__malloc_unlock>
   263b4:	80800204 	addi	r2,r16,8
   263b8:	003eec06 	br	25f6c <_malloc_r+0xa4>
   263bc:	1006d1ba 	srli	r3,r2,6
   263c0:	19800e44 	addi	r6,r3,57
   263c4:	300c90fa 	slli	r6,r6,3
   263c8:	19000e04 	addi	r4,r3,56
   263cc:	003fb006 	br	26290 <_malloc_r+0x3c8>
   263d0:	84c02426 	beq	r16,r19,26464 <_malloc_r+0x59c>
   263d4:	9c000217 	ldw	r16,8(r19)
   263d8:	80c00117 	ldw	r3,4(r16)
   263dc:	00bfff04 	movi	r2,-4
   263e0:	1884703a 	and	r2,r3,r2
   263e4:	1447c83a 	sub	r3,r2,r17
   263e8:	14400236 	bltu	r2,r17,263f4 <_malloc_r+0x52c>
   263ec:	18800408 	cmpgei	r2,r3,16
   263f0:	103f8f1e 	bne	r2,zero,26230 <_malloc_r+0x368>
   263f4:	9009883a 	mov	r4,r18
   263f8:	002e1140 	call	2e114 <__malloc_unlock>
   263fc:	003f5206 	br	26148 <_malloc_r+0x280>
   26400:	11c01704 	addi	r7,r2,92
   26404:	380890fa 	slli	r4,r7,3
   26408:	120016c4 	addi	r8,r2,91
   2640c:	003ef206 	br	25fd8 <_malloc_r+0x110>
   26410:	58800217 	ldw	r2,8(r11)
   26414:	39ffffc4 	addi	r7,r7,-1
   26418:	12c0961e 	bne	r2,r11,26674 <_malloc_r+0x7ac>
   2641c:	388000cc 	andi	r2,r7,3
   26420:	5afffe04 	addi	r11,r11,-8
   26424:	103ffa1e 	bne	r2,zero,26410 <_malloc_r+0x548>
   26428:	98c00117 	ldw	r3,4(r19)
   2642c:	0104303a 	nor	r2,zero,r4
   26430:	10c4703a 	and	r2,r2,r3
   26434:	98800115 	stw	r2,4(r19)
   26438:	2109883a 	add	r4,r4,r4
   2643c:	113f4836 	bltu	r2,r4,26160 <_malloc_r+0x298>
   26440:	203f4726 	beq	r4,zero,26160 <_malloc_r+0x298>
   26444:	2086703a 	and	r3,r4,r2
   26448:	1800041e 	bne	r3,zero,2645c <_malloc_r+0x594>
   2644c:	2109883a 	add	r4,r4,r4
   26450:	2086703a 	and	r3,r4,r2
   26454:	63000104 	addi	r12,r12,4
   26458:	183ffc26 	beq	r3,zero,2644c <_malloc_r+0x584>
   2645c:	600f883a 	mov	r7,r12
   26460:	003f1e06 	br	260dc <_malloc_r+0x214>
   26464:	008000f4 	movhi	r2,3
   26468:	10d16c17 	ldw	r3,17840(r2)
   2646c:	a0c7883a 	add	r3,r20,r3
   26470:	10d16c15 	stw	r3,17840(r2)
   26474:	008000f4 	movhi	r2,3
   26478:	108a4317 	ldw	r2,10508(r2)
   2647c:	10bfffd8 	cmpnei	r2,r2,-1
   26480:	10004e26 	beq	r2,zero,265bc <_malloc_r+0x6f4>
   26484:	b5c5c83a 	sub	r2,r22,r23
   26488:	10c5883a 	add	r2,r2,r3
   2648c:	00c000f4 	movhi	r3,3
   26490:	18916c15 	stw	r2,17840(r3)
   26494:	b70001cc 	andi	fp,r22,7
   26498:	e0003026 	beq	fp,zero,2655c <_malloc_r+0x694>
   2649c:	b72dc83a 	sub	r22,r22,fp
   264a0:	b5800204 	addi	r22,r22,8
   264a4:	01040204 	movi	r4,4104
   264a8:	2709c83a 	sub	r4,r4,fp
   264ac:	b529883a 	add	r20,r22,r20
   264b0:	2509c83a 	sub	r4,r4,r20
   264b4:	25c3ffcc 	andi	r23,r4,4095
   264b8:	b80b883a 	mov	r5,r23
   264bc:	9009883a 	mov	r4,r18
   264c0:	00281b40 	call	281b4 <_sbrk_r>
   264c4:	10ffffe0 	cmpeqi	r3,r2,-1
   264c8:	1800501e 	bne	r3,zero,2660c <_malloc_r+0x744>
   264cc:	1585c83a 	sub	r2,r2,r22
   264d0:	15e9883a 	add	r20,r2,r23
   264d4:	008000f4 	movhi	r2,3
   264d8:	10916c17 	ldw	r2,17840(r2)
   264dc:	9d800215 	stw	r22,8(r19)
   264e0:	a0c00054 	ori	r3,r20,1
   264e4:	b889883a 	add	r4,r23,r2
   264e8:	008000f4 	movhi	r2,3
   264ec:	11116c15 	stw	r4,17840(r2)
   264f0:	b0c00115 	stw	r3,4(r22)
   264f4:	84ff4026 	beq	r16,r19,261f8 <_malloc_r+0x330>
   264f8:	a8800428 	cmpgeui	r2,r21,16
   264fc:	10003226 	beq	r2,zero,265c8 <_malloc_r+0x700>
   26500:	80800117 	ldw	r2,4(r16)
   26504:	017ffe04 	movi	r5,-8
   26508:	a8fffd04 	addi	r3,r21,-12
   2650c:	1946703a 	and	r3,r3,r5
   26510:	1080004c 	andi	r2,r2,1
   26514:	10c4b03a 	or	r2,r2,r3
   26518:	80800115 	stw	r2,4(r16)
   2651c:	01400144 	movi	r5,5
   26520:	80c5883a 	add	r2,r16,r3
   26524:	11400115 	stw	r5,4(r2)
   26528:	11400215 	stw	r5,8(r2)
   2652c:	18c00428 	cmpgeui	r3,r3,16
   26530:	18003b1e 	bne	r3,zero,26620 <_malloc_r+0x758>
   26534:	b0c00117 	ldw	r3,4(r22)
   26538:	003f2f06 	br	261f8 <_malloc_r+0x330>
   2653c:	a5000404 	addi	r20,r20,16
   26540:	003f1a06 	br	261ac <_malloc_r+0x2e4>
   26544:	2009d0ba 	srai	r4,r4,2
   26548:	00800044 	movi	r2,1
   2654c:	1104983a 	sll	r2,r2,r4
   26550:	288ab03a 	or	r5,r5,r2
   26554:	99400115 	stw	r5,4(r19)
   26558:	003f5906 	br	262c0 <_malloc_r+0x3f8>
   2655c:	b509883a 	add	r4,r22,r20
   26560:	0109c83a 	sub	r4,zero,r4
   26564:	25c3ffcc 	andi	r23,r4,4095
   26568:	b80b883a 	mov	r5,r23
   2656c:	9009883a 	mov	r4,r18
   26570:	00281b40 	call	281b4 <_sbrk_r>
   26574:	10ffffe0 	cmpeqi	r3,r2,-1
   26578:	183fd426 	beq	r3,zero,264cc <_malloc_r+0x604>
   2657c:	002f883a 	mov	r23,zero
   26580:	003fd406 	br	264d4 <_malloc_r+0x60c>
   26584:	19001568 	cmpgeui	r4,r3,85
   26588:	2000121e 	bne	r4,zero,265d4 <_malloc_r+0x70c>
   2658c:	1006d33a 	srli	r3,r2,12
   26590:	19801bc4 	addi	r6,r3,111
   26594:	300c90fa 	slli	r6,r6,3
   26598:	19001b84 	addi	r4,r3,110
   2659c:	003f3c06 	br	26290 <_malloc_r+0x3c8>
   265a0:	10c05568 	cmpgeui	r3,r2,341
   265a4:	1800121e 	bne	r3,zero,265f0 <_malloc_r+0x728>
   265a8:	8804d3fa 	srli	r2,r17,15
   265ac:	11c01e04 	addi	r7,r2,120
   265b0:	380890fa 	slli	r4,r7,3
   265b4:	12001dc4 	addi	r8,r2,119
   265b8:	003e8706 	br	25fd8 <_malloc_r+0x110>
   265bc:	008000f4 	movhi	r2,3
   265c0:	158a4315 	stw	r22,10508(r2)
   265c4:	003fb306 	br	26494 <_malloc_r+0x5cc>
   265c8:	00800044 	movi	r2,1
   265cc:	b0800115 	stw	r2,4(r22)
   265d0:	003f8806 	br	263f4 <_malloc_r+0x52c>
   265d4:	19005568 	cmpgeui	r4,r3,341
   265d8:	2000181e 	bne	r4,zero,2663c <_malloc_r+0x774>
   265dc:	1006d3fa 	srli	r3,r2,15
   265e0:	19801e04 	addi	r6,r3,120
   265e4:	300c90fa 	slli	r6,r6,3
   265e8:	19001dc4 	addi	r4,r3,119
   265ec:	003f2806 	br	26290 <_malloc_r+0x3c8>
   265f0:	10815568 	cmpgeui	r2,r2,1365
   265f4:	1000181e 	bne	r2,zero,26658 <_malloc_r+0x790>
   265f8:	8804d4ba 	srli	r2,r17,18
   265fc:	11c01f44 	addi	r7,r2,125
   26600:	380890fa 	slli	r4,r7,3
   26604:	12001f04 	addi	r8,r2,124
   26608:	003e7306 	br	25fd8 <_malloc_r+0x110>
   2660c:	e73ffe04 	addi	fp,fp,-8
   26610:	a729883a 	add	r20,r20,fp
   26614:	a5a9c83a 	sub	r20,r20,r22
   26618:	002f883a 	mov	r23,zero
   2661c:	003fad06 	br	264d4 <_malloc_r+0x60c>
   26620:	9009883a 	mov	r4,r18
   26624:	81400204 	addi	r5,r16,8
   26628:	00253900 	call	25390 <_free_r>
   2662c:	008000f4 	movhi	r2,3
   26630:	9d800217 	ldw	r22,8(r19)
   26634:	11116c17 	ldw	r4,17840(r2)
   26638:	003fbe06 	br	26534 <_malloc_r+0x66c>
   2663c:	18c15568 	cmpgeui	r3,r3,1365
   26640:	1800091e 	bne	r3,zero,26668 <_malloc_r+0x7a0>
   26644:	1006d4ba 	srli	r3,r2,18
   26648:	19801f44 	addi	r6,r3,125
   2664c:	300c90fa 	slli	r6,r6,3
   26650:	19001f04 	addi	r4,r3,124
   26654:	003f0e06 	br	26290 <_malloc_r+0x3c8>
   26658:	0100fe04 	movi	r4,1016
   2665c:	01c01fc4 	movi	r7,127
   26660:	02001f84 	movi	r8,126
   26664:	003e5c06 	br	25fd8 <_malloc_r+0x110>
   26668:	0180fe04 	movi	r6,1016
   2666c:	01001f84 	movi	r4,126
   26670:	003f0706 	br	26290 <_malloc_r+0x3c8>
   26674:	98800117 	ldw	r2,4(r19)
   26678:	003f6f06 	br	26438 <_malloc_r+0x570>

0002667c <memchr>:
   2667c:	208000cc 	andi	r2,r4,3
   26680:	280f883a 	mov	r7,r5
   26684:	10000e26 	beq	r2,zero,266c0 <memchr+0x44>
   26688:	30bfffc4 	addi	r2,r6,-1
   2668c:	30001726 	beq	r6,zero,266ec <memchr+0x70>
   26690:	29803fcc 	andi	r6,r5,255
   26694:	00000606 	br	266b0 <memchr+0x34>
   26698:	21000044 	addi	r4,r4,1
   2669c:	20c000cc 	andi	r3,r4,3
   266a0:	18000826 	beq	r3,zero,266c4 <memchr+0x48>
   266a4:	10bfffc4 	addi	r2,r2,-1
   266a8:	10ffffe0 	cmpeqi	r3,r2,-1
   266ac:	18000f1e 	bne	r3,zero,266ec <memchr+0x70>
   266b0:	20c00003 	ldbu	r3,0(r4)
   266b4:	19bff81e 	bne	r3,r6,26698 <memchr+0x1c>
   266b8:	2005883a 	mov	r2,r4
   266bc:	f800283a 	ret
   266c0:	3005883a 	mov	r2,r6
   266c4:	10c00130 	cmpltui	r3,r2,4
   266c8:	18000a26 	beq	r3,zero,266f4 <memchr+0x78>
   266cc:	10001e26 	beq	r2,zero,26748 <memchr+0xcc>
   266d0:	2087883a 	add	r3,r4,r2
   266d4:	39803fcc 	andi	r6,r7,255
   266d8:	2005883a 	mov	r2,r4
   266dc:	11000003 	ldbu	r4,0(r2)
   266e0:	21bff626 	beq	r4,r6,266bc <memchr+0x40>
   266e4:	10800044 	addi	r2,r2,1
   266e8:	18bffc1e 	bne	r3,r2,266dc <memchr+0x60>
   266ec:	0005883a 	mov	r2,zero
   266f0:	f800283a 	ret
   266f4:	00c04074 	movhi	r3,257
   266f8:	29403fcc 	andi	r5,r5,255
   266fc:	18c04044 	addi	r3,r3,257
   26700:	027fbff4 	movhi	r9,65279
   26704:	02202074 	movhi	r8,32897
   26708:	28cd383a 	mul	r6,r5,r3
   2670c:	4a7fbfc4 	addi	r9,r9,-257
   26710:	42202004 	addi	r8,r8,-32640
   26714:	00000406 	br	26728 <memchr+0xac>
   26718:	10bfff04 	addi	r2,r2,-4
   2671c:	10c00128 	cmpgeui	r3,r2,4
   26720:	21000104 	addi	r4,r4,4
   26724:	183fe926 	beq	r3,zero,266cc <memchr+0x50>
   26728:	20c00017 	ldw	r3,0(r4)
   2672c:	30c6f03a 	xor	r3,r6,r3
   26730:	1a4b883a 	add	r5,r3,r9
   26734:	00c6303a 	nor	r3,zero,r3
   26738:	28c6703a 	and	r3,r5,r3
   2673c:	1a06703a 	and	r3,r3,r8
   26740:	183ff526 	beq	r3,zero,26718 <memchr+0x9c>
   26744:	003fe106 	br	266cc <memchr+0x50>
   26748:	f800283a 	ret

0002674c <memcpy>:
   2674c:	30c00428 	cmpgeui	r3,r6,16
   26750:	2005883a 	mov	r2,r4
   26754:	18000b1e 	bne	r3,zero,26784 <memcpy+0x38>
   26758:	2007883a 	mov	r3,r4
   2675c:	31ffffc4 	addi	r7,r6,-1
   26760:	30003426 	beq	r6,zero,26834 <memcpy+0xe8>
   26764:	39c00044 	addi	r7,r7,1
   26768:	19cf883a 	add	r7,r3,r7
   2676c:	29800003 	ldbu	r6,0(r5)
   26770:	18c00044 	addi	r3,r3,1
   26774:	29400044 	addi	r5,r5,1
   26778:	19bfffc5 	stb	r6,-1(r3)
   2677c:	38fffb1e 	bne	r7,r3,2676c <memcpy+0x20>
   26780:	f800283a 	ret
   26784:	2146b03a 	or	r3,r4,r5
   26788:	18c000cc 	andi	r3,r3,3
   2678c:	18002a1e 	bne	r3,zero,26838 <memcpy+0xec>
   26790:	333ffc04 	addi	r12,r6,-16
   26794:	6018d13a 	srli	r12,r12,4
   26798:	2811883a 	mov	r8,r5
   2679c:	200f883a 	mov	r7,r4
   267a0:	63000044 	addi	r12,r12,1
   267a4:	6018913a 	slli	r12,r12,4
   267a8:	2307883a 	add	r3,r4,r12
   267ac:	42c00017 	ldw	r11,0(r8)
   267b0:	42800117 	ldw	r10,4(r8)
   267b4:	42400217 	ldw	r9,8(r8)
   267b8:	41000317 	ldw	r4,12(r8)
   267bc:	39c00404 	addi	r7,r7,16
   267c0:	3afffc15 	stw	r11,-16(r7)
   267c4:	3abffd15 	stw	r10,-12(r7)
   267c8:	3a7ffe15 	stw	r9,-8(r7)
   267cc:	393fff15 	stw	r4,-4(r7)
   267d0:	42000404 	addi	r8,r8,16
   267d4:	38fff51e 	bne	r7,r3,267ac <memcpy+0x60>
   267d8:	3100030c 	andi	r4,r6,12
   267dc:	2b0b883a 	add	r5,r5,r12
   267e0:	324003cc 	andi	r9,r6,15
   267e4:	20001726 	beq	r4,zero,26844 <memcpy+0xf8>
   267e8:	2811883a 	mov	r8,r5
   267ec:	1809883a 	mov	r4,r3
   267f0:	1a57883a 	add	r11,r3,r9
   267f4:	42800017 	ldw	r10,0(r8)
   267f8:	21000104 	addi	r4,r4,4
   267fc:	590fc83a 	sub	r7,r11,r4
   26800:	39c00128 	cmpgeui	r7,r7,4
   26804:	22bfff15 	stw	r10,-4(r4)
   26808:	42000104 	addi	r8,r8,4
   2680c:	383ff91e 	bne	r7,zero,267f4 <memcpy+0xa8>
   26810:	493fff04 	addi	r4,r9,-4
   26814:	2008d0ba 	srli	r4,r4,2
   26818:	318000cc 	andi	r6,r6,3
   2681c:	31ffffc4 	addi	r7,r6,-1
   26820:	21000044 	addi	r4,r4,1
   26824:	200890ba 	slli	r4,r4,2
   26828:	1907883a 	add	r3,r3,r4
   2682c:	290b883a 	add	r5,r5,r4
   26830:	303fcc1e 	bne	r6,zero,26764 <memcpy+0x18>
   26834:	f800283a 	ret
   26838:	31ffffc4 	addi	r7,r6,-1
   2683c:	2007883a 	mov	r3,r4
   26840:	003fc806 	br	26764 <memcpy+0x18>
   26844:	480d883a 	mov	r6,r9
   26848:	003fc406 	br	2675c <memcpy+0x10>

0002684c <memmove>:
   2684c:	2005883a 	mov	r2,r4
   26850:	29000a2e 	bgeu	r5,r4,2687c <memmove+0x30>
   26854:	298f883a 	add	r7,r5,r6
   26858:	21c0082e 	bgeu	r4,r7,2687c <memmove+0x30>
   2685c:	2187883a 	add	r3,r4,r6
   26860:	30001226 	beq	r6,zero,268ac <memmove+0x60>
   26864:	397fffc3 	ldbu	r5,-1(r7)
   26868:	18ffffc4 	addi	r3,r3,-1
   2686c:	39ffffc4 	addi	r7,r7,-1
   26870:	19400005 	stb	r5,0(r3)
   26874:	10fffb1e 	bne	r2,r3,26864 <memmove+0x18>
   26878:	f800283a 	ret
   2687c:	30c00428 	cmpgeui	r3,r6,16
   26880:	18000b1e 	bne	r3,zero,268b0 <memmove+0x64>
   26884:	1007883a 	mov	r3,r2
   26888:	31ffffc4 	addi	r7,r6,-1
   2688c:	30003626 	beq	r6,zero,26968 <memmove+0x11c>
   26890:	39c00044 	addi	r7,r7,1
   26894:	19cf883a 	add	r7,r3,r7
   26898:	29800003 	ldbu	r6,0(r5)
   2689c:	18c00044 	addi	r3,r3,1
   268a0:	29400044 	addi	r5,r5,1
   268a4:	19bfffc5 	stb	r6,-1(r3)
   268a8:	19fffb1e 	bne	r3,r7,26898 <memmove+0x4c>
   268ac:	f800283a 	ret
   268b0:	1146b03a 	or	r3,r2,r5
   268b4:	18c000cc 	andi	r3,r3,3
   268b8:	1800281e 	bne	r3,zero,2695c <memmove+0x110>
   268bc:	313ffc04 	addi	r4,r6,-16
   268c0:	2008d13a 	srli	r4,r4,4
   268c4:	2811883a 	mov	r8,r5
   268c8:	100f883a 	mov	r7,r2
   268cc:	21000044 	addi	r4,r4,1
   268d0:	2008913a 	slli	r4,r4,4
   268d4:	1107883a 	add	r3,r2,r4
   268d8:	42400017 	ldw	r9,0(r8)
   268dc:	42000404 	addi	r8,r8,16
   268e0:	39c00404 	addi	r7,r7,16
   268e4:	3a7ffc15 	stw	r9,-16(r7)
   268e8:	427ffd17 	ldw	r9,-12(r8)
   268ec:	3a7ffd15 	stw	r9,-12(r7)
   268f0:	427ffe17 	ldw	r9,-8(r8)
   268f4:	3a7ffe15 	stw	r9,-8(r7)
   268f8:	427fff17 	ldw	r9,-4(r8)
   268fc:	3a7fff15 	stw	r9,-4(r7)
   26900:	38fff51e 	bne	r7,r3,268d8 <memmove+0x8c>
   26904:	31c0030c 	andi	r7,r6,12
   26908:	290b883a 	add	r5,r5,r4
   2690c:	324003cc 	andi	r9,r6,15
   26910:	38001626 	beq	r7,zero,2696c <memmove+0x120>
   26914:	2809883a 	mov	r4,r5
   26918:	180f883a 	mov	r7,r3
   2691c:	1a57883a 	add	r11,r3,r9
   26920:	22800017 	ldw	r10,0(r4)
   26924:	39c00104 	addi	r7,r7,4
   26928:	59d1c83a 	sub	r8,r11,r7
   2692c:	42000128 	cmpgeui	r8,r8,4
   26930:	3abfff15 	stw	r10,-4(r7)
   26934:	21000104 	addi	r4,r4,4
   26938:	403ff91e 	bne	r8,zero,26920 <memmove+0xd4>
   2693c:	493fff04 	addi	r4,r9,-4
   26940:	2008d0ba 	srli	r4,r4,2
   26944:	318000cc 	andi	r6,r6,3
   26948:	21000044 	addi	r4,r4,1
   2694c:	200890ba 	slli	r4,r4,2
   26950:	1907883a 	add	r3,r3,r4
   26954:	290b883a 	add	r5,r5,r4
   26958:	003fcb06 	br	26888 <memmove+0x3c>
   2695c:	31ffffc4 	addi	r7,r6,-1
   26960:	1007883a 	mov	r3,r2
   26964:	003fca06 	br	26890 <memmove+0x44>
   26968:	f800283a 	ret
   2696c:	480d883a 	mov	r6,r9
   26970:	003fc506 	br	26888 <memmove+0x3c>

00026974 <memset>:
   26974:	20c000cc 	andi	r3,r4,3
   26978:	2005883a 	mov	r2,r4
   2697c:	18003626 	beq	r3,zero,26a58 <memset+0xe4>
   26980:	31ffffc4 	addi	r7,r6,-1
   26984:	30003226 	beq	r6,zero,26a50 <memset+0xdc>
   26988:	2811883a 	mov	r8,r5
   2698c:	2007883a 	mov	r3,r4
   26990:	00000306 	br	269a0 <memset+0x2c>
   26994:	39ffffc4 	addi	r7,r7,-1
   26998:	39bfffe0 	cmpeqi	r6,r7,-1
   2699c:	30002c1e 	bne	r6,zero,26a50 <memset+0xdc>
   269a0:	18c00044 	addi	r3,r3,1
   269a4:	198000cc 	andi	r6,r3,3
   269a8:	1a3fffc5 	stb	r8,-1(r3)
   269ac:	303ff91e 	bne	r6,zero,26994 <memset+0x20>
   269b0:	39000128 	cmpgeui	r4,r7,4
   269b4:	20002126 	beq	r4,zero,26a3c <memset+0xc8>
   269b8:	02004074 	movhi	r8,257
   269bc:	29803fcc 	andi	r6,r5,255
   269c0:	42004044 	addi	r8,r8,257
   269c4:	39000430 	cmpltui	r4,r7,16
   269c8:	320d383a 	mul	r6,r6,r8
   269cc:	2000251e 	bne	r4,zero,26a64 <memset+0xf0>
   269d0:	393ffc04 	addi	r4,r7,-16
   269d4:	2008d13a 	srli	r4,r4,4
   269d8:	21000044 	addi	r4,r4,1
   269dc:	2008913a 	slli	r4,r4,4
   269e0:	1909883a 	add	r4,r3,r4
   269e4:	19800015 	stw	r6,0(r3)
   269e8:	19800115 	stw	r6,4(r3)
   269ec:	19800215 	stw	r6,8(r3)
   269f0:	19800315 	stw	r6,12(r3)
   269f4:	18c00404 	addi	r3,r3,16
   269f8:	193ffa1e 	bne	r3,r4,269e4 <memset+0x70>
   269fc:	3a00030c 	andi	r8,r7,12
   26a00:	39c003cc 	andi	r7,r7,15
   26a04:	40000d26 	beq	r8,zero,26a3c <memset+0xc8>
   26a08:	2007883a 	mov	r3,r4
   26a0c:	21d3883a 	add	r9,r4,r7
   26a10:	18c00104 	addi	r3,r3,4
   26a14:	48d1c83a 	sub	r8,r9,r3
   26a18:	42000128 	cmpgeui	r8,r8,4
   26a1c:	19bfff15 	stw	r6,-4(r3)
   26a20:	403ffb1e 	bne	r8,zero,26a10 <memset+0x9c>
   26a24:	38ffff04 	addi	r3,r7,-4
   26a28:	1806d0ba 	srli	r3,r3,2
   26a2c:	39c000cc 	andi	r7,r7,3
   26a30:	18c00044 	addi	r3,r3,1
   26a34:	180690ba 	slli	r3,r3,2
   26a38:	20c7883a 	add	r3,r4,r3
   26a3c:	38000526 	beq	r7,zero,26a54 <memset+0xe0>
   26a40:	19cf883a 	add	r7,r3,r7
   26a44:	18c00044 	addi	r3,r3,1
   26a48:	197fffc5 	stb	r5,-1(r3)
   26a4c:	38fffd1e 	bne	r7,r3,26a44 <memset+0xd0>
   26a50:	f800283a 	ret
   26a54:	f800283a 	ret
   26a58:	2007883a 	mov	r3,r4
   26a5c:	300f883a 	mov	r7,r6
   26a60:	003fd306 	br	269b0 <memset+0x3c>
   26a64:	1809883a 	mov	r4,r3
   26a68:	003fe706 	br	26a08 <memset+0x94>

00026a6c <_Balloc>:
   26a6c:	20801317 	ldw	r2,76(r4)
   26a70:	defffc04 	addi	sp,sp,-16
   26a74:	dc400115 	stw	r17,4(sp)
   26a78:	dc000015 	stw	r16,0(sp)
   26a7c:	dfc00315 	stw	ra,12(sp)
   26a80:	dc800215 	stw	r18,8(sp)
   26a84:	2021883a 	mov	r16,r4
   26a88:	2823883a 	mov	r17,r5
   26a8c:	10000e26 	beq	r2,zero,26ac8 <_Balloc+0x5c>
   26a90:	880690ba 	slli	r3,r17,2
   26a94:	10c7883a 	add	r3,r2,r3
   26a98:	18800017 	ldw	r2,0(r3)
   26a9c:	10001126 	beq	r2,zero,26ae4 <_Balloc+0x78>
   26aa0:	11000017 	ldw	r4,0(r2)
   26aa4:	19000015 	stw	r4,0(r3)
   26aa8:	10000415 	stw	zero,16(r2)
   26aac:	10000315 	stw	zero,12(r2)
   26ab0:	dfc00317 	ldw	ra,12(sp)
   26ab4:	dc800217 	ldw	r18,8(sp)
   26ab8:	dc400117 	ldw	r17,4(sp)
   26abc:	dc000017 	ldw	r16,0(sp)
   26ac0:	dec00404 	addi	sp,sp,16
   26ac4:	f800283a 	ret
   26ac8:	01800844 	movi	r6,33
   26acc:	01400104 	movi	r5,4
   26ad0:	00298dc0 	call	298dc <_calloc_r>
   26ad4:	80801315 	stw	r2,76(r16)
   26ad8:	103fed1e 	bne	r2,zero,26a90 <_Balloc+0x24>
   26adc:	0005883a 	mov	r2,zero
   26ae0:	003ff306 	br	26ab0 <_Balloc+0x44>
   26ae4:	04800044 	movi	r18,1
   26ae8:	9464983a 	sll	r18,r18,r17
   26aec:	01400044 	movi	r5,1
   26af0:	8009883a 	mov	r4,r16
   26af4:	91800144 	addi	r6,r18,5
   26af8:	300c90ba 	slli	r6,r6,2
   26afc:	00298dc0 	call	298dc <_calloc_r>
   26b00:	103ff626 	beq	r2,zero,26adc <_Balloc+0x70>
   26b04:	14400115 	stw	r17,4(r2)
   26b08:	14800215 	stw	r18,8(r2)
   26b0c:	003fe606 	br	26aa8 <_Balloc+0x3c>

00026b10 <_Bfree>:
   26b10:	28000726 	beq	r5,zero,26b30 <_Bfree+0x20>
   26b14:	28c00117 	ldw	r3,4(r5)
   26b18:	20801317 	ldw	r2,76(r4)
   26b1c:	180690ba 	slli	r3,r3,2
   26b20:	10c5883a 	add	r2,r2,r3
   26b24:	10c00017 	ldw	r3,0(r2)
   26b28:	28c00015 	stw	r3,0(r5)
   26b2c:	11400015 	stw	r5,0(r2)
   26b30:	f800283a 	ret

00026b34 <__multadd>:
   26b34:	defffa04 	addi	sp,sp,-24
   26b38:	dc400115 	stw	r17,4(sp)
   26b3c:	2c400417 	ldw	r17,16(r5)
   26b40:	dcc00315 	stw	r19,12(sp)
   26b44:	dc800215 	stw	r18,8(sp)
   26b48:	dc000015 	stw	r16,0(sp)
   26b4c:	dfc00515 	stw	ra,20(sp)
   26b50:	dd000415 	stw	r20,16(sp)
   26b54:	2825883a 	mov	r18,r5
   26b58:	2027883a 	mov	r19,r4
   26b5c:	3821883a 	mov	r16,r7
   26b60:	2a400504 	addi	r9,r5,20
   26b64:	0015883a 	mov	r10,zero
   26b68:	48c00017 	ldw	r3,0(r9)
   26b6c:	4a400104 	addi	r9,r9,4
   26b70:	52800044 	addi	r10,r10,1
   26b74:	1a3fffcc 	andi	r8,r3,65535
   26b78:	4191383a 	mul	r8,r8,r6
   26b7c:	180ed43a 	srli	r7,r3,16
   26b80:	4407883a 	add	r3,r8,r16
   26b84:	1810d43a 	srli	r8,r3,16
   26b88:	398f383a 	mul	r7,r7,r6
   26b8c:	18ffffcc 	andi	r3,r3,65535
   26b90:	3a0f883a 	add	r7,r7,r8
   26b94:	3810943a 	slli	r8,r7,16
   26b98:	3820d43a 	srli	r16,r7,16
   26b9c:	40c7883a 	add	r3,r8,r3
   26ba0:	48ffff15 	stw	r3,-4(r9)
   26ba4:	547ff016 	blt	r10,r17,26b68 <__multadd+0x34>
   26ba8:	80000826 	beq	r16,zero,26bcc <__multadd+0x98>
   26bac:	90800217 	ldw	r2,8(r18)
   26bb0:	88800f0e 	bge	r17,r2,26bf0 <__multadd+0xbc>
   26bb4:	88800144 	addi	r2,r17,5
   26bb8:	100490ba 	slli	r2,r2,2
   26bbc:	8c400044 	addi	r17,r17,1
   26bc0:	9085883a 	add	r2,r18,r2
   26bc4:	14000015 	stw	r16,0(r2)
   26bc8:	94400415 	stw	r17,16(r18)
   26bcc:	9005883a 	mov	r2,r18
   26bd0:	dfc00517 	ldw	ra,20(sp)
   26bd4:	dd000417 	ldw	r20,16(sp)
   26bd8:	dcc00317 	ldw	r19,12(sp)
   26bdc:	dc800217 	ldw	r18,8(sp)
   26be0:	dc400117 	ldw	r17,4(sp)
   26be4:	dc000017 	ldw	r16,0(sp)
   26be8:	dec00604 	addi	sp,sp,24
   26bec:	f800283a 	ret
   26bf0:	91400117 	ldw	r5,4(r18)
   26bf4:	9809883a 	mov	r4,r19
   26bf8:	29400044 	addi	r5,r5,1
   26bfc:	0026a6c0 	call	26a6c <_Balloc>
   26c00:	1029883a 	mov	r20,r2
   26c04:	10001026 	beq	r2,zero,26c48 <__multadd+0x114>
   26c08:	91800417 	ldw	r6,16(r18)
   26c0c:	91400304 	addi	r5,r18,12
   26c10:	11000304 	addi	r4,r2,12
   26c14:	31800084 	addi	r6,r6,2
   26c18:	300c90ba 	slli	r6,r6,2
   26c1c:	002674c0 	call	2674c <memcpy>
   26c20:	90000726 	beq	r18,zero,26c40 <__multadd+0x10c>
   26c24:	90c00117 	ldw	r3,4(r18)
   26c28:	98801317 	ldw	r2,76(r19)
   26c2c:	180690ba 	slli	r3,r3,2
   26c30:	10c5883a 	add	r2,r2,r3
   26c34:	10c00017 	ldw	r3,0(r2)
   26c38:	90c00015 	stw	r3,0(r18)
   26c3c:	14800015 	stw	r18,0(r2)
   26c40:	a025883a 	mov	r18,r20
   26c44:	003fdb06 	br	26bb4 <__multadd+0x80>
   26c48:	01c000f4 	movhi	r7,3
   26c4c:	010000f4 	movhi	r4,3
   26c50:	39c1c304 	addi	r7,r7,1804
   26c54:	000d883a 	mov	r6,zero
   26c58:	01402d44 	movi	r5,181
   26c5c:	2101d704 	addi	r4,r4,1884
   26c60:	00298640 	call	29864 <__assert_func>

00026c64 <__s2b>:
   26c64:	defff904 	addi	sp,sp,-28
   26c68:	dc800215 	stw	r18,8(sp)
   26c6c:	dc000015 	stw	r16,0(sp)
   26c70:	2025883a 	mov	r18,r4
   26c74:	2821883a 	mov	r16,r5
   26c78:	39000204 	addi	r4,r7,8
   26c7c:	01400244 	movi	r5,9
   26c80:	dcc00315 	stw	r19,12(sp)
   26c84:	dc400115 	stw	r17,4(sp)
   26c88:	dfc00615 	stw	ra,24(sp)
   26c8c:	3823883a 	mov	r17,r7
   26c90:	dd400515 	stw	r21,20(sp)
   26c94:	dd000415 	stw	r20,16(sp)
   26c98:	3027883a 	mov	r19,r6
   26c9c:	00208b80 	call	208b8 <__divsi3>
   26ca0:	88c00290 	cmplti	r3,r17,10
   26ca4:	1800341e 	bne	r3,zero,26d78 <__s2b+0x114>
   26ca8:	00c00044 	movi	r3,1
   26cac:	000b883a 	mov	r5,zero
   26cb0:	18c7883a 	add	r3,r3,r3
   26cb4:	29400044 	addi	r5,r5,1
   26cb8:	18bffd16 	blt	r3,r2,26cb0 <__s2b+0x4c>
   26cbc:	9009883a 	mov	r4,r18
   26cc0:	0026a6c0 	call	26a6c <_Balloc>
   26cc4:	100b883a 	mov	r5,r2
   26cc8:	10002d26 	beq	r2,zero,26d80 <__s2b+0x11c>
   26ccc:	d8800717 	ldw	r2,28(sp)
   26cd0:	28800515 	stw	r2,20(r5)
   26cd4:	00800044 	movi	r2,1
   26cd8:	28800415 	stw	r2,16(r5)
   26cdc:	98800290 	cmplti	r2,r19,10
   26ce0:	1000221e 	bne	r2,zero,26d6c <__s2b+0x108>
   26ce4:	85400244 	addi	r21,r16,9
   26ce8:	a829883a 	mov	r20,r21
   26cec:	84e1883a 	add	r16,r16,r19
   26cf0:	a1c00007 	ldb	r7,0(r20)
   26cf4:	01800284 	movi	r6,10
   26cf8:	9009883a 	mov	r4,r18
   26cfc:	39fff404 	addi	r7,r7,-48
   26d00:	0026b340 	call	26b34 <__multadd>
   26d04:	a5000044 	addi	r20,r20,1
   26d08:	100b883a 	mov	r5,r2
   26d0c:	a43ff81e 	bne	r20,r16,26cf0 <__s2b+0x8c>
   26d10:	9c3ffe04 	addi	r16,r19,-8
   26d14:	ac21883a 	add	r16,r21,r16
   26d18:	9c400a0e 	bge	r19,r17,26d44 <__s2b+0xe0>
   26d1c:	8ce3c83a 	sub	r17,r17,r19
   26d20:	8463883a 	add	r17,r16,r17
   26d24:	81c00007 	ldb	r7,0(r16)
   26d28:	01800284 	movi	r6,10
   26d2c:	9009883a 	mov	r4,r18
   26d30:	39fff404 	addi	r7,r7,-48
   26d34:	0026b340 	call	26b34 <__multadd>
   26d38:	84000044 	addi	r16,r16,1
   26d3c:	100b883a 	mov	r5,r2
   26d40:	8c3ff81e 	bne	r17,r16,26d24 <__s2b+0xc0>
   26d44:	2805883a 	mov	r2,r5
   26d48:	dfc00617 	ldw	ra,24(sp)
   26d4c:	dd400517 	ldw	r21,20(sp)
   26d50:	dd000417 	ldw	r20,16(sp)
   26d54:	dcc00317 	ldw	r19,12(sp)
   26d58:	dc800217 	ldw	r18,8(sp)
   26d5c:	dc400117 	ldw	r17,4(sp)
   26d60:	dc000017 	ldw	r16,0(sp)
   26d64:	dec00704 	addi	sp,sp,28
   26d68:	f800283a 	ret
   26d6c:	84000284 	addi	r16,r16,10
   26d70:	04c00244 	movi	r19,9
   26d74:	003fe806 	br	26d18 <__s2b+0xb4>
   26d78:	000b883a 	mov	r5,zero
   26d7c:	003fcf06 	br	26cbc <__s2b+0x58>
   26d80:	01c000f4 	movhi	r7,3
   26d84:	010000f4 	movhi	r4,3
   26d88:	39c1c304 	addi	r7,r7,1804
   26d8c:	000d883a 	mov	r6,zero
   26d90:	01403384 	movi	r5,206
   26d94:	2101d704 	addi	r4,r4,1884
   26d98:	00298640 	call	29864 <__assert_func>

00026d9c <__hi0bits>:
   26d9c:	00bfffd4 	movui	r2,65535
   26da0:	11001536 	bltu	r2,r4,26df8 <__hi0bits+0x5c>
   26da4:	2008943a 	slli	r4,r4,16
   26da8:	00800404 	movi	r2,16
   26dac:	00c04034 	movhi	r3,256
   26db0:	20c0022e 	bgeu	r4,r3,26dbc <__hi0bits+0x20>
   26db4:	2008923a 	slli	r4,r4,8
   26db8:	10800204 	addi	r2,r2,8
   26dbc:	00c40034 	movhi	r3,4096
   26dc0:	20c0022e 	bgeu	r4,r3,26dcc <__hi0bits+0x30>
   26dc4:	2008913a 	slli	r4,r4,4
   26dc8:	10800104 	addi	r2,r2,4
   26dcc:	00d00034 	movhi	r3,16384
   26dd0:	20c00336 	bltu	r4,r3,26de0 <__hi0bits+0x44>
   26dd4:	20000716 	blt	r4,zero,26df4 <__hi0bits+0x58>
   26dd8:	10800044 	addi	r2,r2,1
   26ddc:	f800283a 	ret
   26de0:	200890ba 	slli	r4,r4,2
   26de4:	20000616 	blt	r4,zero,26e00 <__hi0bits+0x64>
   26de8:	2110002c 	andhi	r4,r4,16384
   26dec:	2000061e 	bne	r4,zero,26e08 <__hi0bits+0x6c>
   26df0:	00800804 	movi	r2,32
   26df4:	f800283a 	ret
   26df8:	0005883a 	mov	r2,zero
   26dfc:	003feb06 	br	26dac <__hi0bits+0x10>
   26e00:	10800084 	addi	r2,r2,2
   26e04:	f800283a 	ret
   26e08:	108000c4 	addi	r2,r2,3
   26e0c:	f800283a 	ret

00026e10 <__lo0bits>:
   26e10:	20c00017 	ldw	r3,0(r4)
   26e14:	188001cc 	andi	r2,r3,7
   26e18:	10000826 	beq	r2,zero,26e3c <__lo0bits+0x2c>
   26e1c:	1880004c 	andi	r2,r3,1
   26e20:	10001f1e 	bne	r2,zero,26ea0 <__lo0bits+0x90>
   26e24:	1880008c 	andi	r2,r3,2
   26e28:	10002126 	beq	r2,zero,26eb0 <__lo0bits+0xa0>
   26e2c:	1806d07a 	srli	r3,r3,1
   26e30:	00800044 	movi	r2,1
   26e34:	20c00015 	stw	r3,0(r4)
   26e38:	f800283a 	ret
   26e3c:	18bfffcc 	andi	r2,r3,65535
   26e40:	10001426 	beq	r2,zero,26e94 <__lo0bits+0x84>
   26e44:	0005883a 	mov	r2,zero
   26e48:	19403fcc 	andi	r5,r3,255
   26e4c:	2800021e 	bne	r5,zero,26e58 <__lo0bits+0x48>
   26e50:	1806d23a 	srli	r3,r3,8
   26e54:	10800204 	addi	r2,r2,8
   26e58:	194003cc 	andi	r5,r3,15
   26e5c:	2800021e 	bne	r5,zero,26e68 <__lo0bits+0x58>
   26e60:	1806d13a 	srli	r3,r3,4
   26e64:	10800104 	addi	r2,r2,4
   26e68:	194000cc 	andi	r5,r3,3
   26e6c:	2800021e 	bne	r5,zero,26e78 <__lo0bits+0x68>
   26e70:	1806d0ba 	srli	r3,r3,2
   26e74:	10800084 	addi	r2,r2,2
   26e78:	1940004c 	andi	r5,r3,1
   26e7c:	2800031e 	bne	r5,zero,26e8c <__lo0bits+0x7c>
   26e80:	1806d07a 	srli	r3,r3,1
   26e84:	10800044 	addi	r2,r2,1
   26e88:	18000726 	beq	r3,zero,26ea8 <__lo0bits+0x98>
   26e8c:	20c00015 	stw	r3,0(r4)
   26e90:	f800283a 	ret
   26e94:	1806d43a 	srli	r3,r3,16
   26e98:	00800404 	movi	r2,16
   26e9c:	003fea06 	br	26e48 <__lo0bits+0x38>
   26ea0:	0005883a 	mov	r2,zero
   26ea4:	f800283a 	ret
   26ea8:	00800804 	movi	r2,32
   26eac:	f800283a 	ret
   26eb0:	1806d0ba 	srli	r3,r3,2
   26eb4:	00800084 	movi	r2,2
   26eb8:	20c00015 	stw	r3,0(r4)
   26ebc:	f800283a 	ret

00026ec0 <__i2b>:
   26ec0:	20c01317 	ldw	r3,76(r4)
   26ec4:	defffd04 	addi	sp,sp,-12
   26ec8:	dc400115 	stw	r17,4(sp)
   26ecc:	dc000015 	stw	r16,0(sp)
   26ed0:	dfc00215 	stw	ra,8(sp)
   26ed4:	2021883a 	mov	r16,r4
   26ed8:	2823883a 	mov	r17,r5
   26edc:	18000d26 	beq	r3,zero,26f14 <__i2b+0x54>
   26ee0:	18800117 	ldw	r2,4(r3)
   26ee4:	10001826 	beq	r2,zero,26f48 <__i2b+0x88>
   26ee8:	11000017 	ldw	r4,0(r2)
   26eec:	19000115 	stw	r4,4(r3)
   26ef0:	00c00044 	movi	r3,1
   26ef4:	10000315 	stw	zero,12(r2)
   26ef8:	14400515 	stw	r17,20(r2)
   26efc:	10c00415 	stw	r3,16(r2)
   26f00:	dfc00217 	ldw	ra,8(sp)
   26f04:	dc400117 	ldw	r17,4(sp)
   26f08:	dc000017 	ldw	r16,0(sp)
   26f0c:	dec00304 	addi	sp,sp,12
   26f10:	f800283a 	ret
   26f14:	01800844 	movi	r6,33
   26f18:	01400104 	movi	r5,4
   26f1c:	00298dc0 	call	298dc <_calloc_r>
   26f20:	80801315 	stw	r2,76(r16)
   26f24:	1007883a 	mov	r3,r2
   26f28:	103fed1e 	bne	r2,zero,26ee0 <__i2b+0x20>
   26f2c:	01c000f4 	movhi	r7,3
   26f30:	010000f4 	movhi	r4,3
   26f34:	39c1c304 	addi	r7,r7,1804
   26f38:	000d883a 	mov	r6,zero
   26f3c:	01405004 	movi	r5,320
   26f40:	2101d704 	addi	r4,r4,1884
   26f44:	00298640 	call	29864 <__assert_func>
   26f48:	01800704 	movi	r6,28
   26f4c:	01400044 	movi	r5,1
   26f50:	8009883a 	mov	r4,r16
   26f54:	00298dc0 	call	298dc <_calloc_r>
   26f58:	103ff426 	beq	r2,zero,26f2c <__i2b+0x6c>
   26f5c:	00c00044 	movi	r3,1
   26f60:	10c00115 	stw	r3,4(r2)
   26f64:	00c00084 	movi	r3,2
   26f68:	10c00215 	stw	r3,8(r2)
   26f6c:	003fe006 	br	26ef0 <__i2b+0x30>

00026f70 <__multiply>:
   26f70:	defff804 	addi	sp,sp,-32
   26f74:	dd400515 	stw	r21,20(sp)
   26f78:	dd000415 	stw	r20,16(sp)
   26f7c:	35400417 	ldw	r21,16(r6)
   26f80:	2d000417 	ldw	r20,16(r5)
   26f84:	dd800615 	stw	r22,24(sp)
   26f88:	dcc00315 	stw	r19,12(sp)
   26f8c:	dfc00715 	stw	ra,28(sp)
   26f90:	dc800215 	stw	r18,8(sp)
   26f94:	dc400115 	stw	r17,4(sp)
   26f98:	dc000015 	stw	r16,0(sp)
   26f9c:	282d883a 	mov	r22,r5
   26fa0:	3027883a 	mov	r19,r6
   26fa4:	a5400516 	blt	r20,r21,26fbc <__multiply+0x4c>
   26fa8:	a807883a 	mov	r3,r21
   26fac:	2827883a 	mov	r19,r5
   26fb0:	a02b883a 	mov	r21,r20
   26fb4:	302d883a 	mov	r22,r6
   26fb8:	1829883a 	mov	r20,r3
   26fbc:	98800217 	ldw	r2,8(r19)
   26fc0:	ad23883a 	add	r17,r21,r20
   26fc4:	99400117 	ldw	r5,4(r19)
   26fc8:	1440010e 	bge	r2,r17,26fd0 <__multiply+0x60>
   26fcc:	29400044 	addi	r5,r5,1
   26fd0:	0026a6c0 	call	26a6c <_Balloc>
   26fd4:	1025883a 	mov	r18,r2
   26fd8:	10007326 	beq	r2,zero,271a8 <__multiply+0x238>
   26fdc:	882090ba 	slli	r16,r17,2
   26fe0:	11000504 	addi	r4,r2,20
   26fe4:	2421883a 	add	r16,r4,r16
   26fe8:	2400082e 	bgeu	r4,r16,2700c <__multiply+0x9c>
   26fec:	808dc83a 	sub	r6,r16,r2
   26ff0:	31bffac4 	addi	r6,r6,-21
   26ff4:	300cd0ba 	srli	r6,r6,2
   26ff8:	000b883a 	mov	r5,zero
   26ffc:	31800044 	addi	r6,r6,1
   27000:	300c90ba 	slli	r6,r6,2
   27004:	00269740 	call	26974 <memset>
   27008:	1009883a 	mov	r4,r2
   2700c:	a01090ba 	slli	r8,r20,2
   27010:	a80e90ba 	slli	r7,r21,2
   27014:	b1400504 	addi	r5,r22,20
   27018:	9a400504 	addi	r9,r19,20
   2701c:	2a11883a 	add	r8,r5,r8
   27020:	49cf883a 	add	r7,r9,r7
   27024:	2a004b2e 	bgeu	r5,r8,27154 <__multiply+0x1e4>
   27028:	98800544 	addi	r2,r19,21
   2702c:	38805c36 	bltu	r7,r2,271a0 <__multiply+0x230>
   27030:	3cc5c83a 	sub	r2,r7,r19
   27034:	10bffac4 	addi	r2,r2,-21
   27038:	1004d0ba 	srli	r2,r2,2
   2703c:	10800044 	addi	r2,r2,1
   27040:	100490ba 	slli	r2,r2,2
   27044:	00000506 	br	2705c <__multiply+0xec>
   27048:	5816d43a 	srli	r11,r11,16
   2704c:	5800231e 	bne	r11,zero,270dc <__multiply+0x16c>
   27050:	29400104 	addi	r5,r5,4
   27054:	21000104 	addi	r4,r4,4
   27058:	2a003e2e 	bgeu	r5,r8,27154 <__multiply+0x1e4>
   2705c:	2ac00017 	ldw	r11,0(r5)
   27060:	5b7fffcc 	andi	r13,r11,65535
   27064:	683ff826 	beq	r13,zero,27048 <__multiply+0xd8>
   27068:	2019883a 	mov	r12,r4
   2706c:	4817883a 	mov	r11,r9
   27070:	001d883a 	mov	r14,zero
   27074:	58c00017 	ldw	r3,0(r11)
   27078:	62800017 	ldw	r10,0(r12)
   2707c:	63000104 	addi	r12,r12,4
   27080:	19bfffcc 	andi	r6,r3,65535
   27084:	334d383a 	mul	r6,r6,r13
   27088:	1806d43a 	srli	r3,r3,16
   2708c:	53ffffcc 	andi	r15,r10,65535
   27090:	33cd883a 	add	r6,r6,r15
   27094:	5014d43a 	srli	r10,r10,16
   27098:	338d883a 	add	r6,r6,r14
   2709c:	1b47383a 	mul	r3,r3,r13
   270a0:	301cd43a 	srli	r14,r6,16
   270a4:	31bfffcc 	andi	r6,r6,65535
   270a8:	1a87883a 	add	r3,r3,r10
   270ac:	1b87883a 	add	r3,r3,r14
   270b0:	1814943a 	slli	r10,r3,16
   270b4:	181cd43a 	srli	r14,r3,16
   270b8:	5ac00104 	addi	r11,r11,4
   270bc:	5186b03a 	or	r3,r10,r6
   270c0:	60ffff15 	stw	r3,-4(r12)
   270c4:	59ffeb36 	bltu	r11,r7,27074 <__multiply+0x104>
   270c8:	2087883a 	add	r3,r4,r2
   270cc:	1b800015 	stw	r14,0(r3)
   270d0:	2ac00017 	ldw	r11,0(r5)
   270d4:	5816d43a 	srli	r11,r11,16
   270d8:	583fdd26 	beq	r11,zero,27050 <__multiply+0xe0>
   270dc:	20c00017 	ldw	r3,0(r4)
   270e0:	2019883a 	mov	r12,r4
   270e4:	4815883a 	mov	r10,r9
   270e8:	181b883a 	mov	r13,r3
   270ec:	001d883a 	mov	r14,zero
   270f0:	5180000b 	ldhu	r6,0(r10)
   270f4:	681ed43a 	srli	r15,r13,16
   270f8:	18ffffcc 	andi	r3,r3,65535
   270fc:	32cd383a 	mul	r6,r6,r11
   27100:	52800104 	addi	r10,r10,4
   27104:	63400117 	ldw	r13,4(r12)
   27108:	338d883a 	add	r6,r6,r14
   2710c:	33cd883a 	add	r6,r6,r15
   27110:	301c943a 	slli	r14,r6,16
   27114:	300cd43a 	srli	r6,r6,16
   27118:	6bffffcc 	andi	r15,r13,65535
   2711c:	70c6b03a 	or	r3,r14,r3
   27120:	60c00015 	stw	r3,0(r12)
   27124:	50ffff8b 	ldhu	r3,-2(r10)
   27128:	63000104 	addi	r12,r12,4
   2712c:	1ac7383a 	mul	r3,r3,r11
   27130:	1bc7883a 	add	r3,r3,r15
   27134:	1987883a 	add	r3,r3,r6
   27138:	181cd43a 	srli	r14,r3,16
   2713c:	51ffec36 	bltu	r10,r7,270f0 <__multiply+0x180>
   27140:	208d883a 	add	r6,r4,r2
   27144:	30c00015 	stw	r3,0(r6)
   27148:	29400104 	addi	r5,r5,4
   2714c:	21000104 	addi	r4,r4,4
   27150:	2a3fc236 	bltu	r5,r8,2705c <__multiply+0xec>
   27154:	04400316 	blt	zero,r17,27164 <__multiply+0x1f4>
   27158:	00000506 	br	27170 <__multiply+0x200>
   2715c:	8c7fffc4 	addi	r17,r17,-1
   27160:	88000326 	beq	r17,zero,27170 <__multiply+0x200>
   27164:	80bfff17 	ldw	r2,-4(r16)
   27168:	843fff04 	addi	r16,r16,-4
   2716c:	103ffb26 	beq	r2,zero,2715c <__multiply+0x1ec>
   27170:	9005883a 	mov	r2,r18
   27174:	94400415 	stw	r17,16(r18)
   27178:	dfc00717 	ldw	ra,28(sp)
   2717c:	dd800617 	ldw	r22,24(sp)
   27180:	dd400517 	ldw	r21,20(sp)
   27184:	dd000417 	ldw	r20,16(sp)
   27188:	dcc00317 	ldw	r19,12(sp)
   2718c:	dc800217 	ldw	r18,8(sp)
   27190:	dc400117 	ldw	r17,4(sp)
   27194:	dc000017 	ldw	r16,0(sp)
   27198:	dec00804 	addi	sp,sp,32
   2719c:	f800283a 	ret
   271a0:	00800104 	movi	r2,4
   271a4:	003fad06 	br	2705c <__multiply+0xec>
   271a8:	01c000f4 	movhi	r7,3
   271ac:	010000f4 	movhi	r4,3
   271b0:	39c1c304 	addi	r7,r7,1804
   271b4:	000d883a 	mov	r6,zero
   271b8:	01405744 	movi	r5,349
   271bc:	2101d704 	addi	r4,r4,1884
   271c0:	00298640 	call	29864 <__assert_func>

000271c4 <__pow5mult>:
   271c4:	defffb04 	addi	sp,sp,-20
   271c8:	dcc00315 	stw	r19,12(sp)
   271cc:	dc000015 	stw	r16,0(sp)
   271d0:	dfc00415 	stw	ra,16(sp)
   271d4:	dc800215 	stw	r18,8(sp)
   271d8:	dc400115 	stw	r17,4(sp)
   271dc:	308000cc 	andi	r2,r6,3
   271e0:	3021883a 	mov	r16,r6
   271e4:	2027883a 	mov	r19,r4
   271e8:	10002b1e 	bne	r2,zero,27298 <__pow5mult+0xd4>
   271ec:	2825883a 	mov	r18,r5
   271f0:	8021d0ba 	srai	r16,r16,2
   271f4:	80001926 	beq	r16,zero,2725c <__pow5mult+0x98>
   271f8:	9c401217 	ldw	r17,72(r19)
   271fc:	8800061e 	bne	r17,zero,27218 <__pow5mult+0x54>
   27200:	00002d06 	br	272b8 <__pow5mult+0xf4>
   27204:	8021d07a 	srai	r16,r16,1
   27208:	80001426 	beq	r16,zero,2725c <__pow5mult+0x98>
   2720c:	88800017 	ldw	r2,0(r17)
   27210:	10001a26 	beq	r2,zero,2727c <__pow5mult+0xb8>
   27214:	1023883a 	mov	r17,r2
   27218:	8080004c 	andi	r2,r16,1
   2721c:	103ff926 	beq	r2,zero,27204 <__pow5mult+0x40>
   27220:	880d883a 	mov	r6,r17
   27224:	900b883a 	mov	r5,r18
   27228:	9809883a 	mov	r4,r19
   2722c:	0026f700 	call	26f70 <__multiply>
   27230:	90000726 	beq	r18,zero,27250 <__pow5mult+0x8c>
   27234:	91000117 	ldw	r4,4(r18)
   27238:	98c01317 	ldw	r3,76(r19)
   2723c:	200890ba 	slli	r4,r4,2
   27240:	1907883a 	add	r3,r3,r4
   27244:	19000017 	ldw	r4,0(r3)
   27248:	91000015 	stw	r4,0(r18)
   2724c:	1c800015 	stw	r18,0(r3)
   27250:	8021d07a 	srai	r16,r16,1
   27254:	1025883a 	mov	r18,r2
   27258:	803fec1e 	bne	r16,zero,2720c <__pow5mult+0x48>
   2725c:	9005883a 	mov	r2,r18
   27260:	dfc00417 	ldw	ra,16(sp)
   27264:	dcc00317 	ldw	r19,12(sp)
   27268:	dc800217 	ldw	r18,8(sp)
   2726c:	dc400117 	ldw	r17,4(sp)
   27270:	dc000017 	ldw	r16,0(sp)
   27274:	dec00504 	addi	sp,sp,20
   27278:	f800283a 	ret
   2727c:	880d883a 	mov	r6,r17
   27280:	880b883a 	mov	r5,r17
   27284:	9809883a 	mov	r4,r19
   27288:	0026f700 	call	26f70 <__multiply>
   2728c:	88800015 	stw	r2,0(r17)
   27290:	10000015 	stw	zero,0(r2)
   27294:	003fdf06 	br	27214 <__pow5mult+0x50>
   27298:	100490ba 	slli	r2,r2,2
   2729c:	00c000f4 	movhi	r3,3
   272a0:	000f883a 	mov	r7,zero
   272a4:	10c7883a 	add	r3,r2,r3
   272a8:	1981e517 	ldw	r6,1940(r3)
   272ac:	0026b340 	call	26b34 <__multadd>
   272b0:	1025883a 	mov	r18,r2
   272b4:	003fce06 	br	271f0 <__pow5mult+0x2c>
   272b8:	01400044 	movi	r5,1
   272bc:	9809883a 	mov	r4,r19
   272c0:	0026a6c0 	call	26a6c <_Balloc>
   272c4:	1023883a 	mov	r17,r2
   272c8:	10000726 	beq	r2,zero,272e8 <__pow5mult+0x124>
   272cc:	00809c44 	movi	r2,625
   272d0:	88800515 	stw	r2,20(r17)
   272d4:	00800044 	movi	r2,1
   272d8:	88800415 	stw	r2,16(r17)
   272dc:	9c401215 	stw	r17,72(r19)
   272e0:	88000015 	stw	zero,0(r17)
   272e4:	003fcc06 	br	27218 <__pow5mult+0x54>
   272e8:	01c000f4 	movhi	r7,3
   272ec:	010000f4 	movhi	r4,3
   272f0:	39c1c304 	addi	r7,r7,1804
   272f4:	000d883a 	mov	r6,zero
   272f8:	01405004 	movi	r5,320
   272fc:	2101d704 	addi	r4,r4,1884
   27300:	00298640 	call	29864 <__assert_func>

00027304 <__lshift>:
   27304:	defff804 	addi	sp,sp,-32
   27308:	dd800615 	stw	r22,24(sp)
   2730c:	dc400115 	stw	r17,4(sp)
   27310:	302dd17a 	srai	r22,r6,5
   27314:	2c400417 	ldw	r17,16(r5)
   27318:	28800217 	ldw	r2,8(r5)
   2731c:	dd000415 	stw	r20,16(sp)
   27320:	b463883a 	add	r17,r22,r17
   27324:	dcc00315 	stw	r19,12(sp)
   27328:	dc800215 	stw	r18,8(sp)
   2732c:	dc000015 	stw	r16,0(sp)
   27330:	dfc00715 	stw	ra,28(sp)
   27334:	dd400515 	stw	r21,20(sp)
   27338:	8d000044 	addi	r20,r17,1
   2733c:	2827883a 	mov	r19,r5
   27340:	3025883a 	mov	r18,r6
   27344:	29400117 	ldw	r5,4(r5)
   27348:	2021883a 	mov	r16,r4
   2734c:	1500030e 	bge	r2,r20,2735c <__lshift+0x58>
   27350:	1085883a 	add	r2,r2,r2
   27354:	29400044 	addi	r5,r5,1
   27358:	153ffd16 	blt	r2,r20,27350 <__lshift+0x4c>
   2735c:	8009883a 	mov	r4,r16
   27360:	0026a6c0 	call	26a6c <_Balloc>
   27364:	102b883a 	mov	r21,r2
   27368:	10004126 	beq	r2,zero,27470 <__lshift+0x16c>
   2736c:	11000504 	addi	r4,r2,20
   27370:	0580050e 	bge	zero,r22,27388 <__lshift+0x84>
   27374:	b02c90ba 	slli	r22,r22,2
   27378:	000b883a 	mov	r5,zero
   2737c:	b00d883a 	mov	r6,r22
   27380:	00269740 	call	26974 <memset>
   27384:	1589883a 	add	r4,r2,r22
   27388:	9a400417 	ldw	r9,16(r19)
   2738c:	98c00504 	addi	r3,r19,20
   27390:	948007cc 	andi	r18,r18,31
   27394:	481290ba 	slli	r9,r9,2
   27398:	1a53883a 	add	r9,r3,r9
   2739c:	90002c26 	beq	r18,zero,27450 <__lshift+0x14c>
   273a0:	01400804 	movi	r5,32
   273a4:	2c8bc83a 	sub	r5,r5,r18
   273a8:	2005883a 	mov	r2,r4
   273ac:	0011883a 	mov	r8,zero
   273b0:	19c00017 	ldw	r7,0(r3)
   273b4:	10800104 	addi	r2,r2,4
   273b8:	18c00104 	addi	r3,r3,4
   273bc:	3c8e983a 	sll	r7,r7,r18
   273c0:	3a0eb03a 	or	r7,r7,r8
   273c4:	11ffff15 	stw	r7,-4(r2)
   273c8:	1a3fff17 	ldw	r8,-4(r3)
   273cc:	4150d83a 	srl	r8,r8,r5
   273d0:	1a7ff736 	bltu	r3,r9,273b0 <__lshift+0xac>
   273d4:	98800544 	addi	r2,r19,21
   273d8:	48802336 	bltu	r9,r2,27468 <__lshift+0x164>
   273dc:	4cc7c83a 	sub	r3,r9,r19
   273e0:	18fffac4 	addi	r3,r3,-21
   273e4:	1806d0ba 	srli	r3,r3,2
   273e8:	18c00044 	addi	r3,r3,1
   273ec:	180690ba 	slli	r3,r3,2
   273f0:	20c9883a 	add	r4,r4,r3
   273f4:	22000015 	stw	r8,0(r4)
   273f8:	4000011e 	bne	r8,zero,27400 <__lshift+0xfc>
   273fc:	8829883a 	mov	r20,r17
   27400:	ad000415 	stw	r20,16(r21)
   27404:	98000726 	beq	r19,zero,27424 <__lshift+0x120>
   27408:	98c00117 	ldw	r3,4(r19)
   2740c:	80801317 	ldw	r2,76(r16)
   27410:	180690ba 	slli	r3,r3,2
   27414:	10c5883a 	add	r2,r2,r3
   27418:	10c00017 	ldw	r3,0(r2)
   2741c:	98c00015 	stw	r3,0(r19)
   27420:	14c00015 	stw	r19,0(r2)
   27424:	a805883a 	mov	r2,r21
   27428:	dfc00717 	ldw	ra,28(sp)
   2742c:	dd800617 	ldw	r22,24(sp)
   27430:	dd400517 	ldw	r21,20(sp)
   27434:	dd000417 	ldw	r20,16(sp)
   27438:	dcc00317 	ldw	r19,12(sp)
   2743c:	dc800217 	ldw	r18,8(sp)
   27440:	dc400117 	ldw	r17,4(sp)
   27444:	dc000017 	ldw	r16,0(sp)
   27448:	dec00804 	addi	sp,sp,32
   2744c:	f800283a 	ret
   27450:	18800017 	ldw	r2,0(r3)
   27454:	18c00104 	addi	r3,r3,4
   27458:	21000104 	addi	r4,r4,4
   2745c:	20bfff15 	stw	r2,-4(r4)
   27460:	1a7ffb36 	bltu	r3,r9,27450 <__lshift+0x14c>
   27464:	003fe506 	br	273fc <__lshift+0xf8>
   27468:	00c00104 	movi	r3,4
   2746c:	003fe006 	br	273f0 <__lshift+0xec>
   27470:	01c000f4 	movhi	r7,3
   27474:	010000f4 	movhi	r4,3
   27478:	39c1c304 	addi	r7,r7,1804
   2747c:	000d883a 	mov	r6,zero
   27480:	01407644 	movi	r5,473
   27484:	2101d704 	addi	r4,r4,1884
   27488:	00298640 	call	29864 <__assert_func>

0002748c <__mcmp>:
   2748c:	21800417 	ldw	r6,16(r4)
   27490:	28c00417 	ldw	r3,16(r5)
   27494:	30c5c83a 	sub	r2,r6,r3
   27498:	30c0101e 	bne	r6,r3,274dc <__mcmp+0x50>
   2749c:	180690ba 	slli	r3,r3,2
   274a0:	21000504 	addi	r4,r4,20
   274a4:	29400504 	addi	r5,r5,20
   274a8:	20cd883a 	add	r6,r4,r3
   274ac:	28c7883a 	add	r3,r5,r3
   274b0:	00000106 	br	274b8 <__mcmp+0x2c>
   274b4:	21800a2e 	bgeu	r4,r6,274e0 <__mcmp+0x54>
   274b8:	31ffff17 	ldw	r7,-4(r6)
   274bc:	197fff17 	ldw	r5,-4(r3)
   274c0:	31bfff04 	addi	r6,r6,-4
   274c4:	18ffff04 	addi	r3,r3,-4
   274c8:	397ffa26 	beq	r7,r5,274b4 <__mcmp+0x28>
   274cc:	3940022e 	bgeu	r7,r5,274d8 <__mcmp+0x4c>
   274d0:	00bfffc4 	movi	r2,-1
   274d4:	f800283a 	ret
   274d8:	00800044 	movi	r2,1
   274dc:	f800283a 	ret
   274e0:	f800283a 	ret

000274e4 <__mdiff>:
   274e4:	28c00417 	ldw	r3,16(r5)
   274e8:	30800417 	ldw	r2,16(r6)
   274ec:	defffc04 	addi	sp,sp,-16
   274f0:	dc800215 	stw	r18,8(sp)
   274f4:	dc400115 	stw	r17,4(sp)
   274f8:	dc000015 	stw	r16,0(sp)
   274fc:	dfc00315 	stw	ra,12(sp)
   27500:	2823883a 	mov	r17,r5
   27504:	3021883a 	mov	r16,r6
   27508:	18a5c83a 	sub	r18,r3,r2
   2750c:	1880121e 	bne	r3,r2,27558 <__mdiff+0x74>
   27510:	100c90ba 	slli	r6,r2,2
   27514:	29400504 	addi	r5,r5,20
   27518:	80c00504 	addi	r3,r16,20
   2751c:	2985883a 	add	r2,r5,r6
   27520:	1987883a 	add	r3,r3,r6
   27524:	00000106 	br	2752c <__mdiff+0x48>
   27528:	28805f2e 	bgeu	r5,r2,276a8 <__mdiff+0x1c4>
   2752c:	11ffff17 	ldw	r7,-4(r2)
   27530:	19bfff17 	ldw	r6,-4(r3)
   27534:	10bfff04 	addi	r2,r2,-4
   27538:	18ffff04 	addi	r3,r3,-4
   2753c:	39bffa26 	beq	r7,r6,27528 <__mdiff+0x44>
   27540:	3980072e 	bgeu	r7,r6,27560 <__mdiff+0x7c>
   27544:	8805883a 	mov	r2,r17
   27548:	04800044 	movi	r18,1
   2754c:	8023883a 	mov	r17,r16
   27550:	1021883a 	mov	r16,r2
   27554:	00000206 	br	27560 <__mdiff+0x7c>
   27558:	903ffa16 	blt	r18,zero,27544 <__mdiff+0x60>
   2755c:	0025883a 	mov	r18,zero
   27560:	89400117 	ldw	r5,4(r17)
   27564:	0026a6c0 	call	26a6c <_Balloc>
   27568:	10006326 	beq	r2,zero,276f8 <__mdiff+0x214>
   2756c:	8a400417 	ldw	r9,16(r17)
   27570:	83800417 	ldw	r14,16(r16)
   27574:	89400504 	addi	r5,r17,20
   27578:	481490ba 	slli	r10,r9,2
   2757c:	701c90ba 	slli	r14,r14,2
   27580:	81800504 	addi	r6,r16,20
   27584:	13400504 	addi	r13,r2,20
   27588:	14800315 	stw	r18,12(r2)
   2758c:	2a95883a 	add	r10,r5,r10
   27590:	339d883a 	add	r14,r6,r14
   27594:	6819883a 	mov	r12,r13
   27598:	2817883a 	mov	r11,r5
   2759c:	000f883a 	mov	r7,zero
   275a0:	59000017 	ldw	r4,0(r11)
   275a4:	32000017 	ldw	r8,0(r6)
   275a8:	63000104 	addi	r12,r12,4
   275ac:	20ffffcc 	andi	r3,r4,65535
   275b0:	43ffffcc 	andi	r15,r8,65535
   275b4:	1bc7c83a 	sub	r3,r3,r15
   275b8:	4010d43a 	srli	r8,r8,16
   275bc:	19c7883a 	add	r3,r3,r7
   275c0:	2008d43a 	srli	r4,r4,16
   275c4:	180fd43a 	srai	r7,r3,16
   275c8:	18ffffcc 	andi	r3,r3,65535
   275cc:	2209c83a 	sub	r4,r4,r8
   275d0:	21c9883a 	add	r4,r4,r7
   275d4:	2010943a 	slli	r8,r4,16
   275d8:	31800104 	addi	r6,r6,4
   275dc:	200fd43a 	srai	r7,r4,16
   275e0:	1a06b03a 	or	r3,r3,r8
   275e4:	60ffff15 	stw	r3,-4(r12)
   275e8:	5ac00104 	addi	r11,r11,4
   275ec:	33bfec36 	bltu	r6,r14,275a0 <__mdiff+0xbc>
   275f0:	7409c83a 	sub	r4,r14,r16
   275f4:	213ffac4 	addi	r4,r4,-21
   275f8:	84000544 	addi	r16,r16,21
   275fc:	200cd0ba 	srli	r6,r4,2
   27600:	74002736 	bltu	r14,r16,276a0 <__mdiff+0x1bc>
   27604:	31000044 	addi	r4,r6,1
   27608:	200890ba 	slli	r4,r4,2
   2760c:	290b883a 	add	r5,r5,r4
   27610:	6911883a 	add	r8,r13,r4
   27614:	2a802b2e 	bgeu	r5,r10,276c4 <__mdiff+0x1e0>
   27618:	4017883a 	mov	r11,r8
   2761c:	280d883a 	mov	r6,r5
   27620:	30c00017 	ldw	r3,0(r6)
   27624:	5ac00104 	addi	r11,r11,4
   27628:	31800104 	addi	r6,r6,4
   2762c:	193fffcc 	andi	r4,r3,65535
   27630:	21c9883a 	add	r4,r4,r7
   27634:	1818d43a 	srli	r12,r3,16
   27638:	2009d43a 	srai	r4,r4,16
   2763c:	19c7883a 	add	r3,r3,r7
   27640:	18ffffcc 	andi	r3,r3,65535
   27644:	2309883a 	add	r4,r4,r12
   27648:	2018943a 	slli	r12,r4,16
   2764c:	200fd43a 	srai	r7,r4,16
   27650:	1b06b03a 	or	r3,r3,r12
   27654:	58ffff15 	stw	r3,-4(r11)
   27658:	32bff136 	bltu	r6,r10,27620 <__mdiff+0x13c>
   2765c:	513fffc4 	addi	r4,r10,-1
   27660:	2149c83a 	sub	r4,r4,r5
   27664:	2008d0ba 	srli	r4,r4,2
   27668:	200890ba 	slli	r4,r4,2
   2766c:	4109883a 	add	r4,r8,r4
   27670:	1800041e 	bne	r3,zero,27684 <__mdiff+0x1a0>
   27674:	20ffff17 	ldw	r3,-4(r4)
   27678:	4a7fffc4 	addi	r9,r9,-1
   2767c:	213fff04 	addi	r4,r4,-4
   27680:	183ffc26 	beq	r3,zero,27674 <__mdiff+0x190>
   27684:	12400415 	stw	r9,16(r2)
   27688:	dfc00317 	ldw	ra,12(sp)
   2768c:	dc800217 	ldw	r18,8(sp)
   27690:	dc400117 	ldw	r17,4(sp)
   27694:	dc000017 	ldw	r16,0(sp)
   27698:	dec00404 	addi	sp,sp,16
   2769c:	f800283a 	ret
   276a0:	01000104 	movi	r4,4
   276a4:	003fd906 	br	2760c <__mdiff+0x128>
   276a8:	000b883a 	mov	r5,zero
   276ac:	0026a6c0 	call	26a6c <_Balloc>
   276b0:	10000a26 	beq	r2,zero,276dc <__mdiff+0x1f8>
   276b4:	00c00044 	movi	r3,1
   276b8:	10c00415 	stw	r3,16(r2)
   276bc:	10000515 	stw	zero,20(r2)
   276c0:	003ff106 	br	27688 <__mdiff+0x1a4>
   276c4:	74000336 	bltu	r14,r16,276d4 <__mdiff+0x1f0>
   276c8:	300890ba 	slli	r4,r6,2
   276cc:	6909883a 	add	r4,r13,r4
   276d0:	003fe706 	br	27670 <__mdiff+0x18c>
   276d4:	0009883a 	mov	r4,zero
   276d8:	003ffc06 	br	276cc <__mdiff+0x1e8>
   276dc:	01c000f4 	movhi	r7,3
   276e0:	010000f4 	movhi	r4,3
   276e4:	39c1c304 	addi	r7,r7,1804
   276e8:	000d883a 	mov	r6,zero
   276ec:	01408c84 	movi	r5,562
   276f0:	2101d704 	addi	r4,r4,1884
   276f4:	00298640 	call	29864 <__assert_func>
   276f8:	01c000f4 	movhi	r7,3
   276fc:	010000f4 	movhi	r4,3
   27700:	39c1c304 	addi	r7,r7,1804
   27704:	000d883a 	mov	r6,zero
   27708:	01409004 	movi	r5,576
   2770c:	2101d704 	addi	r4,r4,1884
   27710:	00298640 	call	29864 <__assert_func>

00027714 <__ulp>:
   27714:	28dffc2c 	andhi	r3,r5,32752
   27718:	00bf3034 	movhi	r2,64704
   2771c:	1887883a 	add	r3,r3,r2
   27720:	00c0020e 	bge	zero,r3,2772c <__ulp+0x18>
   27724:	0005883a 	mov	r2,zero
   27728:	f800283a 	ret
   2772c:	00c7c83a 	sub	r3,zero,r3
   27730:	1807d53a 	srai	r3,r3,20
   27734:	18800508 	cmpgei	r2,r3,20
   27738:	1000041e 	bne	r2,zero,2774c <__ulp+0x38>
   2773c:	00800234 	movhi	r2,8
   27740:	10c7d83a 	sra	r3,r2,r3
   27744:	0005883a 	mov	r2,zero
   27748:	f800283a 	ret
   2774c:	18fffb04 	addi	r3,r3,-20
   27750:	188007c8 	cmpgei	r2,r3,31
   27754:	10000326 	beq	r2,zero,27764 <__ulp+0x50>
   27758:	00800044 	movi	r2,1
   2775c:	0007883a 	mov	r3,zero
   27760:	f800283a 	ret
   27764:	00a00034 	movhi	r2,32768
   27768:	10c4d83a 	srl	r2,r2,r3
   2776c:	0007883a 	mov	r3,zero
   27770:	f800283a 	ret

00027774 <__b2d>:
   27774:	defffa04 	addi	sp,sp,-24
   27778:	dc400115 	stw	r17,4(sp)
   2777c:	24400417 	ldw	r17,16(r4)
   27780:	dc000015 	stw	r16,0(sp)
   27784:	24000504 	addi	r16,r4,20
   27788:	882290ba 	slli	r17,r17,2
   2778c:	dc800215 	stw	r18,8(sp)
   27790:	dd000415 	stw	r20,16(sp)
   27794:	8463883a 	add	r17,r16,r17
   27798:	8cbfff17 	ldw	r18,-4(r17)
   2779c:	dcc00315 	stw	r19,12(sp)
   277a0:	dfc00515 	stw	ra,20(sp)
   277a4:	9009883a 	mov	r4,r18
   277a8:	2827883a 	mov	r19,r5
   277ac:	0026d9c0 	call	26d9c <__hi0bits>
   277b0:	00c00804 	movi	r3,32
   277b4:	1889c83a 	sub	r4,r3,r2
   277b8:	99000015 	stw	r4,0(r19)
   277bc:	110002c8 	cmpgei	r4,r2,11
   277c0:	8d3fff04 	addi	r20,r17,-4
   277c4:	20001b26 	beq	r4,zero,27834 <__b2d+0xc0>
   277c8:	117ffd44 	addi	r5,r2,-11
   277cc:	85000e2e 	bgeu	r16,r20,27808 <__b2d+0x94>
   277d0:	88bffe17 	ldw	r2,-8(r17)
   277d4:	28000e26 	beq	r5,zero,27810 <__b2d+0x9c>
   277d8:	1949c83a 	sub	r4,r3,r5
   277dc:	1106d83a 	srl	r3,r2,r4
   277e0:	9164983a 	sll	r18,r18,r5
   277e4:	89bffe04 	addi	r6,r17,-8
   277e8:	1144983a 	sll	r2,r2,r5
   277ec:	90c6b03a 	or	r3,r18,r3
   277f0:	18cffc34 	orhi	r3,r3,16368
   277f4:	8180072e 	bgeu	r16,r6,27814 <__b2d+0xa0>
   277f8:	897ffd17 	ldw	r5,-12(r17)
   277fc:	2908d83a 	srl	r4,r5,r4
   27800:	1104b03a 	or	r2,r2,r4
   27804:	00000306 	br	27814 <__b2d+0xa0>
   27808:	108002d8 	cmpnei	r2,r2,11
   2780c:	1000161e 	bne	r2,zero,27868 <__b2d+0xf4>
   27810:	90cffc34 	orhi	r3,r18,16368
   27814:	dfc00517 	ldw	ra,20(sp)
   27818:	dd000417 	ldw	r20,16(sp)
   2781c:	dcc00317 	ldw	r19,12(sp)
   27820:	dc800217 	ldw	r18,8(sp)
   27824:	dc400117 	ldw	r17,4(sp)
   27828:	dc000017 	ldw	r16,0(sp)
   2782c:	dec00604 	addi	sp,sp,24
   27830:	f800283a 	ret
   27834:	014002c4 	movi	r5,11
   27838:	288bc83a 	sub	r5,r5,r2
   2783c:	9146d83a 	srl	r3,r18,r5
   27840:	18cffc34 	orhi	r3,r3,16368
   27844:	85000536 	bltu	r16,r20,2785c <__b2d+0xe8>
   27848:	0009883a 	mov	r4,zero
   2784c:	10800544 	addi	r2,r2,21
   27850:	90a4983a 	sll	r18,r18,r2
   27854:	9104b03a 	or	r2,r18,r4
   27858:	003fee06 	br	27814 <__b2d+0xa0>
   2785c:	893ffe17 	ldw	r4,-8(r17)
   27860:	2148d83a 	srl	r4,r4,r5
   27864:	003ff906 	br	2784c <__b2d+0xd8>
   27868:	9164983a 	sll	r18,r18,r5
   2786c:	0005883a 	mov	r2,zero
   27870:	003fe706 	br	27810 <__b2d+0x9c>

00027874 <__d2b>:
   27874:	defff804 	addi	sp,sp,-32
   27878:	dd000615 	stw	r20,24(sp)
   2787c:	2829883a 	mov	r20,r5
   27880:	01400044 	movi	r5,1
   27884:	dcc00515 	stw	r19,20(sp)
   27888:	dc000215 	stw	r16,8(sp)
   2788c:	dfc00715 	stw	ra,28(sp)
   27890:	dc800415 	stw	r18,16(sp)
   27894:	dc400315 	stw	r17,12(sp)
   27898:	3021883a 	mov	r16,r6
   2789c:	3827883a 	mov	r19,r7
   278a0:	0026a6c0 	call	26a6c <_Balloc>
   278a4:	10004226 	beq	r2,zero,279b0 <__d2b+0x13c>
   278a8:	8024d53a 	srli	r18,r16,20
   278ac:	1023883a 	mov	r17,r2
   278b0:	00800434 	movhi	r2,16
   278b4:	10bfffc4 	addi	r2,r2,-1
   278b8:	9481ffcc 	andi	r18,r18,2047
   278bc:	80a0703a 	and	r16,r16,r2
   278c0:	90000126 	beq	r18,zero,278c8 <__d2b+0x54>
   278c4:	84000434 	orhi	r16,r16,16
   278c8:	dc000115 	stw	r16,4(sp)
   278cc:	a0001b26 	beq	r20,zero,2793c <__d2b+0xc8>
   278d0:	d809883a 	mov	r4,sp
   278d4:	dd000015 	stw	r20,0(sp)
   278d8:	0026e100 	call	26e10 <__lo0bits>
   278dc:	d8c00117 	ldw	r3,4(sp)
   278e0:	10003026 	beq	r2,zero,279a4 <__d2b+0x130>
   278e4:	01000804 	movi	r4,32
   278e8:	2089c83a 	sub	r4,r4,r2
   278ec:	1908983a 	sll	r4,r3,r4
   278f0:	d9400017 	ldw	r5,0(sp)
   278f4:	1886d83a 	srl	r3,r3,r2
   278f8:	2148b03a 	or	r4,r4,r5
   278fc:	89000515 	stw	r4,20(r17)
   27900:	d8c00115 	stw	r3,4(sp)
   27904:	88c00615 	stw	r3,24(r17)
   27908:	18002426 	beq	r3,zero,2799c <__d2b+0x128>
   2790c:	04000084 	movi	r16,2
   27910:	8c000415 	stw	r16,16(r17)
   27914:	9000111e 	bne	r18,zero,2795c <__d2b+0xe8>
   27918:	800690ba 	slli	r3,r16,2
   2791c:	10bef384 	addi	r2,r2,-1074
   27920:	98800015 	stw	r2,0(r19)
   27924:	88c5883a 	add	r2,r17,r3
   27928:	11000417 	ldw	r4,16(r2)
   2792c:	8020917a 	slli	r16,r16,5
   27930:	0026d9c0 	call	26d9c <__hi0bits>
   27934:	8085c83a 	sub	r2,r16,r2
   27938:	00000d06 	br	27970 <__d2b+0xfc>
   2793c:	d9000104 	addi	r4,sp,4
   27940:	0026e100 	call	26e10 <__lo0bits>
   27944:	d8c00117 	ldw	r3,4(sp)
   27948:	10800804 	addi	r2,r2,32
   2794c:	04000044 	movi	r16,1
   27950:	88c00515 	stw	r3,20(r17)
   27954:	8c000415 	stw	r16,16(r17)
   27958:	903fef26 	beq	r18,zero,27918 <__d2b+0xa4>
   2795c:	94bef344 	addi	r18,r18,-1075
   27960:	90a5883a 	add	r18,r18,r2
   27964:	04000d44 	movi	r16,53
   27968:	9c800015 	stw	r18,0(r19)
   2796c:	8085c83a 	sub	r2,r16,r2
   27970:	d8c00817 	ldw	r3,32(sp)
   27974:	18800015 	stw	r2,0(r3)
   27978:	8805883a 	mov	r2,r17
   2797c:	dfc00717 	ldw	ra,28(sp)
   27980:	dd000617 	ldw	r20,24(sp)
   27984:	dcc00517 	ldw	r19,20(sp)
   27988:	dc800417 	ldw	r18,16(sp)
   2798c:	dc400317 	ldw	r17,12(sp)
   27990:	dc000217 	ldw	r16,8(sp)
   27994:	dec00804 	addi	sp,sp,32
   27998:	f800283a 	ret
   2799c:	04000044 	movi	r16,1
   279a0:	003fec06 	br	27954 <__d2b+0xe0>
   279a4:	d9000017 	ldw	r4,0(sp)
   279a8:	89000515 	stw	r4,20(r17)
   279ac:	003fd506 	br	27904 <__d2b+0x90>
   279b0:	01c000f4 	movhi	r7,3
   279b4:	010000f4 	movhi	r4,3
   279b8:	39c1c304 	addi	r7,r7,1804
   279bc:	000d883a 	mov	r6,zero
   279c0:	0140c284 	movi	r5,778
   279c4:	2101d704 	addi	r4,r4,1884
   279c8:	00298640 	call	29864 <__assert_func>

000279cc <__ratio>:
   279cc:	defff904 	addi	sp,sp,-28
   279d0:	dc400315 	stw	r17,12(sp)
   279d4:	2823883a 	mov	r17,r5
   279d8:	d80b883a 	mov	r5,sp
   279dc:	dfc00615 	stw	ra,24(sp)
   279e0:	dcc00515 	stw	r19,20(sp)
   279e4:	dc800415 	stw	r18,16(sp)
   279e8:	2027883a 	mov	r19,r4
   279ec:	dc000215 	stw	r16,8(sp)
   279f0:	00277740 	call	27774 <__b2d>
   279f4:	d9400104 	addi	r5,sp,4
   279f8:	8809883a 	mov	r4,r17
   279fc:	1025883a 	mov	r18,r2
   27a00:	1821883a 	mov	r16,r3
   27a04:	00277740 	call	27774 <__b2d>
   27a08:	89000417 	ldw	r4,16(r17)
   27a0c:	9a000417 	ldw	r8,16(r19)
   27a10:	d9400117 	ldw	r5,4(sp)
   27a14:	100d883a 	mov	r6,r2
   27a18:	4111c83a 	sub	r8,r8,r4
   27a1c:	d9000017 	ldw	r4,0(sp)
   27a20:	4010917a 	slli	r8,r8,5
   27a24:	180f883a 	mov	r7,r3
   27a28:	2149c83a 	sub	r4,r4,r5
   27a2c:	4111883a 	add	r8,r8,r4
   27a30:	02000c0e 	bge	zero,r8,27a64 <__ratio+0x98>
   27a34:	4010953a 	slli	r8,r8,20
   27a38:	4421883a 	add	r16,r8,r16
   27a3c:	9009883a 	mov	r4,r18
   27a40:	800b883a 	mov	r5,r16
   27a44:	002bc3c0 	call	2bc3c <__divdf3>
   27a48:	dfc00617 	ldw	ra,24(sp)
   27a4c:	dcc00517 	ldw	r19,20(sp)
   27a50:	dc800417 	ldw	r18,16(sp)
   27a54:	dc400317 	ldw	r17,12(sp)
   27a58:	dc000217 	ldw	r16,8(sp)
   27a5c:	dec00704 	addi	sp,sp,28
   27a60:	f800283a 	ret
   27a64:	00bffc34 	movhi	r2,65520
   27a68:	4091383a 	mul	r8,r8,r2
   27a6c:	40cf883a 	add	r7,r8,r3
   27a70:	003ff206 	br	27a3c <__ratio+0x70>

00027a74 <_mprec_log10>:
   27a74:	defffe04 	addi	sp,sp,-8
   27a78:	dc000015 	stw	r16,0(sp)
   27a7c:	dfc00115 	stw	ra,4(sp)
   27a80:	20800608 	cmpgei	r2,r4,24
   27a84:	2021883a 	mov	r16,r4
   27a88:	10000f26 	beq	r2,zero,27ac8 <_mprec_log10+0x54>
   27a8c:	0009883a 	mov	r4,zero
   27a90:	014ffc34 	movhi	r5,16368
   27a94:	000d883a 	mov	r6,zero
   27a98:	01d00934 	movhi	r7,16420
   27a9c:	002c70c0 	call	2c70c <__muldf3>
   27aa0:	843fffc4 	addi	r16,r16,-1
   27aa4:	1009883a 	mov	r4,r2
   27aa8:	180b883a 	mov	r5,r3
   27aac:	803ff91e 	bne	r16,zero,27a94 <_mprec_log10+0x20>
   27ab0:	2005883a 	mov	r2,r4
   27ab4:	2807883a 	mov	r3,r5
   27ab8:	dfc00117 	ldw	ra,4(sp)
   27abc:	dc000017 	ldw	r16,0(sp)
   27ac0:	dec00204 	addi	sp,sp,8
   27ac4:	f800283a 	ret
   27ac8:	202090fa 	slli	r16,r4,3
   27acc:	008000f4 	movhi	r2,3
   27ad0:	1081fd04 	addi	r2,r2,2036
   27ad4:	1405883a 	add	r2,r2,r16
   27ad8:	11000017 	ldw	r4,0(r2)
   27adc:	11400117 	ldw	r5,4(r2)
   27ae0:	003ff306 	br	27ab0 <_mprec_log10+0x3c>

00027ae4 <__copybits>:
   27ae4:	297fffc4 	addi	r5,r5,-1
   27ae8:	280fd17a 	srai	r7,r5,5
   27aec:	31400417 	ldw	r5,16(r6)
   27af0:	30800504 	addi	r2,r6,20
   27af4:	39c00044 	addi	r7,r7,1
   27af8:	280a90ba 	slli	r5,r5,2
   27afc:	380e90ba 	slli	r7,r7,2
   27b00:	114b883a 	add	r5,r2,r5
   27b04:	21cf883a 	add	r7,r4,r7
   27b08:	11400c2e 	bgeu	r2,r5,27b3c <__copybits+0x58>
   27b0c:	2007883a 	mov	r3,r4
   27b10:	12000017 	ldw	r8,0(r2)
   27b14:	10800104 	addi	r2,r2,4
   27b18:	18c00104 	addi	r3,r3,4
   27b1c:	1a3fff15 	stw	r8,-4(r3)
   27b20:	117ffb36 	bltu	r2,r5,27b10 <__copybits+0x2c>
   27b24:	2985c83a 	sub	r2,r5,r6
   27b28:	10bffac4 	addi	r2,r2,-21
   27b2c:	1004d0ba 	srli	r2,r2,2
   27b30:	10800044 	addi	r2,r2,1
   27b34:	100490ba 	slli	r2,r2,2
   27b38:	2089883a 	add	r4,r4,r2
   27b3c:	21c0072e 	bgeu	r4,r7,27b5c <__copybits+0x78>
   27b40:	39bfffc4 	addi	r6,r7,-1
   27b44:	310dc83a 	sub	r6,r6,r4
   27b48:	300cd0ba 	srli	r6,r6,2
   27b4c:	000b883a 	mov	r5,zero
   27b50:	31800044 	addi	r6,r6,1
   27b54:	300c90ba 	slli	r6,r6,2
   27b58:	00269741 	jmpi	26974 <memset>
   27b5c:	f800283a 	ret

00027b60 <__any_on>:
   27b60:	20c00417 	ldw	r3,16(r4)
   27b64:	280dd17a 	srai	r6,r5,5
   27b68:	21000504 	addi	r4,r4,20
   27b6c:	1980080e 	bge	r3,r6,27b90 <__any_on+0x30>
   27b70:	180690ba 	slli	r3,r3,2
   27b74:	20c5883a 	add	r2,r4,r3
   27b78:	20800f2e 	bgeu	r4,r2,27bb8 <__any_on+0x58>
   27b7c:	10ffff17 	ldw	r3,-4(r2)
   27b80:	10bfff04 	addi	r2,r2,-4
   27b84:	183ffc26 	beq	r3,zero,27b78 <__any_on+0x18>
   27b88:	00800044 	movi	r2,1
   27b8c:	f800283a 	ret
   27b90:	300490ba 	slli	r2,r6,2
   27b94:	2085883a 	add	r2,r4,r2
   27b98:	30fff70e 	bge	r6,r3,27b78 <__any_on+0x18>
   27b9c:	294007cc 	andi	r5,r5,31
   27ba0:	283ff526 	beq	r5,zero,27b78 <__any_on+0x18>
   27ba4:	11800017 	ldw	r6,0(r2)
   27ba8:	3146d83a 	srl	r3,r6,r5
   27bac:	1946983a 	sll	r3,r3,r5
   27bb0:	30fff51e 	bne	r6,r3,27b88 <__any_on+0x28>
   27bb4:	003ff006 	br	27b78 <__any_on+0x18>
   27bb8:	0005883a 	mov	r2,zero
   27bbc:	f800283a 	ret

00027bc0 <_realloc_r>:
   27bc0:	defff504 	addi	sp,sp,-44
   27bc4:	dd000515 	stw	r20,20(sp)
   27bc8:	dfc00a15 	stw	ra,40(sp)
   27bcc:	df000915 	stw	fp,36(sp)
   27bd0:	ddc00815 	stw	r23,32(sp)
   27bd4:	dd800715 	stw	r22,28(sp)
   27bd8:	dd400615 	stw	r21,24(sp)
   27bdc:	dcc00415 	stw	r19,16(sp)
   27be0:	dc800315 	stw	r18,12(sp)
   27be4:	dc400215 	stw	r17,8(sp)
   27be8:	dc000115 	stw	r16,4(sp)
   27bec:	3029883a 	mov	r20,r6
   27bf0:	28008a26 	beq	r5,zero,27e1c <_realloc_r+0x25c>
   27bf4:	2821883a 	mov	r16,r5
   27bf8:	202b883a 	mov	r21,r4
   27bfc:	002e0f00 	call	2e0f0 <__malloc_lock>
   27c00:	84ffff17 	ldw	r19,-4(r16)
   27c04:	a44002c4 	addi	r17,r20,11
   27c08:	04bfff04 	movi	r18,-4
   27c0c:	888005f0 	cmpltui	r2,r17,23
   27c10:	85bffe04 	addi	r22,r16,-8
   27c14:	9ca4703a 	and	r18,r19,r18
   27c18:	10005a1e 	bne	r2,zero,27d84 <_realloc_r+0x1c4>
   27c1c:	00bffe04 	movi	r2,-8
   27c20:	88a2703a 	and	r17,r17,r2
   27c24:	88005916 	blt	r17,zero,27d8c <_realloc_r+0x1cc>
   27c28:	8d005836 	bltu	r17,r20,27d8c <_realloc_r+0x1cc>
   27c2c:	94403b0e 	bge	r18,r17,27d1c <_realloc_r+0x15c>
   27c30:	05c000f4 	movhi	r23,3
   27c34:	bdc44c04 	addi	r23,r23,4400
   27c38:	b9400217 	ldw	r5,8(r23)
   27c3c:	b489883a 	add	r4,r22,r18
   27c40:	20800117 	ldw	r2,4(r4)
   27c44:	29008e26 	beq	r5,r4,27e80 <_realloc_r+0x2c0>
   27c48:	00ffff84 	movi	r3,-2
   27c4c:	10c6703a 	and	r3,r2,r3
   27c50:	20c7883a 	add	r3,r4,r3
   27c54:	18c00117 	ldw	r3,4(r3)
   27c58:	18c0004c 	andi	r3,r3,1
   27c5c:	18004f1e 	bne	r3,zero,27d9c <_realloc_r+0x1dc>
   27c60:	00ffff04 	movi	r3,-4
   27c64:	10c4703a 	and	r2,r2,r3
   27c68:	9087883a 	add	r3,r18,r2
   27c6c:	1c40c30e 	bge	r3,r17,27f7c <_realloc_r+0x3bc>
   27c70:	9cc0004c 	andi	r19,r19,1
   27c74:	98004b1e 	bne	r19,zero,27da4 <_realloc_r+0x1e4>
   27c78:	873ffe17 	ldw	fp,-8(r16)
   27c7c:	00ffff04 	movi	r3,-4
   27c80:	b739c83a 	sub	fp,r22,fp
   27c84:	e4c00117 	ldw	r19,4(fp)
   27c88:	98c6703a 	and	r3,r19,r3
   27c8c:	20000426 	beq	r4,zero,27ca0 <_realloc_r+0xe0>
   27c90:	90cf883a 	add	r7,r18,r3
   27c94:	388f883a 	add	r7,r7,r2
   27c98:	2900c226 	beq	r5,r4,27fa4 <_realloc_r+0x3e4>
   27c9c:	3c409e0e 	bge	r7,r17,27f18 <_realloc_r+0x358>
   27ca0:	e0004026 	beq	fp,zero,27da4 <_realloc_r+0x1e4>
   27ca4:	90ef883a 	add	r23,r18,r3
   27ca8:	bc403e16 	blt	r23,r17,27da4 <_realloc_r+0x1e4>
   27cac:	e0800317 	ldw	r2,12(fp)
   27cb0:	e0c00217 	ldw	r3,8(fp)
   27cb4:	91bfff04 	addi	r6,r18,-4
   27cb8:	31400968 	cmpgeui	r5,r6,37
   27cbc:	18800315 	stw	r2,12(r3)
   27cc0:	10c00215 	stw	r3,8(r2)
   27cc4:	e1000204 	addi	r4,fp,8
   27cc8:	2800e71e 	bne	r5,zero,28068 <_realloc_r+0x4a8>
   27ccc:	30800530 	cmpltui	r2,r6,20
   27cd0:	1000e31e 	bne	r2,zero,28060 <_realloc_r+0x4a0>
   27cd4:	80c00017 	ldw	r3,0(r16)
   27cd8:	30800728 	cmpgeui	r2,r6,28
   27cdc:	e0c00215 	stw	r3,8(fp)
   27ce0:	80c00117 	ldw	r3,4(r16)
   27ce4:	e0c00315 	stw	r3,12(fp)
   27ce8:	1000fa1e 	bne	r2,zero,280d4 <_realloc_r+0x514>
   27cec:	84000204 	addi	r16,r16,8
   27cf0:	e0800404 	addi	r2,fp,16
   27cf4:	80c00017 	ldw	r3,0(r16)
   27cf8:	b825883a 	mov	r18,r23
   27cfc:	10c00015 	stw	r3,0(r2)
   27d00:	80c00117 	ldw	r3,4(r16)
   27d04:	e02d883a 	mov	r22,fp
   27d08:	10c00115 	stw	r3,4(r2)
   27d0c:	80c00217 	ldw	r3,8(r16)
   27d10:	2021883a 	mov	r16,r4
   27d14:	10c00215 	stw	r3,8(r2)
   27d18:	e4c00117 	ldw	r19,4(fp)
   27d1c:	9447c83a 	sub	r3,r18,r17
   27d20:	19000430 	cmpltui	r4,r3,16
   27d24:	9cc0004c 	andi	r19,r19,1
   27d28:	b485883a 	add	r2,r22,r18
   27d2c:	20004826 	beq	r4,zero,27e50 <_realloc_r+0x290>
   27d30:	94e6b03a 	or	r19,r18,r19
   27d34:	b4c00115 	stw	r19,4(r22)
   27d38:	10c00117 	ldw	r3,4(r2)
   27d3c:	18c00054 	ori	r3,r3,1
   27d40:	10c00115 	stw	r3,4(r2)
   27d44:	a809883a 	mov	r4,r21
   27d48:	002e1140 	call	2e114 <__malloc_unlock>
   27d4c:	8029883a 	mov	r20,r16
   27d50:	a005883a 	mov	r2,r20
   27d54:	dfc00a17 	ldw	ra,40(sp)
   27d58:	df000917 	ldw	fp,36(sp)
   27d5c:	ddc00817 	ldw	r23,32(sp)
   27d60:	dd800717 	ldw	r22,28(sp)
   27d64:	dd400617 	ldw	r21,24(sp)
   27d68:	dd000517 	ldw	r20,20(sp)
   27d6c:	dcc00417 	ldw	r19,16(sp)
   27d70:	dc800317 	ldw	r18,12(sp)
   27d74:	dc400217 	ldw	r17,8(sp)
   27d78:	dc000117 	ldw	r16,4(sp)
   27d7c:	dec00b04 	addi	sp,sp,44
   27d80:	f800283a 	ret
   27d84:	04400404 	movi	r17,16
   27d88:	8d3fa82e 	bgeu	r17,r20,27c2c <_realloc_r+0x6c>
   27d8c:	00800304 	movi	r2,12
   27d90:	a8800015 	stw	r2,0(r21)
   27d94:	0029883a 	mov	r20,zero
   27d98:	003fed06 	br	27d50 <_realloc_r+0x190>
   27d9c:	9cc0004c 	andi	r19,r19,1
   27da0:	98004e26 	beq	r19,zero,27edc <_realloc_r+0x31c>
   27da4:	a00b883a 	mov	r5,r20
   27da8:	a809883a 	mov	r4,r21
   27dac:	0025ec80 	call	25ec8 <_malloc_r>
   27db0:	1029883a 	mov	r20,r2
   27db4:	1000bd26 	beq	r2,zero,280ac <_realloc_r+0x4ec>
   27db8:	84ffff17 	ldw	r19,-4(r16)
   27dbc:	10fffe04 	addi	r3,r2,-8
   27dc0:	00bfff84 	movi	r2,-2
   27dc4:	9884703a 	and	r2,r19,r2
   27dc8:	b085883a 	add	r2,r22,r2
   27dcc:	10c03e26 	beq	r2,r3,27ec8 <_realloc_r+0x308>
   27dd0:	91bfff04 	addi	r6,r18,-4
   27dd4:	30800968 	cmpgeui	r2,r6,37
   27dd8:	10006e1e 	bne	r2,zero,27f94 <_realloc_r+0x3d4>
   27ddc:	30800530 	cmpltui	r2,r6,20
   27de0:	10004426 	beq	r2,zero,27ef4 <_realloc_r+0x334>
   27de4:	a005883a 	mov	r2,r20
   27de8:	8007883a 	mov	r3,r16
   27dec:	19000017 	ldw	r4,0(r3)
   27df0:	11000015 	stw	r4,0(r2)
   27df4:	19000117 	ldw	r4,4(r3)
   27df8:	11000115 	stw	r4,4(r2)
   27dfc:	18c00217 	ldw	r3,8(r3)
   27e00:	10c00215 	stw	r3,8(r2)
   27e04:	a809883a 	mov	r4,r21
   27e08:	800b883a 	mov	r5,r16
   27e0c:	00253900 	call	25390 <_free_r>
   27e10:	a809883a 	mov	r4,r21
   27e14:	002e1140 	call	2e114 <__malloc_unlock>
   27e18:	003fcd06 	br	27d50 <_realloc_r+0x190>
   27e1c:	300b883a 	mov	r5,r6
   27e20:	dfc00a17 	ldw	ra,40(sp)
   27e24:	df000917 	ldw	fp,36(sp)
   27e28:	ddc00817 	ldw	r23,32(sp)
   27e2c:	dd800717 	ldw	r22,28(sp)
   27e30:	dd400617 	ldw	r21,24(sp)
   27e34:	dd000517 	ldw	r20,20(sp)
   27e38:	dcc00417 	ldw	r19,16(sp)
   27e3c:	dc800317 	ldw	r18,12(sp)
   27e40:	dc400217 	ldw	r17,8(sp)
   27e44:	dc000117 	ldw	r16,4(sp)
   27e48:	dec00b04 	addi	sp,sp,44
   27e4c:	0025ec81 	jmpi	25ec8 <_malloc_r>
   27e50:	8ce6b03a 	or	r19,r17,r19
   27e54:	b4c00115 	stw	r19,4(r22)
   27e58:	b44b883a 	add	r5,r22,r17
   27e5c:	18c00054 	ori	r3,r3,1
   27e60:	28c00115 	stw	r3,4(r5)
   27e64:	10c00117 	ldw	r3,4(r2)
   27e68:	29400204 	addi	r5,r5,8
   27e6c:	a809883a 	mov	r4,r21
   27e70:	18c00054 	ori	r3,r3,1
   27e74:	10c00115 	stw	r3,4(r2)
   27e78:	00253900 	call	25390 <_free_r>
   27e7c:	003fb106 	br	27d44 <_realloc_r+0x184>
   27e80:	00ffff04 	movi	r3,-4
   27e84:	10c4703a 	and	r2,r2,r3
   27e88:	1487883a 	add	r3,r2,r18
   27e8c:	89800404 	addi	r6,r17,16
   27e90:	19bf7716 	blt	r3,r6,27c70 <_realloc_r+0xb0>
   27e94:	b46d883a 	add	r22,r22,r17
   27e98:	1c45c83a 	sub	r2,r3,r17
   27e9c:	bd800215 	stw	r22,8(r23)
   27ea0:	10800054 	ori	r2,r2,1
   27ea4:	b0800115 	stw	r2,4(r22)
   27ea8:	80bfff17 	ldw	r2,-4(r16)
   27eac:	a809883a 	mov	r4,r21
   27eb0:	8029883a 	mov	r20,r16
   27eb4:	1080004c 	andi	r2,r2,1
   27eb8:	1444b03a 	or	r2,r2,r17
   27ebc:	80bfff15 	stw	r2,-4(r16)
   27ec0:	002e1140 	call	2e114 <__malloc_unlock>
   27ec4:	003fa206 	br	27d50 <_realloc_r+0x190>
   27ec8:	a0bfff17 	ldw	r2,-4(r20)
   27ecc:	00ffff04 	movi	r3,-4
   27ed0:	10c4703a 	and	r2,r2,r3
   27ed4:	90a5883a 	add	r18,r18,r2
   27ed8:	003f9006 	br	27d1c <_realloc_r+0x15c>
   27edc:	873ffe17 	ldw	fp,-8(r16)
   27ee0:	00bfff04 	movi	r2,-4
   27ee4:	b739c83a 	sub	fp,r22,fp
   27ee8:	e0c00117 	ldw	r3,4(fp)
   27eec:	1886703a 	and	r3,r3,r2
   27ef0:	003f6b06 	br	27ca0 <_realloc_r+0xe0>
   27ef4:	80c00017 	ldw	r3,0(r16)
   27ef8:	30800728 	cmpgeui	r2,r6,28
   27efc:	a0c00015 	stw	r3,0(r20)
   27f00:	80c00117 	ldw	r3,4(r16)
   27f04:	a0c00115 	stw	r3,4(r20)
   27f08:	10004c1e 	bne	r2,zero,2803c <_realloc_r+0x47c>
   27f0c:	80c00204 	addi	r3,r16,8
   27f10:	a0800204 	addi	r2,r20,8
   27f14:	003fb506 	br	27dec <_realloc_r+0x22c>
   27f18:	20800317 	ldw	r2,12(r4)
   27f1c:	20c00217 	ldw	r3,8(r4)
   27f20:	91bfff04 	addi	r6,r18,-4
   27f24:	31400968 	cmpgeui	r5,r6,37
   27f28:	18800315 	stw	r2,12(r3)
   27f2c:	10c00215 	stw	r3,8(r2)
   27f30:	e0c00217 	ldw	r3,8(fp)
   27f34:	e0800317 	ldw	r2,12(fp)
   27f38:	e1000204 	addi	r4,fp,8
   27f3c:	18800315 	stw	r2,12(r3)
   27f40:	10c00215 	stw	r3,8(r2)
   27f44:	2800511e 	bne	r5,zero,2808c <_realloc_r+0x4cc>
   27f48:	30800530 	cmpltui	r2,r6,20
   27f4c:	10004d1e 	bne	r2,zero,28084 <_realloc_r+0x4c4>
   27f50:	80c00017 	ldw	r3,0(r16)
   27f54:	30800728 	cmpgeui	r2,r6,28
   27f58:	e0c00215 	stw	r3,8(fp)
   27f5c:	80c00117 	ldw	r3,4(r16)
   27f60:	e0c00315 	stw	r3,12(fp)
   27f64:	1000641e 	bne	r2,zero,280f8 <_realloc_r+0x538>
   27f68:	84000204 	addi	r16,r16,8
   27f6c:	e0800404 	addi	r2,fp,16
   27f70:	80c00017 	ldw	r3,0(r16)
   27f74:	3825883a 	mov	r18,r7
   27f78:	003f6006 	br	27cfc <_realloc_r+0x13c>
   27f7c:	20800317 	ldw	r2,12(r4)
   27f80:	21000217 	ldw	r4,8(r4)
   27f84:	1825883a 	mov	r18,r3
   27f88:	20800315 	stw	r2,12(r4)
   27f8c:	11000215 	stw	r4,8(r2)
   27f90:	003f6206 	br	27d1c <_realloc_r+0x15c>
   27f94:	800b883a 	mov	r5,r16
   27f98:	a009883a 	mov	r4,r20
   27f9c:	002684c0 	call	2684c <memmove>
   27fa0:	003f9806 	br	27e04 <_realloc_r+0x244>
   27fa4:	88800404 	addi	r2,r17,16
   27fa8:	38bf3d16 	blt	r7,r2,27ca0 <_realloc_r+0xe0>
   27fac:	e0800317 	ldw	r2,12(fp)
   27fb0:	e0c00217 	ldw	r3,8(fp)
   27fb4:	91bfff04 	addi	r6,r18,-4
   27fb8:	31000968 	cmpgeui	r4,r6,37
   27fbc:	18800315 	stw	r2,12(r3)
   27fc0:	10c00215 	stw	r3,8(r2)
   27fc4:	e5000204 	addi	r20,fp,8
   27fc8:	2000561e 	bne	r4,zero,28124 <_realloc_r+0x564>
   27fcc:	30800530 	cmpltui	r2,r6,20
   27fd0:	1000521e 	bne	r2,zero,2811c <_realloc_r+0x55c>
   27fd4:	80c00017 	ldw	r3,0(r16)
   27fd8:	30800728 	cmpgeui	r2,r6,28
   27fdc:	e0c00215 	stw	r3,8(fp)
   27fe0:	80c00117 	ldw	r3,4(r16)
   27fe4:	e0c00315 	stw	r3,12(fp)
   27fe8:	1000541e 	bne	r2,zero,2813c <_realloc_r+0x57c>
   27fec:	84000204 	addi	r16,r16,8
   27ff0:	e0800404 	addi	r2,fp,16
   27ff4:	80c00017 	ldw	r3,0(r16)
   27ff8:	10c00015 	stw	r3,0(r2)
   27ffc:	80c00117 	ldw	r3,4(r16)
   28000:	10c00115 	stw	r3,4(r2)
   28004:	80c00217 	ldw	r3,8(r16)
   28008:	10c00215 	stw	r3,8(r2)
   2800c:	e447883a 	add	r3,fp,r17
   28010:	3c45c83a 	sub	r2,r7,r17
   28014:	b8c00215 	stw	r3,8(r23)
   28018:	10800054 	ori	r2,r2,1
   2801c:	18800115 	stw	r2,4(r3)
   28020:	e0800117 	ldw	r2,4(fp)
   28024:	a809883a 	mov	r4,r21
   28028:	1080004c 	andi	r2,r2,1
   2802c:	1444b03a 	or	r2,r2,r17
   28030:	e0800115 	stw	r2,4(fp)
   28034:	002e1140 	call	2e114 <__malloc_unlock>
   28038:	003f4506 	br	27d50 <_realloc_r+0x190>
   2803c:	80800217 	ldw	r2,8(r16)
   28040:	31800920 	cmpeqi	r6,r6,36
   28044:	a0800215 	stw	r2,8(r20)
   28048:	80800317 	ldw	r2,12(r16)
   2804c:	a0800315 	stw	r2,12(r20)
   28050:	3000191e 	bne	r6,zero,280b8 <_realloc_r+0x4f8>
   28054:	80c00404 	addi	r3,r16,16
   28058:	a0800404 	addi	r2,r20,16
   2805c:	003f6306 	br	27dec <_realloc_r+0x22c>
   28060:	2005883a 	mov	r2,r4
   28064:	003f2306 	br	27cf4 <_realloc_r+0x134>
   28068:	800b883a 	mov	r5,r16
   2806c:	002684c0 	call	2684c <memmove>
   28070:	1021883a 	mov	r16,r2
   28074:	e4c00117 	ldw	r19,4(fp)
   28078:	b825883a 	mov	r18,r23
   2807c:	e02d883a 	mov	r22,fp
   28080:	003f2606 	br	27d1c <_realloc_r+0x15c>
   28084:	2005883a 	mov	r2,r4
   28088:	003fb906 	br	27f70 <_realloc_r+0x3b0>
   2808c:	800b883a 	mov	r5,r16
   28090:	d9c00015 	stw	r7,0(sp)
   28094:	002684c0 	call	2684c <memmove>
   28098:	d9c00017 	ldw	r7,0(sp)
   2809c:	1021883a 	mov	r16,r2
   280a0:	e02d883a 	mov	r22,fp
   280a4:	3825883a 	mov	r18,r7
   280a8:	003f1c06 	br	27d1c <_realloc_r+0x15c>
   280ac:	a809883a 	mov	r4,r21
   280b0:	002e1140 	call	2e114 <__malloc_unlock>
   280b4:	003f3706 	br	27d94 <_realloc_r+0x1d4>
   280b8:	81000417 	ldw	r4,16(r16)
   280bc:	80c00604 	addi	r3,r16,24
   280c0:	a0800604 	addi	r2,r20,24
   280c4:	a1000415 	stw	r4,16(r20)
   280c8:	81000517 	ldw	r4,20(r16)
   280cc:	a1000515 	stw	r4,20(r20)
   280d0:	003f4606 	br	27dec <_realloc_r+0x22c>
   280d4:	80800217 	ldw	r2,8(r16)
   280d8:	31800920 	cmpeqi	r6,r6,36
   280dc:	e0800415 	stw	r2,16(fp)
   280e0:	80800317 	ldw	r2,12(r16)
   280e4:	e0800515 	stw	r2,20(fp)
   280e8:	30001d1e 	bne	r6,zero,28160 <_realloc_r+0x5a0>
   280ec:	84000404 	addi	r16,r16,16
   280f0:	e0800604 	addi	r2,fp,24
   280f4:	003eff06 	br	27cf4 <_realloc_r+0x134>
   280f8:	80800217 	ldw	r2,8(r16)
   280fc:	31800920 	cmpeqi	r6,r6,36
   28100:	e0800415 	stw	r2,16(fp)
   28104:	80800317 	ldw	r2,12(r16)
   28108:	e0800515 	stw	r2,20(fp)
   2810c:	30001b1e 	bne	r6,zero,2817c <_realloc_r+0x5bc>
   28110:	84000404 	addi	r16,r16,16
   28114:	e0800604 	addi	r2,fp,24
   28118:	003f9506 	br	27f70 <_realloc_r+0x3b0>
   2811c:	a005883a 	mov	r2,r20
   28120:	003fb406 	br	27ff4 <_realloc_r+0x434>
   28124:	800b883a 	mov	r5,r16
   28128:	a009883a 	mov	r4,r20
   2812c:	d9c00015 	stw	r7,0(sp)
   28130:	002684c0 	call	2684c <memmove>
   28134:	d9c00017 	ldw	r7,0(sp)
   28138:	003fb406 	br	2800c <_realloc_r+0x44c>
   2813c:	80800217 	ldw	r2,8(r16)
   28140:	31800920 	cmpeqi	r6,r6,36
   28144:	e0800415 	stw	r2,16(fp)
   28148:	80800317 	ldw	r2,12(r16)
   2814c:	e0800515 	stw	r2,20(fp)
   28150:	3000111e 	bne	r6,zero,28198 <_realloc_r+0x5d8>
   28154:	84000404 	addi	r16,r16,16
   28158:	e0800604 	addi	r2,fp,24
   2815c:	003fa506 	br	27ff4 <_realloc_r+0x434>
   28160:	80c00417 	ldw	r3,16(r16)
   28164:	84000604 	addi	r16,r16,24
   28168:	e0800804 	addi	r2,fp,32
   2816c:	e0c00615 	stw	r3,24(fp)
   28170:	80ffff17 	ldw	r3,-4(r16)
   28174:	e0c00715 	stw	r3,28(fp)
   28178:	003ede06 	br	27cf4 <_realloc_r+0x134>
   2817c:	80c00417 	ldw	r3,16(r16)
   28180:	84000604 	addi	r16,r16,24
   28184:	e0800804 	addi	r2,fp,32
   28188:	e0c00615 	stw	r3,24(fp)
   2818c:	80ffff17 	ldw	r3,-4(r16)
   28190:	e0c00715 	stw	r3,28(fp)
   28194:	003f7606 	br	27f70 <_realloc_r+0x3b0>
   28198:	80c00417 	ldw	r3,16(r16)
   2819c:	84000604 	addi	r16,r16,24
   281a0:	e0800804 	addi	r2,fp,32
   281a4:	e0c00615 	stw	r3,24(fp)
   281a8:	80ffff17 	ldw	r3,-4(r16)
   281ac:	e0c00715 	stw	r3,28(fp)
   281b0:	003f9006 	br	27ff4 <_realloc_r+0x434>

000281b4 <_sbrk_r>:
   281b4:	defffe04 	addi	sp,sp,-8
   281b8:	dc000015 	stw	r16,0(sp)
   281bc:	008000f4 	movhi	r2,3
   281c0:	2021883a 	mov	r16,r4
   281c4:	2809883a 	mov	r4,r5
   281c8:	dfc00115 	stw	ra,4(sp)
   281cc:	10116215 	stw	zero,17800(r2)
   281d0:	002e2c80 	call	2e2c8 <sbrk>
   281d4:	10ffffd8 	cmpnei	r3,r2,-1
   281d8:	18000426 	beq	r3,zero,281ec <_sbrk_r+0x38>
   281dc:	dfc00117 	ldw	ra,4(sp)
   281e0:	dc000017 	ldw	r16,0(sp)
   281e4:	dec00204 	addi	sp,sp,8
   281e8:	f800283a 	ret
   281ec:	00c000f4 	movhi	r3,3
   281f0:	18d16217 	ldw	r3,17800(r3)
   281f4:	183ff926 	beq	r3,zero,281dc <_sbrk_r+0x28>
   281f8:	80c00015 	stw	r3,0(r16)
   281fc:	dfc00117 	ldw	ra,4(sp)
   28200:	dc000017 	ldw	r16,0(sp)
   28204:	dec00204 	addi	sp,sp,8
   28208:	f800283a 	ret

0002820c <__sread>:
   2820c:	defffe04 	addi	sp,sp,-8
   28210:	dc000015 	stw	r16,0(sp)
   28214:	2821883a 	mov	r16,r5
   28218:	2940038f 	ldh	r5,14(r5)
   2821c:	dfc00115 	stw	ra,4(sp)
   28220:	0029fec0 	call	29fec <_read_r>
   28224:	10000716 	blt	r2,zero,28244 <__sread+0x38>
   28228:	80c01417 	ldw	r3,80(r16)
   2822c:	1887883a 	add	r3,r3,r2
   28230:	80c01415 	stw	r3,80(r16)
   28234:	dfc00117 	ldw	ra,4(sp)
   28238:	dc000017 	ldw	r16,0(sp)
   2823c:	dec00204 	addi	sp,sp,8
   28240:	f800283a 	ret
   28244:	80c0030b 	ldhu	r3,12(r16)
   28248:	18fbffcc 	andi	r3,r3,61439
   2824c:	80c0030d 	sth	r3,12(r16)
   28250:	dfc00117 	ldw	ra,4(sp)
   28254:	dc000017 	ldw	r16,0(sp)
   28258:	dec00204 	addi	sp,sp,8
   2825c:	f800283a 	ret

00028260 <__seofread>:
   28260:	0005883a 	mov	r2,zero
   28264:	f800283a 	ret

00028268 <__swrite>:
   28268:	2880030b 	ldhu	r2,12(r5)
   2826c:	defffb04 	addi	sp,sp,-20
   28270:	dcc00315 	stw	r19,12(sp)
   28274:	dc800215 	stw	r18,8(sp)
   28278:	dc400115 	stw	r17,4(sp)
   2827c:	dc000015 	stw	r16,0(sp)
   28280:	dfc00415 	stw	ra,16(sp)
   28284:	10c0400c 	andi	r3,r2,256
   28288:	2821883a 	mov	r16,r5
   2828c:	2023883a 	mov	r17,r4
   28290:	3025883a 	mov	r18,r6
   28294:	3827883a 	mov	r19,r7
   28298:	18000d1e 	bne	r3,zero,282d0 <__swrite+0x68>
   2829c:	8140038f 	ldh	r5,14(r16)
   282a0:	10bbffcc 	andi	r2,r2,61439
   282a4:	980f883a 	mov	r7,r19
   282a8:	900d883a 	mov	r6,r18
   282ac:	8809883a 	mov	r4,r17
   282b0:	8080030d 	sth	r2,12(r16)
   282b4:	dfc00417 	ldw	ra,16(sp)
   282b8:	dcc00317 	ldw	r19,12(sp)
   282bc:	dc800217 	ldw	r18,8(sp)
   282c0:	dc400117 	ldw	r17,4(sp)
   282c4:	dc000017 	ldw	r16,0(sp)
   282c8:	dec00504 	addi	sp,sp,20
   282cc:	00297a81 	jmpi	297a8 <_write_r>
   282d0:	2940038f 	ldh	r5,14(r5)
   282d4:	01c00084 	movi	r7,2
   282d8:	000d883a 	mov	r6,zero
   282dc:	0029f380 	call	29f38 <_lseek_r>
   282e0:	8080030b 	ldhu	r2,12(r16)
   282e4:	003fed06 	br	2829c <__swrite+0x34>

000282e8 <__sseek>:
   282e8:	defffe04 	addi	sp,sp,-8
   282ec:	dc000015 	stw	r16,0(sp)
   282f0:	2821883a 	mov	r16,r5
   282f4:	2940038f 	ldh	r5,14(r5)
   282f8:	dfc00115 	stw	ra,4(sp)
   282fc:	0029f380 	call	29f38 <_lseek_r>
   28300:	10ffffd8 	cmpnei	r3,r2,-1
   28304:	18000826 	beq	r3,zero,28328 <__sseek+0x40>
   28308:	80c0030b 	ldhu	r3,12(r16)
   2830c:	80801415 	stw	r2,80(r16)
   28310:	18c40014 	ori	r3,r3,4096
   28314:	80c0030d 	sth	r3,12(r16)
   28318:	dfc00117 	ldw	ra,4(sp)
   2831c:	dc000017 	ldw	r16,0(sp)
   28320:	dec00204 	addi	sp,sp,8
   28324:	f800283a 	ret
   28328:	80c0030b 	ldhu	r3,12(r16)
   2832c:	18fbffcc 	andi	r3,r3,61439
   28330:	80c0030d 	sth	r3,12(r16)
   28334:	dfc00117 	ldw	ra,4(sp)
   28338:	dc000017 	ldw	r16,0(sp)
   2833c:	dec00204 	addi	sp,sp,8
   28340:	f800283a 	ret

00028344 <__sclose>:
   28344:	2940038f 	ldh	r5,14(r5)
   28348:	002980c1 	jmpi	2980c <_close_r>

0002834c <__sprint_r.part.0>:
   2834c:	28801917 	ldw	r2,100(r5)
   28350:	defff604 	addi	sp,sp,-40
   28354:	dcc00315 	stw	r19,12(sp)
   28358:	dfc00915 	stw	ra,36(sp)
   2835c:	df000815 	stw	fp,32(sp)
   28360:	ddc00715 	stw	r23,28(sp)
   28364:	dd800615 	stw	r22,24(sp)
   28368:	dd400515 	stw	r21,20(sp)
   2836c:	dd000415 	stw	r20,16(sp)
   28370:	dc800215 	stw	r18,8(sp)
   28374:	dc400115 	stw	r17,4(sp)
   28378:	dc000015 	stw	r16,0(sp)
   2837c:	1088000c 	andi	r2,r2,8192
   28380:	3027883a 	mov	r19,r6
   28384:	10002c26 	beq	r2,zero,28438 <__sprint_r.part.0+0xec>
   28388:	30800217 	ldw	r2,8(r6)
   2838c:	35000017 	ldw	r20,0(r6)
   28390:	2821883a 	mov	r16,r5
   28394:	2023883a 	mov	r17,r4
   28398:	05bfff04 	movi	r22,-4
   2839c:	10002426 	beq	r2,zero,28430 <__sprint_r.part.0+0xe4>
   283a0:	a5400117 	ldw	r21,4(r20)
   283a4:	a5c00017 	ldw	r23,0(r20)
   283a8:	a824d0ba 	srli	r18,r21,2
   283ac:	90001b26 	beq	r18,zero,2841c <__sprint_r.part.0+0xd0>
   283b0:	0039883a 	mov	fp,zero
   283b4:	00000206 	br	283c0 <__sprint_r.part.0+0x74>
   283b8:	bdc00104 	addi	r23,r23,4
   283bc:	97001626 	beq	r18,fp,28418 <__sprint_r.part.0+0xcc>
   283c0:	b9400017 	ldw	r5,0(r23)
   283c4:	800d883a 	mov	r6,r16
   283c8:	8809883a 	mov	r4,r17
   283cc:	0029cf00 	call	29cf0 <_fputwc_r>
   283d0:	10bfffe0 	cmpeqi	r2,r2,-1
   283d4:	e7000044 	addi	fp,fp,1
   283d8:	103ff726 	beq	r2,zero,283b8 <__sprint_r.part.0+0x6c>
   283dc:	00bfffc4 	movi	r2,-1
   283e0:	98000215 	stw	zero,8(r19)
   283e4:	98000115 	stw	zero,4(r19)
   283e8:	dfc00917 	ldw	ra,36(sp)
   283ec:	df000817 	ldw	fp,32(sp)
   283f0:	ddc00717 	ldw	r23,28(sp)
   283f4:	dd800617 	ldw	r22,24(sp)
   283f8:	dd400517 	ldw	r21,20(sp)
   283fc:	dd000417 	ldw	r20,16(sp)
   28400:	dcc00317 	ldw	r19,12(sp)
   28404:	dc800217 	ldw	r18,8(sp)
   28408:	dc400117 	ldw	r17,4(sp)
   2840c:	dc000017 	ldw	r16,0(sp)
   28410:	dec00a04 	addi	sp,sp,40
   28414:	f800283a 	ret
   28418:	98800217 	ldw	r2,8(r19)
   2841c:	adaa703a 	and	r21,r21,r22
   28420:	1545c83a 	sub	r2,r2,r21
   28424:	98800215 	stw	r2,8(r19)
   28428:	a5000204 	addi	r20,r20,8
   2842c:	103fdc1e 	bne	r2,zero,283a0 <__sprint_r.part.0+0x54>
   28430:	0005883a 	mov	r2,zero
   28434:	003fea06 	br	283e0 <__sprint_r.part.0+0x94>
   28438:	00256980 	call	25698 <__sfvwrite_r>
   2843c:	003fe806 	br	283e0 <__sprint_r.part.0+0x94>

00028440 <__sprint_r>:
   28440:	30c00217 	ldw	r3,8(r6)
   28444:	18000126 	beq	r3,zero,2844c <__sprint_r+0xc>
   28448:	002834c1 	jmpi	2834c <__sprint_r.part.0>
   2844c:	30000115 	stw	zero,4(r6)
   28450:	0005883a 	mov	r2,zero
   28454:	f800283a 	ret

00028458 <___vfiprintf_internal_r>:
   28458:	deffcf04 	addi	sp,sp,-196
   2845c:	dd002b15 	stw	r20,172(sp)
   28460:	dc802915 	stw	r18,164(sp)
   28464:	dfc03015 	stw	ra,192(sp)
   28468:	df002f15 	stw	fp,188(sp)
   2846c:	ddc02e15 	stw	r23,184(sp)
   28470:	dd802d15 	stw	r22,180(sp)
   28474:	dd402c15 	stw	r21,176(sp)
   28478:	dcc02a15 	stw	r19,168(sp)
   2847c:	dc402815 	stw	r17,160(sp)
   28480:	dc002715 	stw	r16,156(sp)
   28484:	d9000015 	stw	r4,0(sp)
   28488:	d9c00315 	stw	r7,12(sp)
   2848c:	2825883a 	mov	r18,r5
   28490:	3029883a 	mov	r20,r6
   28494:	20000226 	beq	r4,zero,284a0 <___vfiprintf_internal_r+0x48>
   28498:	20800e17 	ldw	r2,56(r4)
   2849c:	1001b526 	beq	r2,zero,28b74 <___vfiprintf_internal_r+0x71c>
   284a0:	9080030b 	ldhu	r2,12(r18)
   284a4:	10c8000c 	andi	r3,r2,8192
   284a8:	1800071e 	bne	r3,zero,284c8 <___vfiprintf_internal_r+0x70>
   284ac:	90c01917 	ldw	r3,100(r18)
   284b0:	11080014 	ori	r4,r2,8192
   284b4:	00b7ffc4 	movi	r2,-8193
   284b8:	1886703a 	and	r3,r3,r2
   284bc:	9100030d 	sth	r4,12(r18)
   284c0:	2005883a 	mov	r2,r4
   284c4:	90c01915 	stw	r3,100(r18)
   284c8:	10c0020c 	andi	r3,r2,8
   284cc:	1800fd26 	beq	r3,zero,288c4 <___vfiprintf_internal_r+0x46c>
   284d0:	90c00417 	ldw	r3,16(r18)
   284d4:	1800fb26 	beq	r3,zero,288c4 <___vfiprintf_internal_r+0x46c>
   284d8:	1080068c 	andi	r2,r2,26
   284dc:	10800298 	cmpnei	r2,r2,10
   284e0:	10010026 	beq	r2,zero,288e4 <___vfiprintf_internal_r+0x48c>
   284e4:	dcc01704 	addi	r19,sp,92
   284e8:	05c000f4 	movhi	r23,3
   284ec:	dcc00a15 	stw	r19,40(sp)
   284f0:	d8000c15 	stw	zero,48(sp)
   284f4:	d8000b15 	stw	zero,44(sp)
   284f8:	9811883a 	mov	r8,r19
   284fc:	d8000515 	stw	zero,20(sp)
   28500:	d8000115 	stw	zero,4(sp)
   28504:	bdc22f04 	addi	r23,r23,2236
   28508:	a0800007 	ldb	r2,0(r20)
   2850c:	1000db26 	beq	r2,zero,2887c <___vfiprintf_internal_r+0x424>
   28510:	a021883a 	mov	r16,r20
   28514:	00000306 	br	28524 <___vfiprintf_internal_r+0xcc>
   28518:	80800047 	ldb	r2,1(r16)
   2851c:	84000044 	addi	r16,r16,1
   28520:	10011826 	beq	r2,zero,28984 <___vfiprintf_internal_r+0x52c>
   28524:	10800958 	cmpnei	r2,r2,37
   28528:	103ffb1e 	bne	r2,zero,28518 <___vfiprintf_internal_r+0xc0>
   2852c:	8523c83a 	sub	r17,r16,r20
   28530:	8501161e 	bne	r16,r20,2898c <___vfiprintf_internal_r+0x534>
   28534:	80800003 	ldbu	r2,0(r16)
   28538:	10803fcc 	andi	r2,r2,255
   2853c:	1080201c 	xori	r2,r2,128
   28540:	10bfe004 	addi	r2,r2,-128
   28544:	1000cd26 	beq	r2,zero,2887c <___vfiprintf_internal_r+0x424>
   28548:	80800047 	ldb	r2,1(r16)
   2854c:	85000044 	addi	r20,r16,1
   28550:	d8000945 	stb	zero,37(sp)
   28554:	027fffc4 	movi	r9,-1
   28558:	0023883a 	mov	r17,zero
   2855c:	0021883a 	mov	r16,zero
   28560:	a5000044 	addi	r20,r20,1
   28564:	10fff804 	addi	r3,r2,-32
   28568:	19001668 	cmpgeui	r4,r3,89
   2856c:	20006a1e 	bne	r4,zero,28718 <___vfiprintf_internal_r+0x2c0>
   28570:	180690ba 	slli	r3,r3,2
   28574:	010000f4 	movhi	r4,3
   28578:	1909883a 	add	r4,r3,r4
   2857c:	20e16117 	ldw	r3,-31356(r4)
   28580:	1800683a 	jmp	r3
   28584:	00028c18 	cmpnei	zero,zero,2608
   28588:	00028718 	cmpnei	zero,zero,2588
   2858c:	00028718 	cmpnei	zero,zero,2588
   28590:	00028c0c 	andi	zero,zero,2608
   28594:	00028718 	cmpnei	zero,zero,2588
   28598:	00028718 	cmpnei	zero,zero,2588
   2859c:	00028718 	cmpnei	zero,zero,2588
   285a0:	00028718 	cmpnei	zero,zero,2588
   285a4:	00028718 	cmpnei	zero,zero,2588
   285a8:	00028718 	cmpnei	zero,zero,2588
   285ac:	00028b88 	cmpgei	zero,zero,2606
   285b0:	00028bfc 	xorhi	zero,zero,2607
   285b4:	00028718 	cmpnei	zero,zero,2588
   285b8:	00028ba0 	cmpeqi	zero,zero,2606
   285bc:	00028bac 	andhi	zero,zero,2606
   285c0:	00028718 	cmpnei	zero,zero,2588
   285c4:	00028bf0 	cmpltui	zero,zero,2607
   285c8:	000286e8 	cmpgeui	zero,zero,2587
   285cc:	000286e8 	cmpgeui	zero,zero,2587
   285d0:	000286e8 	cmpgeui	zero,zero,2587
   285d4:	000286e8 	cmpgeui	zero,zero,2587
   285d8:	000286e8 	cmpgeui	zero,zero,2587
   285dc:	000286e8 	cmpgeui	zero,zero,2587
   285e0:	000286e8 	cmpgeui	zero,zero,2587
   285e4:	000286e8 	cmpgeui	zero,zero,2587
   285e8:	000286e8 	cmpgeui	zero,zero,2587
   285ec:	00028718 	cmpnei	zero,zero,2588
   285f0:	00028718 	cmpnei	zero,zero,2588
   285f4:	00028718 	cmpnei	zero,zero,2588
   285f8:	00028718 	cmpnei	zero,zero,2588
   285fc:	00028718 	cmpnei	zero,zero,2588
   28600:	00028718 	cmpnei	zero,zero,2588
   28604:	00028718 	cmpnei	zero,zero,2588
   28608:	00028718 	cmpnei	zero,zero,2588
   2860c:	00028718 	cmpnei	zero,zero,2588
   28610:	00028718 	cmpnei	zero,zero,2588
   28614:	0002892c 	andhi	zero,zero,2596
   28618:	00028718 	cmpnei	zero,zero,2588
   2861c:	00028718 	cmpnei	zero,zero,2588
   28620:	00028718 	cmpnei	zero,zero,2588
   28624:	00028718 	cmpnei	zero,zero,2588
   28628:	00028718 	cmpnei	zero,zero,2588
   2862c:	00028718 	cmpnei	zero,zero,2588
   28630:	00028718 	cmpnei	zero,zero,2588
   28634:	00028718 	cmpnei	zero,zero,2588
   28638:	00028718 	cmpnei	zero,zero,2588
   2863c:	00028718 	cmpnei	zero,zero,2588
   28640:	00028d34 	movhi	zero,2612
   28644:	00028718 	cmpnei	zero,zero,2588
   28648:	00028718 	cmpnei	zero,zero,2588
   2864c:	00028718 	cmpnei	zero,zero,2588
   28650:	00028718 	cmpnei	zero,zero,2588
   28654:	00028718 	cmpnei	zero,zero,2588
   28658:	00028cd0 	cmplti	zero,zero,2611
   2865c:	00028718 	cmpnei	zero,zero,2588
   28660:	00028718 	cmpnei	zero,zero,2588
   28664:	000294a8 	cmpgeui	zero,zero,2642
   28668:	00028718 	cmpnei	zero,zero,2588
   2866c:	00028718 	cmpnei	zero,zero,2588
   28670:	00028718 	cmpnei	zero,zero,2588
   28674:	00028718 	cmpnei	zero,zero,2588
   28678:	00028718 	cmpnei	zero,zero,2588
   2867c:	00028718 	cmpnei	zero,zero,2588
   28680:	00028718 	cmpnei	zero,zero,2588
   28684:	00028718 	cmpnei	zero,zero,2588
   28688:	00028718 	cmpnei	zero,zero,2588
   2868c:	00028718 	cmpnei	zero,zero,2588
   28690:	00028ca8 	cmpgeui	zero,zero,2610
   28694:	00028930 	cmpltui	zero,zero,2596
   28698:	00028718 	cmpnei	zero,zero,2588
   2869c:	00028718 	cmpnei	zero,zero,2588
   286a0:	00028718 	cmpnei	zero,zero,2588
   286a4:	00028c9c 	xori	zero,zero,2610
   286a8:	00028930 	cmpltui	zero,zero,2596
   286ac:	00028718 	cmpnei	zero,zero,2588
   286b0:	00028718 	cmpnei	zero,zero,2588
   286b4:	00028c88 	cmpgei	zero,zero,2610
   286b8:	00028718 	cmpnei	zero,zero,2588
   286bc:	00028c58 	cmpnei	zero,zero,2609
   286c0:	00029504 	movi	zero,2644
   286c4:	00028e48 	cmpgei	zero,zero,2617
   286c8:	00028e3c 	xorhi	zero,zero,2616
   286cc:	00028718 	cmpnei	zero,zero,2588
   286d0:	00028de4 	muli	zero,zero,2615
   286d4:	00028718 	cmpnei	zero,zero,2588
   286d8:	000294a0 	cmpeqi	zero,zero,2642
   286dc:	00028718 	cmpnei	zero,zero,2588
   286e0:	00028718 	cmpnei	zero,zero,2588
   286e4:	00029530 	cmpltui	zero,zero,2644
   286e8:	0023883a 	mov	r17,zero
   286ec:	10fff404 	addi	r3,r2,-48
   286f0:	a0800007 	ldb	r2,0(r20)
   286f4:	8c4002a4 	muli	r17,r17,10
   286f8:	a5000044 	addi	r20,r20,1
   286fc:	1c63883a 	add	r17,r3,r17
   28700:	10fff404 	addi	r3,r2,-48
   28704:	190002b0 	cmpltui	r4,r3,10
   28708:	203ff91e 	bne	r4,zero,286f0 <___vfiprintf_internal_r+0x298>
   2870c:	10fff804 	addi	r3,r2,-32
   28710:	19001668 	cmpgeui	r4,r3,89
   28714:	203f9626 	beq	r4,zero,28570 <___vfiprintf_internal_r+0x118>
   28718:	10005826 	beq	r2,zero,2887c <___vfiprintf_internal_r+0x424>
   2871c:	d8800d05 	stb	r2,52(sp)
   28720:	d8000945 	stb	zero,37(sp)
   28724:	05800044 	movi	r22,1
   28728:	05400044 	movi	r21,1
   2872c:	df000d04 	addi	fp,sp,52
   28730:	0013883a 	mov	r9,zero
   28734:	8340008c 	andi	r13,r16,2
   28738:	68000126 	beq	r13,zero,28740 <___vfiprintf_internal_r+0x2e8>
   2873c:	b5800084 	addi	r22,r22,2
   28740:	d9000b17 	ldw	r4,44(sp)
   28744:	8300210c 	andi	r12,r16,132
   28748:	d8800c17 	ldw	r2,48(sp)
   2874c:	21800044 	addi	r6,r4,1
   28750:	300b883a 	mov	r5,r6
   28754:	6000021e 	bne	r12,zero,28760 <___vfiprintf_internal_r+0x308>
   28758:	8d87c83a 	sub	r3,r17,r22
   2875c:	00c28f16 	blt	zero,r3,2919c <___vfiprintf_internal_r+0xd44>
   28760:	d8c00947 	ldb	r3,37(sp)
   28764:	18000c26 	beq	r3,zero,28798 <___vfiprintf_internal_r+0x340>
   28768:	d8c00944 	addi	r3,sp,37
   2876c:	10800044 	addi	r2,r2,1
   28770:	40c00015 	stw	r3,0(r8)
   28774:	00c00044 	movi	r3,1
   28778:	40c00115 	stw	r3,4(r8)
   2877c:	d8800c15 	stw	r2,48(sp)
   28780:	d9400b15 	stw	r5,44(sp)
   28784:	28c00208 	cmpgei	r3,r5,8
   28788:	1802681e 	bne	r3,zero,2912c <___vfiprintf_internal_r+0xcd4>
   2878c:	2809883a 	mov	r4,r5
   28790:	42000204 	addi	r8,r8,8
   28794:	29400044 	addi	r5,r5,1
   28798:	68001726 	beq	r13,zero,287f8 <___vfiprintf_internal_r+0x3a0>
   2879c:	d8c00984 	addi	r3,sp,38
   287a0:	10800084 	addi	r2,r2,2
   287a4:	40c00015 	stw	r3,0(r8)
   287a8:	00c00084 	movi	r3,2
   287ac:	40c00115 	stw	r3,4(r8)
   287b0:	d8800c15 	stw	r2,48(sp)
   287b4:	d9400b15 	stw	r5,44(sp)
   287b8:	28c00208 	cmpgei	r3,r5,8
   287bc:	18027326 	beq	r3,zero,2918c <___vfiprintf_internal_r+0xd34>
   287c0:	1002f626 	beq	r2,zero,2939c <___vfiprintf_internal_r+0xf44>
   287c4:	d9000017 	ldw	r4,0(sp)
   287c8:	d9800a04 	addi	r6,sp,40
   287cc:	900b883a 	mov	r5,r18
   287d0:	da400415 	stw	r9,16(sp)
   287d4:	db000215 	stw	r12,8(sp)
   287d8:	002834c0 	call	2834c <__sprint_r.part.0>
   287dc:	1000291e 	bne	r2,zero,28884 <___vfiprintf_internal_r+0x42c>
   287e0:	d9000b17 	ldw	r4,44(sp)
   287e4:	d8800c17 	ldw	r2,48(sp)
   287e8:	da400417 	ldw	r9,16(sp)
   287ec:	db000217 	ldw	r12,8(sp)
   287f0:	9811883a 	mov	r8,r19
   287f4:	21400044 	addi	r5,r4,1
   287f8:	63002018 	cmpnei	r12,r12,128
   287fc:	6001cf26 	beq	r12,zero,28f3c <___vfiprintf_internal_r+0xae4>
   28800:	4d53c83a 	sub	r9,r9,r21
   28804:	02420d16 	blt	zero,r9,2903c <___vfiprintf_internal_r+0xbe4>
   28808:	a885883a 	add	r2,r21,r2
   2880c:	d9400b15 	stw	r5,44(sp)
   28810:	47000015 	stw	fp,0(r8)
   28814:	45400115 	stw	r21,4(r8)
   28818:	d8800c15 	stw	r2,48(sp)
   2881c:	29400208 	cmpgei	r5,r5,8
   28820:	2801c026 	beq	r5,zero,28f24 <___vfiprintf_internal_r+0xacc>
   28824:	10007126 	beq	r2,zero,289ec <___vfiprintf_internal_r+0x594>
   28828:	d9000017 	ldw	r4,0(sp)
   2882c:	d9800a04 	addi	r6,sp,40
   28830:	900b883a 	mov	r5,r18
   28834:	002834c0 	call	2834c <__sprint_r.part.0>
   28838:	1000121e 	bne	r2,zero,28884 <___vfiprintf_internal_r+0x42c>
   2883c:	d8800c17 	ldw	r2,48(sp)
   28840:	9811883a 	mov	r8,r19
   28844:	8400010c 	andi	r16,r16,4
   28848:	80000226 	beq	r16,zero,28854 <___vfiprintf_internal_r+0x3fc>
   2884c:	8da1c83a 	sub	r16,r17,r22
   28850:	04006c16 	blt	zero,r16,28a04 <___vfiprintf_internal_r+0x5ac>
   28854:	8d80010e 	bge	r17,r22,2885c <___vfiprintf_internal_r+0x404>
   28858:	b023883a 	mov	r17,r22
   2885c:	d8c00117 	ldw	r3,4(sp)
   28860:	1c47883a 	add	r3,r3,r17
   28864:	d8c00115 	stw	r3,4(sp)
   28868:	1002261e 	bne	r2,zero,29104 <___vfiprintf_internal_r+0xcac>
   2886c:	a0800007 	ldb	r2,0(r20)
   28870:	d8000b15 	stw	zero,44(sp)
   28874:	9811883a 	mov	r8,r19
   28878:	103f251e 	bne	r2,zero,28510 <___vfiprintf_internal_r+0xb8>
   2887c:	d8800c17 	ldw	r2,48(sp)
   28880:	1003631e 	bne	r2,zero,29610 <___vfiprintf_internal_r+0x11b8>
   28884:	9080030b 	ldhu	r2,12(r18)
   28888:	1080100c 	andi	r2,r2,64
   2888c:	1003741e 	bne	r2,zero,29660 <___vfiprintf_internal_r+0x1208>
   28890:	d8800117 	ldw	r2,4(sp)
   28894:	dfc03017 	ldw	ra,192(sp)
   28898:	df002f17 	ldw	fp,188(sp)
   2889c:	ddc02e17 	ldw	r23,184(sp)
   288a0:	dd802d17 	ldw	r22,180(sp)
   288a4:	dd402c17 	ldw	r21,176(sp)
   288a8:	dd002b17 	ldw	r20,172(sp)
   288ac:	dcc02a17 	ldw	r19,168(sp)
   288b0:	dc802917 	ldw	r18,164(sp)
   288b4:	dc402817 	ldw	r17,160(sp)
   288b8:	dc002717 	ldw	r16,156(sp)
   288bc:	dec03104 	addi	sp,sp,196
   288c0:	f800283a 	ret
   288c4:	d9000017 	ldw	r4,0(sp)
   288c8:	900b883a 	mov	r5,r18
   288cc:	00230d40 	call	230d4 <__swsetup_r>
   288d0:	1003631e 	bne	r2,zero,29660 <___vfiprintf_internal_r+0x1208>
   288d4:	9080030b 	ldhu	r2,12(r18)
   288d8:	1080068c 	andi	r2,r2,26
   288dc:	10800298 	cmpnei	r2,r2,10
   288e0:	103f001e 	bne	r2,zero,284e4 <___vfiprintf_internal_r+0x8c>
   288e4:	9080038f 	ldh	r2,14(r18)
   288e8:	103efe16 	blt	r2,zero,284e4 <___vfiprintf_internal_r+0x8c>
   288ec:	d9c00317 	ldw	r7,12(sp)
   288f0:	d9000017 	ldw	r4,0(sp)
   288f4:	a00d883a 	mov	r6,r20
   288f8:	900b883a 	mov	r5,r18
   288fc:	dfc03017 	ldw	ra,192(sp)
   28900:	df002f17 	ldw	fp,188(sp)
   28904:	ddc02e17 	ldw	r23,184(sp)
   28908:	dd802d17 	ldw	r22,180(sp)
   2890c:	dd402c17 	ldw	r21,176(sp)
   28910:	dd002b17 	ldw	r20,172(sp)
   28914:	dcc02a17 	ldw	r19,168(sp)
   28918:	dc802917 	ldw	r18,164(sp)
   2891c:	dc402817 	ldw	r17,160(sp)
   28920:	dc002717 	ldw	r16,156(sp)
   28924:	dec03104 	addi	sp,sp,196
   28928:	00296e41 	jmpi	296e4 <__sbprintf>
   2892c:	84000414 	ori	r16,r16,16
   28930:	8080080c 	andi	r2,r16,32
   28934:	10006626 	beq	r2,zero,28ad0 <___vfiprintf_internal_r+0x678>
   28938:	d8c00317 	ldw	r3,12(sp)
   2893c:	18800117 	ldw	r2,4(r3)
   28940:	1d800017 	ldw	r22,0(r3)
   28944:	18c00204 	addi	r3,r3,8
   28948:	d8c00315 	stw	r3,12(sp)
   2894c:	102b883a 	mov	r21,r2
   28950:	10006d16 	blt	r2,zero,28b08 <___vfiprintf_internal_r+0x6b0>
   28954:	48bfffd8 	cmpnei	r2,r9,-1
   28958:	db000943 	ldbu	r12,37(sp)
   2895c:	10007526 	beq	r2,zero,28b34 <___vfiprintf_internal_r+0x6dc>
   28960:	00ffdfc4 	movi	r3,-129
   28964:	b544b03a 	or	r2,r22,r21
   28968:	80e0703a 	and	r16,r16,r3
   2896c:	1000711e 	bne	r2,zero,28b34 <___vfiprintf_internal_r+0x6dc>
   28970:	48033e1e 	bne	r9,zero,2966c <___vfiprintf_internal_r+0x1214>
   28974:	002d883a 	mov	r22,zero
   28978:	002b883a 	mov	r21,zero
   2897c:	9839883a 	mov	fp,r19
   28980:	00007606 	br	28b5c <___vfiprintf_internal_r+0x704>
   28984:	8523c83a 	sub	r17,r16,r20
   28988:	853fbc26 	beq	r16,r20,2887c <___vfiprintf_internal_r+0x424>
   2898c:	d8c00c17 	ldw	r3,48(sp)
   28990:	d8800b17 	ldw	r2,44(sp)
   28994:	45000015 	stw	r20,0(r8)
   28998:	88c7883a 	add	r3,r17,r3
   2899c:	10800044 	addi	r2,r2,1
   289a0:	d8800b15 	stw	r2,44(sp)
   289a4:	44400115 	stw	r17,4(r8)
   289a8:	d8c00c15 	stw	r3,48(sp)
   289ac:	10800208 	cmpgei	r2,r2,8
   289b0:	1000061e 	bne	r2,zero,289cc <___vfiprintf_internal_r+0x574>
   289b4:	42000204 	addi	r8,r8,8
   289b8:	d8c00117 	ldw	r3,4(sp)
   289bc:	80800003 	ldbu	r2,0(r16)
   289c0:	1c47883a 	add	r3,r3,r17
   289c4:	d8c00115 	stw	r3,4(sp)
   289c8:	003edb06 	br	28538 <___vfiprintf_internal_r+0xe0>
   289cc:	18025226 	beq	r3,zero,29318 <___vfiprintf_internal_r+0xec0>
   289d0:	d9000017 	ldw	r4,0(sp)
   289d4:	d9800a04 	addi	r6,sp,40
   289d8:	900b883a 	mov	r5,r18
   289dc:	002834c0 	call	2834c <__sprint_r.part.0>
   289e0:	103fa81e 	bne	r2,zero,28884 <___vfiprintf_internal_r+0x42c>
   289e4:	9811883a 	mov	r8,r19
   289e8:	003ff306 	br	289b8 <___vfiprintf_internal_r+0x560>
   289ec:	d8000b15 	stw	zero,44(sp)
   289f0:	8400010c 	andi	r16,r16,4
   289f4:	80022426 	beq	r16,zero,29288 <___vfiprintf_internal_r+0xe30>
   289f8:	8da1c83a 	sub	r16,r17,r22
   289fc:	0402220e 	bge	zero,r16,29288 <___vfiprintf_internal_r+0xe30>
   28a00:	9811883a 	mov	r8,r19
   28a04:	80c00450 	cmplti	r3,r16,17
   28a08:	d9000b17 	ldw	r4,44(sp)
   28a0c:	01c000f4 	movhi	r7,3
   28a10:	18030b1e 	bne	r3,zero,29640 <___vfiprintf_internal_r+0x11e8>
   28a14:	39c23304 	addi	r7,r7,2252
   28a18:	05400404 	movi	r21,16
   28a1c:	00000606 	br	28a38 <___vfiprintf_internal_r+0x5e0>
   28a20:	21400084 	addi	r5,r4,2
   28a24:	42000204 	addi	r8,r8,8
   28a28:	1809883a 	mov	r4,r3
   28a2c:	843ffc04 	addi	r16,r16,-16
   28a30:	80c00448 	cmpgei	r3,r16,17
   28a34:	18001726 	beq	r3,zero,28a94 <___vfiprintf_internal_r+0x63c>
   28a38:	20c00044 	addi	r3,r4,1
   28a3c:	10800404 	addi	r2,r2,16
   28a40:	41c00015 	stw	r7,0(r8)
   28a44:	45400115 	stw	r21,4(r8)
   28a48:	d8800c15 	stw	r2,48(sp)
   28a4c:	d8c00b15 	stw	r3,44(sp)
   28a50:	19400208 	cmpgei	r5,r3,8
   28a54:	283ff226 	beq	r5,zero,28a20 <___vfiprintf_internal_r+0x5c8>
   28a58:	d9000017 	ldw	r4,0(sp)
   28a5c:	d9800a04 	addi	r6,sp,40
   28a60:	900b883a 	mov	r5,r18
   28a64:	10013126 	beq	r2,zero,28f2c <___vfiprintf_internal_r+0xad4>
   28a68:	d9c00215 	stw	r7,8(sp)
   28a6c:	002834c0 	call	2834c <__sprint_r.part.0>
   28a70:	103f841e 	bne	r2,zero,28884 <___vfiprintf_internal_r+0x42c>
   28a74:	d9000b17 	ldw	r4,44(sp)
   28a78:	843ffc04 	addi	r16,r16,-16
   28a7c:	80c00448 	cmpgei	r3,r16,17
   28a80:	d8800c17 	ldw	r2,48(sp)
   28a84:	d9c00217 	ldw	r7,8(sp)
   28a88:	9811883a 	mov	r8,r19
   28a8c:	21400044 	addi	r5,r4,1
   28a90:	183fe91e 	bne	r3,zero,28a38 <___vfiprintf_internal_r+0x5e0>
   28a94:	1405883a 	add	r2,r2,r16
   28a98:	d9400b15 	stw	r5,44(sp)
   28a9c:	41c00015 	stw	r7,0(r8)
   28aa0:	44000115 	stw	r16,4(r8)
   28aa4:	d8800c15 	stw	r2,48(sp)
   28aa8:	29400210 	cmplti	r5,r5,8
   28aac:	283f691e 	bne	r5,zero,28854 <___vfiprintf_internal_r+0x3fc>
   28ab0:	1001f526 	beq	r2,zero,29288 <___vfiprintf_internal_r+0xe30>
   28ab4:	d9000017 	ldw	r4,0(sp)
   28ab8:	d9800a04 	addi	r6,sp,40
   28abc:	900b883a 	mov	r5,r18
   28ac0:	002834c0 	call	2834c <__sprint_r.part.0>
   28ac4:	103f6f1e 	bne	r2,zero,28884 <___vfiprintf_internal_r+0x42c>
   28ac8:	d8800c17 	ldw	r2,48(sp)
   28acc:	003f6106 	br	28854 <___vfiprintf_internal_r+0x3fc>
   28ad0:	d8c00317 	ldw	r3,12(sp)
   28ad4:	8080040c 	andi	r2,r16,16
   28ad8:	1d800017 	ldw	r22,0(r3)
   28adc:	18c00104 	addi	r3,r3,4
   28ae0:	d8c00315 	stw	r3,12(sp)
   28ae4:	1000251e 	bne	r2,zero,28b7c <___vfiprintf_internal_r+0x724>
   28ae8:	8080100c 	andi	r2,r16,64
   28aec:	10002326 	beq	r2,zero,28b7c <___vfiprintf_internal_r+0x724>
   28af0:	b5bfffcc 	andi	r22,r22,65535
   28af4:	b5a0001c 	xori	r22,r22,32768
   28af8:	b5a00004 	addi	r22,r22,-32768
   28afc:	b02bd7fa 	srai	r21,r22,31
   28b00:	a805883a 	mov	r2,r21
   28b04:	103f930e 	bge	r2,zero,28954 <___vfiprintf_internal_r+0x4fc>
   28b08:	00800b44 	movi	r2,45
   28b0c:	b006c03a 	cmpne	r3,r22,zero
   28b10:	056bc83a 	sub	r21,zero,r21
   28b14:	d8800945 	stb	r2,37(sp)
   28b18:	48bfffd8 	cmpnei	r2,r9,-1
   28b1c:	a8ebc83a 	sub	r21,r21,r3
   28b20:	05adc83a 	sub	r22,zero,r22
   28b24:	10000226 	beq	r2,zero,28b30 <___vfiprintf_internal_r+0x6d8>
   28b28:	00bfdfc4 	movi	r2,-129
   28b2c:	80a0703a 	and	r16,r16,r2
   28b30:	03000b44 	movi	r12,45
   28b34:	a800d41e 	bne	r21,zero,28e88 <___vfiprintf_internal_r+0xa30>
   28b38:	b08002a8 	cmpgeui	r2,r22,10
   28b3c:	1000d21e 	bne	r2,zero,28e88 <___vfiprintf_internal_r+0xa30>
   28b40:	b5800c04 	addi	r22,r22,48
   28b44:	dd8016c5 	stb	r22,91(sp)
   28b48:	482d883a 	mov	r22,r9
   28b4c:	02400116 	blt	zero,r9,28b54 <___vfiprintf_internal_r+0x6fc>
   28b50:	05800044 	movi	r22,1
   28b54:	05400044 	movi	r21,1
   28b58:	df0016c4 	addi	fp,sp,91
   28b5c:	63003fcc 	andi	r12,r12,255
   28b60:	6300201c 	xori	r12,r12,128
   28b64:	633fe004 	addi	r12,r12,-128
   28b68:	603ef226 	beq	r12,zero,28734 <___vfiprintf_internal_r+0x2dc>
   28b6c:	b5800044 	addi	r22,r22,1
   28b70:	003ef006 	br	28734 <___vfiprintf_internal_r+0x2dc>
   28b74:	00252240 	call	25224 <__sinit>
   28b78:	003e4906 	br	284a0 <___vfiprintf_internal_r+0x48>
   28b7c:	b02bd7fa 	srai	r21,r22,31
   28b80:	a805883a 	mov	r2,r21
   28b84:	003f7206 	br	28950 <___vfiprintf_internal_r+0x4f8>
   28b88:	d8800317 	ldw	r2,12(sp)
   28b8c:	14400017 	ldw	r17,0(r2)
   28b90:	17000104 	addi	fp,r2,4
   28b94:	8802200e 	bge	r17,zero,29418 <___vfiprintf_internal_r+0xfc0>
   28b98:	0463c83a 	sub	r17,zero,r17
   28b9c:	df000315 	stw	fp,12(sp)
   28ba0:	a0800007 	ldb	r2,0(r20)
   28ba4:	84000114 	ori	r16,r16,4
   28ba8:	003e6d06 	br	28560 <___vfiprintf_internal_r+0x108>
   28bac:	a0800007 	ldb	r2,0(r20)
   28bb0:	a1000044 	addi	r4,r20,1
   28bb4:	10c00aa0 	cmpeqi	r3,r2,42
   28bb8:	1802b11e 	bne	r3,zero,29680 <___vfiprintf_internal_r+0x1228>
   28bbc:	10fff404 	addi	r3,r2,-48
   28bc0:	194002b0 	cmpltui	r5,r3,10
   28bc4:	2029883a 	mov	r20,r4
   28bc8:	0013883a 	mov	r9,zero
   28bcc:	283e6526 	beq	r5,zero,28564 <___vfiprintf_internal_r+0x10c>
   28bd0:	a0800007 	ldb	r2,0(r20)
   28bd4:	4a4002a4 	muli	r9,r9,10
   28bd8:	a5000044 	addi	r20,r20,1
   28bdc:	48d3883a 	add	r9,r9,r3
   28be0:	10fff404 	addi	r3,r2,-48
   28be4:	190002b0 	cmpltui	r4,r3,10
   28be8:	203ff91e 	bne	r4,zero,28bd0 <___vfiprintf_internal_r+0x778>
   28bec:	003e5d06 	br	28564 <___vfiprintf_internal_r+0x10c>
   28bf0:	a0800007 	ldb	r2,0(r20)
   28bf4:	84002014 	ori	r16,r16,128
   28bf8:	003e5906 	br	28560 <___vfiprintf_internal_r+0x108>
   28bfc:	00c00ac4 	movi	r3,43
   28c00:	a0800007 	ldb	r2,0(r20)
   28c04:	d8c00945 	stb	r3,37(sp)
   28c08:	003e5506 	br	28560 <___vfiprintf_internal_r+0x108>
   28c0c:	a0800007 	ldb	r2,0(r20)
   28c10:	84000054 	ori	r16,r16,1
   28c14:	003e5206 	br	28560 <___vfiprintf_internal_r+0x108>
   28c18:	d8c00947 	ldb	r3,37(sp)
   28c1c:	a0800003 	ldbu	r2,0(r20)
   28c20:	1800091e 	bne	r3,zero,28c48 <___vfiprintf_internal_r+0x7f0>
   28c24:	10803fcc 	andi	r2,r2,255
   28c28:	00c00804 	movi	r3,32
   28c2c:	1080201c 	xori	r2,r2,128
   28c30:	d8c00945 	stb	r3,37(sp)
   28c34:	10bfe004 	addi	r2,r2,-128
   28c38:	003e4906 	br	28560 <___vfiprintf_internal_r+0x108>
   28c3c:	a0800043 	ldbu	r2,1(r20)
   28c40:	84000814 	ori	r16,r16,32
   28c44:	a5000044 	addi	r20,r20,1
   28c48:	10803fcc 	andi	r2,r2,255
   28c4c:	1080201c 	xori	r2,r2,128
   28c50:	10bfe004 	addi	r2,r2,-128
   28c54:	003e4206 	br	28560 <___vfiprintf_internal_r+0x108>
   28c58:	8080080c 	andi	r2,r16,32
   28c5c:	1001f826 	beq	r2,zero,29440 <___vfiprintf_internal_r+0xfe8>
   28c60:	d9000117 	ldw	r4,4(sp)
   28c64:	d8800317 	ldw	r2,12(sp)
   28c68:	2007d7fa 	srai	r3,r4,31
   28c6c:	10800017 	ldw	r2,0(r2)
   28c70:	11000015 	stw	r4,0(r2)
   28c74:	10c00115 	stw	r3,4(r2)
   28c78:	d8800317 	ldw	r2,12(sp)
   28c7c:	10800104 	addi	r2,r2,4
   28c80:	d8800315 	stw	r2,12(sp)
   28c84:	003e2006 	br	28508 <___vfiprintf_internal_r+0xb0>
   28c88:	a0800007 	ldb	r2,0(r20)
   28c8c:	10c01b18 	cmpnei	r3,r2,108
   28c90:	183fea26 	beq	r3,zero,28c3c <___vfiprintf_internal_r+0x7e4>
   28c94:	84000414 	ori	r16,r16,16
   28c98:	003e3106 	br	28560 <___vfiprintf_internal_r+0x108>
   28c9c:	a0800007 	ldb	r2,0(r20)
   28ca0:	84001014 	ori	r16,r16,64
   28ca4:	003e2e06 	br	28560 <___vfiprintf_internal_r+0x108>
   28ca8:	d8c00317 	ldw	r3,12(sp)
   28cac:	d8000945 	stb	zero,37(sp)
   28cb0:	05800044 	movi	r22,1
   28cb4:	18800017 	ldw	r2,0(r3)
   28cb8:	18c00104 	addi	r3,r3,4
   28cbc:	d8c00315 	stw	r3,12(sp)
   28cc0:	d8800d05 	stb	r2,52(sp)
   28cc4:	05400044 	movi	r21,1
   28cc8:	df000d04 	addi	fp,sp,52
   28ccc:	003e9806 	br	28730 <___vfiprintf_internal_r+0x2d8>
   28cd0:	80800414 	ori	r2,r16,16
   28cd4:	10c0080c 	andi	r3,r2,32
   28cd8:	18019126 	beq	r3,zero,29320 <___vfiprintf_internal_r+0xec8>
   28cdc:	d8c00317 	ldw	r3,12(sp)
   28ce0:	d8000945 	stb	zero,37(sp)
   28ce4:	1d800017 	ldw	r22,0(r3)
   28ce8:	1d400117 	ldw	r21,4(r3)
   28cec:	18c00204 	addi	r3,r3,8
   28cf0:	d8c00315 	stw	r3,12(sp)
   28cf4:	48ffffd8 	cmpnei	r3,r9,-1
   28cf8:	18019626 	beq	r3,zero,29354 <___vfiprintf_internal_r+0xefc>
   28cfc:	00c00044 	movi	r3,1
   28d00:	043fdfc4 	movi	r16,-129
   28d04:	b548b03a 	or	r4,r22,r21
   28d08:	1420703a 	and	r16,r2,r16
   28d0c:	2000191e 	bne	r4,zero,28d74 <___vfiprintf_internal_r+0x91c>
   28d10:	4802221e 	bne	r9,zero,2959c <___vfiprintf_internal_r+0x1144>
   28d14:	1801bc1e 	bne	r3,zero,29408 <___vfiprintf_internal_r+0xfb0>
   28d18:	1540004c 	andi	r21,r2,1
   28d1c:	a801c126 	beq	r21,zero,29424 <___vfiprintf_internal_r+0xfcc>
   28d20:	00800c04 	movi	r2,48
   28d24:	d88016c5 	stb	r2,91(sp)
   28d28:	a82d883a 	mov	r22,r21
   28d2c:	df0016c4 	addi	fp,sp,91
   28d30:	003e8006 	br	28734 <___vfiprintf_internal_r+0x2dc>
   28d34:	80800414 	ori	r2,r16,16
   28d38:	10c0080c 	andi	r3,r2,32
   28d3c:	18018826 	beq	r3,zero,29360 <___vfiprintf_internal_r+0xf08>
   28d40:	d8c00317 	ldw	r3,12(sp)
   28d44:	d8000945 	stb	zero,37(sp)
   28d48:	1d800017 	ldw	r22,0(r3)
   28d4c:	1d400117 	ldw	r21,4(r3)
   28d50:	18c00204 	addi	r3,r3,8
   28d54:	d8c00315 	stw	r3,12(sp)
   28d58:	48ffffd8 	cmpnei	r3,r9,-1
   28d5c:	18018d26 	beq	r3,zero,29394 <___vfiprintf_internal_r+0xf3c>
   28d60:	043fdfc4 	movi	r16,-129
   28d64:	b548b03a 	or	r4,r22,r21
   28d68:	0007883a 	mov	r3,zero
   28d6c:	1420703a 	and	r16,r2,r16
   28d70:	203fe726 	beq	r4,zero,28d10 <___vfiprintf_internal_r+0x8b8>
   28d74:	18800060 	cmpeqi	r2,r3,1
   28d78:	1002511e 	bne	r2,zero,296c0 <___vfiprintf_internal_r+0x1268>
   28d7c:	18c000a0 	cmpeqi	r3,r3,2
   28d80:	1801481e 	bne	r3,zero,292a4 <___vfiprintf_internal_r+0xe4c>
   28d84:	9839883a 	mov	fp,r19
   28d88:	a808977a 	slli	r4,r21,29
   28d8c:	b006d0fa 	srli	r3,r22,3
   28d90:	a82ad0fa 	srli	r21,r21,3
   28d94:	b08001cc 	andi	r2,r22,7
   28d98:	10800c04 	addi	r2,r2,48
   28d9c:	20ecb03a 	or	r22,r4,r3
   28da0:	e0bfffc5 	stb	r2,-1(fp)
   28da4:	b546b03a 	or	r3,r22,r21
   28da8:	e00b883a 	mov	r5,fp
   28dac:	e73fffc4 	addi	fp,fp,-1
   28db0:	183ff51e 	bne	r3,zero,28d88 <___vfiprintf_internal_r+0x930>
   28db4:	80c0004c 	andi	r3,r16,1
   28db8:	18014726 	beq	r3,zero,292d8 <___vfiprintf_internal_r+0xe80>
   28dbc:	10800c18 	cmpnei	r2,r2,48
   28dc0:	10014526 	beq	r2,zero,292d8 <___vfiprintf_internal_r+0xe80>
   28dc4:	297fff84 	addi	r5,r5,-2
   28dc8:	00800c04 	movi	r2,48
   28dcc:	e0bfffc5 	stb	r2,-1(fp)
   28dd0:	996bc83a 	sub	r21,r19,r5
   28dd4:	482d883a 	mov	r22,r9
   28dd8:	4d41a616 	blt	r9,r21,29474 <___vfiprintf_internal_r+0x101c>
   28ddc:	2839883a 	mov	fp,r5
   28de0:	003e5406 	br	28734 <___vfiprintf_internal_r+0x2dc>
   28de4:	d8800317 	ldw	r2,12(sp)
   28de8:	d8000945 	stb	zero,37(sp)
   28dec:	17000017 	ldw	fp,0(r2)
   28df0:	10c00104 	addi	r3,r2,4
   28df4:	e001f026 	beq	fp,zero,295b8 <___vfiprintf_internal_r+0x1160>
   28df8:	48bfffe0 	cmpeqi	r2,r9,-1
   28dfc:	1001a01e 	bne	r2,zero,29480 <___vfiprintf_internal_r+0x1028>
   28e00:	480d883a 	mov	r6,r9
   28e04:	000b883a 	mov	r5,zero
   28e08:	e009883a 	mov	r4,fp
   28e0c:	d8c00415 	stw	r3,16(sp)
   28e10:	da000315 	stw	r8,12(sp)
   28e14:	da400215 	stw	r9,8(sp)
   28e18:	002667c0 	call	2667c <memchr>
   28e1c:	da400217 	ldw	r9,8(sp)
   28e20:	da000317 	ldw	r8,12(sp)
   28e24:	d8c00417 	ldw	r3,16(sp)
   28e28:	1001fe26 	beq	r2,zero,29624 <___vfiprintf_internal_r+0x11cc>
   28e2c:	172bc83a 	sub	r21,r2,fp
   28e30:	a82d883a 	mov	r22,r21
   28e34:	d8c00315 	stw	r3,12(sp)
   28e38:	003e3d06 	br	28730 <___vfiprintf_internal_r+0x2d8>
   28e3c:	a0800007 	ldb	r2,0(r20)
   28e40:	84000814 	ori	r16,r16,32
   28e44:	003dc606 	br	28560 <___vfiprintf_internal_r+0x108>
   28e48:	d9000317 	ldw	r4,12(sp)
   28e4c:	00de0c04 	movi	r3,30768
   28e50:	014000f4 	movhi	r5,3
   28e54:	d8c0098d 	sth	r3,38(sp)
   28e58:	25800017 	ldw	r22,0(r4)
   28e5c:	20c00104 	addi	r3,r4,4
   28e60:	d8c00315 	stw	r3,12(sp)
   28e64:	28c1af04 	addi	r3,r5,1724
   28e68:	002b883a 	mov	r21,zero
   28e6c:	80800094 	ori	r2,r16,2
   28e70:	d8c00515 	stw	r3,20(sp)
   28e74:	d8000945 	stb	zero,37(sp)
   28e78:	48ffffd8 	cmpnei	r3,r9,-1
   28e7c:	18010826 	beq	r3,zero,292a0 <___vfiprintf_internal_r+0xe48>
   28e80:	00c00084 	movi	r3,2
   28e84:	003f9e06 	br	28d00 <___vfiprintf_internal_r+0x8a8>
   28e88:	9839883a 	mov	fp,r19
   28e8c:	b009883a 	mov	r4,r22
   28e90:	a80b883a 	mov	r5,r21
   28e94:	01800284 	movi	r6,10
   28e98:	000f883a 	mov	r7,zero
   28e9c:	db000615 	stw	r12,24(sp)
   28ea0:	da000415 	stw	r8,16(sp)
   28ea4:	da400215 	stw	r9,8(sp)
   28ea8:	002ae280 	call	2ae28 <__umoddi3>
   28eac:	10800c04 	addi	r2,r2,48
   28eb0:	b009883a 	mov	r4,r22
   28eb4:	a80b883a 	mov	r5,r21
   28eb8:	e0bfffc5 	stb	r2,-1(fp)
   28ebc:	01800284 	movi	r6,10
   28ec0:	000f883a 	mov	r7,zero
   28ec4:	002a8d80 	call	2a8d8 <__udivdi3>
   28ec8:	a809883a 	mov	r4,r21
   28ecc:	b00b883a 	mov	r5,r22
   28ed0:	da400217 	ldw	r9,8(sp)
   28ed4:	da000417 	ldw	r8,16(sp)
   28ed8:	db000617 	ldw	r12,24(sp)
   28edc:	e73fffc4 	addi	fp,fp,-1
   28ee0:	102d883a 	mov	r22,r2
   28ee4:	182b883a 	mov	r21,r3
   28ee8:	203fe81e 	bne	r4,zero,28e8c <___vfiprintf_internal_r+0xa34>
   28eec:	294002a8 	cmpgeui	r5,r5,10
   28ef0:	283fe61e 	bne	r5,zero,28e8c <___vfiprintf_internal_r+0xa34>
   28ef4:	9f2bc83a 	sub	r21,r19,fp
   28ef8:	482d883a 	mov	r22,r9
   28efc:	4d7f170e 	bge	r9,r21,28b5c <___vfiprintf_internal_r+0x704>
   28f00:	a82d883a 	mov	r22,r21
   28f04:	003f1506 	br	28b5c <___vfiprintf_internal_r+0x704>
   28f08:	00c00044 	movi	r3,1
   28f0c:	a805883a 	mov	r2,r21
   28f10:	df001715 	stw	fp,92(sp)
   28f14:	dd401815 	stw	r21,96(sp)
   28f18:	dd400c15 	stw	r21,48(sp)
   28f1c:	d8c00b15 	stw	r3,44(sp)
   28f20:	9811883a 	mov	r8,r19
   28f24:	42000204 	addi	r8,r8,8
   28f28:	003e4606 	br	28844 <___vfiprintf_internal_r+0x3ec>
   28f2c:	01400044 	movi	r5,1
   28f30:	0009883a 	mov	r4,zero
   28f34:	9811883a 	mov	r8,r19
   28f38:	003ebc06 	br	28a2c <___vfiprintf_internal_r+0x5d4>
   28f3c:	8d8fc83a 	sub	r7,r17,r22
   28f40:	01fe2f0e 	bge	zero,r7,28800 <___vfiprintf_internal_r+0x3a8>
   28f44:	38c00450 	cmplti	r3,r7,17
   28f48:	1801c01e 	bne	r3,zero,2964c <___vfiprintf_internal_r+0x11f4>
   28f4c:	00c000f4 	movhi	r3,3
   28f50:	18c22f04 	addi	r3,r3,2236
   28f54:	d8c00415 	stw	r3,16(sp)
   28f58:	03000404 	movi	r12,16
   28f5c:	00000606 	br	28f78 <___vfiprintf_internal_r+0xb20>
   28f60:	21800084 	addi	r6,r4,2
   28f64:	42000204 	addi	r8,r8,8
   28f68:	1809883a 	mov	r4,r3
   28f6c:	39fffc04 	addi	r7,r7,-16
   28f70:	38c00448 	cmpgei	r3,r7,17
   28f74:	18001b26 	beq	r3,zero,28fe4 <___vfiprintf_internal_r+0xb8c>
   28f78:	d9400417 	ldw	r5,16(sp)
   28f7c:	20c00044 	addi	r3,r4,1
   28f80:	10800404 	addi	r2,r2,16
   28f84:	41400015 	stw	r5,0(r8)
   28f88:	43000115 	stw	r12,4(r8)
   28f8c:	d8800c15 	stw	r2,48(sp)
   28f90:	d8c00b15 	stw	r3,44(sp)
   28f94:	19400208 	cmpgei	r5,r3,8
   28f98:	283ff126 	beq	r5,zero,28f60 <___vfiprintf_internal_r+0xb08>
   28f9c:	d9000017 	ldw	r4,0(sp)
   28fa0:	d9800a04 	addi	r6,sp,40
   28fa4:	900b883a 	mov	r5,r18
   28fa8:	10005c26 	beq	r2,zero,2911c <___vfiprintf_internal_r+0xcc4>
   28fac:	d9c00615 	stw	r7,24(sp)
   28fb0:	da400215 	stw	r9,8(sp)
   28fb4:	002834c0 	call	2834c <__sprint_r.part.0>
   28fb8:	103e321e 	bne	r2,zero,28884 <___vfiprintf_internal_r+0x42c>
   28fbc:	d9c00617 	ldw	r7,24(sp)
   28fc0:	d9000b17 	ldw	r4,44(sp)
   28fc4:	d8800c17 	ldw	r2,48(sp)
   28fc8:	39fffc04 	addi	r7,r7,-16
   28fcc:	38c00448 	cmpgei	r3,r7,17
   28fd0:	da400217 	ldw	r9,8(sp)
   28fd4:	9811883a 	mov	r8,r19
   28fd8:	21800044 	addi	r6,r4,1
   28fdc:	03000404 	movi	r12,16
   28fe0:	183fe51e 	bne	r3,zero,28f78 <___vfiprintf_internal_r+0xb20>
   28fe4:	d8c00417 	ldw	r3,16(sp)
   28fe8:	11c5883a 	add	r2,r2,r7
   28fec:	41c00115 	stw	r7,4(r8)
   28ff0:	40c00015 	stw	r3,0(r8)
   28ff4:	d8800c15 	stw	r2,48(sp)
   28ff8:	d9800b15 	stw	r6,44(sp)
   28ffc:	30c00208 	cmpgei	r3,r6,8
   29000:	18010b26 	beq	r3,zero,29430 <___vfiprintf_internal_r+0xfd8>
   29004:	10017826 	beq	r2,zero,295e8 <___vfiprintf_internal_r+0x1190>
   29008:	d9000017 	ldw	r4,0(sp)
   2900c:	d9800a04 	addi	r6,sp,40
   29010:	900b883a 	mov	r5,r18
   29014:	da400215 	stw	r9,8(sp)
   29018:	002834c0 	call	2834c <__sprint_r.part.0>
   2901c:	103e191e 	bne	r2,zero,28884 <___vfiprintf_internal_r+0x42c>
   29020:	da400217 	ldw	r9,8(sp)
   29024:	d9000b17 	ldw	r4,44(sp)
   29028:	d8800c17 	ldw	r2,48(sp)
   2902c:	4d53c83a 	sub	r9,r9,r21
   29030:	9811883a 	mov	r8,r19
   29034:	21400044 	addi	r5,r4,1
   29038:	027df30e 	bge	zero,r9,28808 <___vfiprintf_internal_r+0x3b0>
   2903c:	48c00450 	cmplti	r3,r9,17
   29040:	1801651e 	bne	r3,zero,295d8 <___vfiprintf_internal_r+0x1180>
   29044:	ddc00415 	stw	r23,16(sp)
   29048:	01c00404 	movi	r7,16
   2904c:	00000606 	br	29068 <___vfiprintf_internal_r+0xc10>
   29050:	21400084 	addi	r5,r4,2
   29054:	42000204 	addi	r8,r8,8
   29058:	1809883a 	mov	r4,r3
   2905c:	4a7ffc04 	addi	r9,r9,-16
   29060:	48c00448 	cmpgei	r3,r9,17
   29064:	18001826 	beq	r3,zero,290c8 <___vfiprintf_internal_r+0xc70>
   29068:	20c00044 	addi	r3,r4,1
   2906c:	10800404 	addi	r2,r2,16
   29070:	45c00015 	stw	r23,0(r8)
   29074:	41c00115 	stw	r7,4(r8)
   29078:	d8800c15 	stw	r2,48(sp)
   2907c:	d8c00b15 	stw	r3,44(sp)
   29080:	19400208 	cmpgei	r5,r3,8
   29084:	283ff226 	beq	r5,zero,29050 <___vfiprintf_internal_r+0xbf8>
   29088:	d9000017 	ldw	r4,0(sp)
   2908c:	d9800a04 	addi	r6,sp,40
   29090:	900b883a 	mov	r5,r18
   29094:	10001726 	beq	r2,zero,290f4 <___vfiprintf_internal_r+0xc9c>
   29098:	da400215 	stw	r9,8(sp)
   2909c:	002834c0 	call	2834c <__sprint_r.part.0>
   290a0:	103df81e 	bne	r2,zero,28884 <___vfiprintf_internal_r+0x42c>
   290a4:	da400217 	ldw	r9,8(sp)
   290a8:	d9000b17 	ldw	r4,44(sp)
   290ac:	d8800c17 	ldw	r2,48(sp)
   290b0:	4a7ffc04 	addi	r9,r9,-16
   290b4:	48c00448 	cmpgei	r3,r9,17
   290b8:	9811883a 	mov	r8,r19
   290bc:	21400044 	addi	r5,r4,1
   290c0:	01c00404 	movi	r7,16
   290c4:	183fe81e 	bne	r3,zero,29068 <___vfiprintf_internal_r+0xc10>
   290c8:	d8c00417 	ldw	r3,16(sp)
   290cc:	1245883a 	add	r2,r2,r9
   290d0:	42400115 	stw	r9,4(r8)
   290d4:	40c00015 	stw	r3,0(r8)
   290d8:	d8800c15 	stw	r2,48(sp)
   290dc:	d9400b15 	stw	r5,44(sp)
   290e0:	28c00208 	cmpgei	r3,r5,8
   290e4:	1800811e 	bne	r3,zero,292ec <___vfiprintf_internal_r+0xe94>
   290e8:	42000204 	addi	r8,r8,8
   290ec:	29400044 	addi	r5,r5,1
   290f0:	003dc506 	br	28808 <___vfiprintf_internal_r+0x3b0>
   290f4:	01400044 	movi	r5,1
   290f8:	0009883a 	mov	r4,zero
   290fc:	9811883a 	mov	r8,r19
   29100:	003fd606 	br	2905c <___vfiprintf_internal_r+0xc04>
   29104:	d9000017 	ldw	r4,0(sp)
   29108:	d9800a04 	addi	r6,sp,40
   2910c:	900b883a 	mov	r5,r18
   29110:	002834c0 	call	2834c <__sprint_r.part.0>
   29114:	103dd526 	beq	r2,zero,2886c <___vfiprintf_internal_r+0x414>
   29118:	003dda06 	br	28884 <___vfiprintf_internal_r+0x42c>
   2911c:	01800044 	movi	r6,1
   29120:	0009883a 	mov	r4,zero
   29124:	9811883a 	mov	r8,r19
   29128:	003f9006 	br	28f6c <___vfiprintf_internal_r+0xb14>
   2912c:	10001026 	beq	r2,zero,29170 <___vfiprintf_internal_r+0xd18>
   29130:	d9000017 	ldw	r4,0(sp)
   29134:	d9800a04 	addi	r6,sp,40
   29138:	900b883a 	mov	r5,r18
   2913c:	da400615 	stw	r9,24(sp)
   29140:	db000415 	stw	r12,16(sp)
   29144:	db400215 	stw	r13,8(sp)
   29148:	002834c0 	call	2834c <__sprint_r.part.0>
   2914c:	103dcd1e 	bne	r2,zero,28884 <___vfiprintf_internal_r+0x42c>
   29150:	d9000b17 	ldw	r4,44(sp)
   29154:	d8800c17 	ldw	r2,48(sp)
   29158:	da400617 	ldw	r9,24(sp)
   2915c:	db000417 	ldw	r12,16(sp)
   29160:	db400217 	ldw	r13,8(sp)
   29164:	9811883a 	mov	r8,r19
   29168:	21400044 	addi	r5,r4,1
   2916c:	003d8a06 	br	28798 <___vfiprintf_internal_r+0x340>
   29170:	6800bc26 	beq	r13,zero,29464 <___vfiprintf_internal_r+0x100c>
   29174:	d8800984 	addi	r2,sp,38
   29178:	d8801715 	stw	r2,92(sp)
   2917c:	00800084 	movi	r2,2
   29180:	d8801815 	stw	r2,96(sp)
   29184:	01400044 	movi	r5,1
   29188:	9811883a 	mov	r8,r19
   2918c:	2809883a 	mov	r4,r5
   29190:	42000204 	addi	r8,r8,8
   29194:	29400044 	addi	r5,r5,1
   29198:	003d9706 	br	287f8 <___vfiprintf_internal_r+0x3a0>
   2919c:	19400450 	cmplti	r5,r3,17
   291a0:	01c000f4 	movhi	r7,3
   291a4:	2801231e 	bne	r5,zero,29634 <___vfiprintf_internal_r+0x11dc>
   291a8:	39c23304 	addi	r7,r7,2252
   291ac:	03800404 	movi	r14,16
   291b0:	00000706 	br	291d0 <___vfiprintf_internal_r+0xd78>
   291b4:	23c00084 	addi	r15,r4,2
   291b8:	42000204 	addi	r8,r8,8
   291bc:	3009883a 	mov	r4,r6
   291c0:	18fffc04 	addi	r3,r3,-16
   291c4:	19400448 	cmpgei	r5,r3,17
   291c8:	28002026 	beq	r5,zero,2924c <___vfiprintf_internal_r+0xdf4>
   291cc:	21800044 	addi	r6,r4,1
   291d0:	10800404 	addi	r2,r2,16
   291d4:	41c00015 	stw	r7,0(r8)
   291d8:	43800115 	stw	r14,4(r8)
   291dc:	d8800c15 	stw	r2,48(sp)
   291e0:	d9800b15 	stw	r6,44(sp)
   291e4:	31400208 	cmpgei	r5,r6,8
   291e8:	283ff226 	beq	r5,zero,291b4 <___vfiprintf_internal_r+0xd5c>
   291ec:	d9000017 	ldw	r4,0(sp)
   291f0:	d9800a04 	addi	r6,sp,40
   291f4:	900b883a 	mov	r5,r18
   291f8:	10001f26 	beq	r2,zero,29278 <___vfiprintf_internal_r+0xe20>
   291fc:	d9c00815 	stw	r7,32(sp)
   29200:	d8c00715 	stw	r3,28(sp)
   29204:	da400615 	stw	r9,24(sp)
   29208:	db000415 	stw	r12,16(sp)
   2920c:	db400215 	stw	r13,8(sp)
   29210:	002834c0 	call	2834c <__sprint_r.part.0>
   29214:	103d9b1e 	bne	r2,zero,28884 <___vfiprintf_internal_r+0x42c>
   29218:	d8c00717 	ldw	r3,28(sp)
   2921c:	d9000b17 	ldw	r4,44(sp)
   29220:	d8800c17 	ldw	r2,48(sp)
   29224:	18fffc04 	addi	r3,r3,-16
   29228:	19400448 	cmpgei	r5,r3,17
   2922c:	d9c00817 	ldw	r7,32(sp)
   29230:	da400617 	ldw	r9,24(sp)
   29234:	db000417 	ldw	r12,16(sp)
   29238:	db400217 	ldw	r13,8(sp)
   2923c:	9811883a 	mov	r8,r19
   29240:	23c00044 	addi	r15,r4,1
   29244:	03800404 	movi	r14,16
   29248:	283fe01e 	bne	r5,zero,291cc <___vfiprintf_internal_r+0xd74>
   2924c:	10c5883a 	add	r2,r2,r3
   29250:	40c00115 	stw	r3,4(r8)
   29254:	41c00015 	stw	r7,0(r8)
   29258:	d8800c15 	stw	r2,48(sp)
   2925c:	dbc00b15 	stw	r15,44(sp)
   29260:	78c00208 	cmpgei	r3,r15,8
   29264:	1800511e 	bne	r3,zero,293ac <___vfiprintf_internal_r+0xf54>
   29268:	42000204 	addi	r8,r8,8
   2926c:	79400044 	addi	r5,r15,1
   29270:	7809883a 	mov	r4,r15
   29274:	003d3a06 	br	28760 <___vfiprintf_internal_r+0x308>
   29278:	0009883a 	mov	r4,zero
   2927c:	03c00044 	movi	r15,1
   29280:	9811883a 	mov	r8,r19
   29284:	003fce06 	br	291c0 <___vfiprintf_internal_r+0xd68>
   29288:	8d80010e 	bge	r17,r22,29290 <___vfiprintf_internal_r+0xe38>
   2928c:	b023883a 	mov	r17,r22
   29290:	d8800117 	ldw	r2,4(sp)
   29294:	1445883a 	add	r2,r2,r17
   29298:	d8800115 	stw	r2,4(sp)
   2929c:	003d7306 	br	2886c <___vfiprintf_internal_r+0x414>
   292a0:	1021883a 	mov	r16,r2
   292a4:	9839883a 	mov	fp,r19
   292a8:	d9000517 	ldw	r4,20(sp)
   292ac:	b08003cc 	andi	r2,r22,15
   292b0:	a806973a 	slli	r3,r21,28
   292b4:	b02cd13a 	srli	r22,r22,4
   292b8:	2085883a 	add	r2,r4,r2
   292bc:	10800003 	ldbu	r2,0(r2)
   292c0:	a82ad13a 	srli	r21,r21,4
   292c4:	1dacb03a 	or	r22,r3,r22
   292c8:	e0bfffc5 	stb	r2,-1(fp)
   292cc:	b544b03a 	or	r2,r22,r21
   292d0:	e73fffc4 	addi	fp,fp,-1
   292d4:	103ff41e 	bne	r2,zero,292a8 <___vfiprintf_internal_r+0xe50>
   292d8:	9f2bc83a 	sub	r21,r19,fp
   292dc:	482d883a 	mov	r22,r9
   292e0:	4d7d140e 	bge	r9,r21,28734 <___vfiprintf_internal_r+0x2dc>
   292e4:	a82d883a 	mov	r22,r21
   292e8:	003d1206 	br	28734 <___vfiprintf_internal_r+0x2dc>
   292ec:	103f0626 	beq	r2,zero,28f08 <___vfiprintf_internal_r+0xab0>
   292f0:	d9000017 	ldw	r4,0(sp)
   292f4:	d9800a04 	addi	r6,sp,40
   292f8:	900b883a 	mov	r5,r18
   292fc:	002834c0 	call	2834c <__sprint_r.part.0>
   29300:	103d601e 	bne	r2,zero,28884 <___vfiprintf_internal_r+0x42c>
   29304:	d9400b17 	ldw	r5,44(sp)
   29308:	d8800c17 	ldw	r2,48(sp)
   2930c:	9811883a 	mov	r8,r19
   29310:	29400044 	addi	r5,r5,1
   29314:	003d3c06 	br	28808 <___vfiprintf_internal_r+0x3b0>
   29318:	d8000b15 	stw	zero,44(sp)
   2931c:	003db106 	br	289e4 <___vfiprintf_internal_r+0x58c>
   29320:	d9000317 	ldw	r4,12(sp)
   29324:	10c0040c 	andi	r3,r2,16
   29328:	25800017 	ldw	r22,0(r4)
   2932c:	21000104 	addi	r4,r4,4
   29330:	d9000315 	stw	r4,12(sp)
   29334:	1800031e 	bne	r3,zero,29344 <___vfiprintf_internal_r+0xeec>
   29338:	10c0100c 	andi	r3,r2,64
   2933c:	18000126 	beq	r3,zero,29344 <___vfiprintf_internal_r+0xeec>
   29340:	b5bfffcc 	andi	r22,r22,65535
   29344:	d8000945 	stb	zero,37(sp)
   29348:	48ffffd8 	cmpnei	r3,r9,-1
   2934c:	002b883a 	mov	r21,zero
   29350:	183e6a1e 	bne	r3,zero,28cfc <___vfiprintf_internal_r+0x8a4>
   29354:	1021883a 	mov	r16,r2
   29358:	0019883a 	mov	r12,zero
   2935c:	003df506 	br	28b34 <___vfiprintf_internal_r+0x6dc>
   29360:	d9000317 	ldw	r4,12(sp)
   29364:	10c0040c 	andi	r3,r2,16
   29368:	25800017 	ldw	r22,0(r4)
   2936c:	21000104 	addi	r4,r4,4
   29370:	d9000315 	stw	r4,12(sp)
   29374:	1800031e 	bne	r3,zero,29384 <___vfiprintf_internal_r+0xf2c>
   29378:	10c0100c 	andi	r3,r2,64
   2937c:	18000126 	beq	r3,zero,29384 <___vfiprintf_internal_r+0xf2c>
   29380:	b5bfffcc 	andi	r22,r22,65535
   29384:	d8000945 	stb	zero,37(sp)
   29388:	48ffffd8 	cmpnei	r3,r9,-1
   2938c:	002b883a 	mov	r21,zero
   29390:	183e731e 	bne	r3,zero,28d60 <___vfiprintf_internal_r+0x908>
   29394:	1021883a 	mov	r16,r2
   29398:	003e7a06 	br	28d84 <___vfiprintf_internal_r+0x92c>
   2939c:	01400044 	movi	r5,1
   293a0:	0009883a 	mov	r4,zero
   293a4:	9811883a 	mov	r8,r19
   293a8:	003d1306 	br	287f8 <___vfiprintf_internal_r+0x3a0>
   293ac:	10005726 	beq	r2,zero,2950c <___vfiprintf_internal_r+0x10b4>
   293b0:	d9000017 	ldw	r4,0(sp)
   293b4:	d9800a04 	addi	r6,sp,40
   293b8:	900b883a 	mov	r5,r18
   293bc:	da400615 	stw	r9,24(sp)
   293c0:	db000415 	stw	r12,16(sp)
   293c4:	db400215 	stw	r13,8(sp)
   293c8:	002834c0 	call	2834c <__sprint_r.part.0>
   293cc:	103d2d1e 	bne	r2,zero,28884 <___vfiprintf_internal_r+0x42c>
   293d0:	d9000b17 	ldw	r4,44(sp)
   293d4:	d8800c17 	ldw	r2,48(sp)
   293d8:	da400617 	ldw	r9,24(sp)
   293dc:	db000417 	ldw	r12,16(sp)
   293e0:	db400217 	ldw	r13,8(sp)
   293e4:	9811883a 	mov	r8,r19
   293e8:	21400044 	addi	r5,r4,1
   293ec:	003cdc06 	br	28760 <___vfiprintf_internal_r+0x308>
   293f0:	d8000945 	stb	zero,37(sp)
   293f4:	48bfffd8 	cmpnei	r2,r9,-1
   293f8:	103faa26 	beq	r2,zero,292a4 <___vfiprintf_internal_r+0xe4c>
   293fc:	00bfdfc4 	movi	r2,-129
   29400:	80a0703a 	and	r16,r16,r2
   29404:	4800621e 	bne	r9,zero,29590 <___vfiprintf_internal_r+0x1138>
   29408:	002d883a 	mov	r22,zero
   2940c:	002b883a 	mov	r21,zero
   29410:	9839883a 	mov	fp,r19
   29414:	003cc706 	br	28734 <___vfiprintf_internal_r+0x2dc>
   29418:	a0800007 	ldb	r2,0(r20)
   2941c:	df000315 	stw	fp,12(sp)
   29420:	003c4f06 	br	28560 <___vfiprintf_internal_r+0x108>
   29424:	002d883a 	mov	r22,zero
   29428:	9839883a 	mov	fp,r19
   2942c:	003cc106 	br	28734 <___vfiprintf_internal_r+0x2dc>
   29430:	42000204 	addi	r8,r8,8
   29434:	31400044 	addi	r5,r6,1
   29438:	3009883a 	mov	r4,r6
   2943c:	003cf006 	br	28800 <___vfiprintf_internal_r+0x3a8>
   29440:	8080040c 	andi	r2,r16,16
   29444:	10003e1e 	bne	r2,zero,29540 <___vfiprintf_internal_r+0x10e8>
   29448:	8400100c 	andi	r16,r16,64
   2944c:	80003c26 	beq	r16,zero,29540 <___vfiprintf_internal_r+0x10e8>
   29450:	d8800317 	ldw	r2,12(sp)
   29454:	d8c00117 	ldw	r3,4(sp)
   29458:	10800017 	ldw	r2,0(r2)
   2945c:	10c0000d 	sth	r3,0(r2)
   29460:	003e0506 	br	28c78 <___vfiprintf_internal_r+0x820>
   29464:	0009883a 	mov	r4,zero
   29468:	01400044 	movi	r5,1
   2946c:	9811883a 	mov	r8,r19
   29470:	003ce106 	br	287f8 <___vfiprintf_internal_r+0x3a0>
   29474:	a82d883a 	mov	r22,r21
   29478:	2839883a 	mov	fp,r5
   2947c:	003cad06 	br	28734 <___vfiprintf_internal_r+0x2dc>
   29480:	e009883a 	mov	r4,fp
   29484:	da000215 	stw	r8,8(sp)
   29488:	d8c00315 	stw	r3,12(sp)
   2948c:	0020bb40 	call	20bb4 <strlen>
   29490:	da000217 	ldw	r8,8(sp)
   29494:	102b883a 	mov	r21,r2
   29498:	102d883a 	mov	r22,r2
   2949c:	003ca406 	br	28730 <___vfiprintf_internal_r+0x2d8>
   294a0:	8005883a 	mov	r2,r16
   294a4:	003e0b06 	br	28cd4 <___vfiprintf_internal_r+0x87c>
   294a8:	00c000f4 	movhi	r3,3
   294ac:	18c1aa04 	addi	r3,r3,1704
   294b0:	d8c00515 	stw	r3,20(sp)
   294b4:	80c0080c 	andi	r3,r16,32
   294b8:	18002826 	beq	r3,zero,2955c <___vfiprintf_internal_r+0x1104>
   294bc:	d8c00317 	ldw	r3,12(sp)
   294c0:	1d800017 	ldw	r22,0(r3)
   294c4:	1d400117 	ldw	r21,4(r3)
   294c8:	18c00204 	addi	r3,r3,8
   294cc:	d8c00315 	stw	r3,12(sp)
   294d0:	80c0004c 	andi	r3,r16,1
   294d4:	18001f26 	beq	r3,zero,29554 <___vfiprintf_internal_r+0x10fc>
   294d8:	b546b03a 	or	r3,r22,r21
   294dc:	183fc426 	beq	r3,zero,293f0 <___vfiprintf_internal_r+0xf98>
   294e0:	00c00c04 	movi	r3,48
   294e4:	d8c00985 	stb	r3,38(sp)
   294e8:	d88009c5 	stb	r2,39(sp)
   294ec:	d8000945 	stb	zero,37(sp)
   294f0:	48bfffd8 	cmpnei	r2,r9,-1
   294f4:	80c00094 	ori	r3,r16,2
   294f8:	10006d1e 	bne	r2,zero,296b0 <___vfiprintf_internal_r+0x1258>
   294fc:	1821883a 	mov	r16,r3
   29500:	003f6806 	br	292a4 <___vfiprintf_internal_r+0xe4c>
   29504:	8005883a 	mov	r2,r16
   29508:	003e0b06 	br	28d38 <___vfiprintf_internal_r+0x8e0>
   2950c:	d8c00947 	ldb	r3,37(sp)
   29510:	18003b26 	beq	r3,zero,29600 <___vfiprintf_internal_r+0x11a8>
   29514:	d8800944 	addi	r2,sp,37
   29518:	d8801715 	stw	r2,92(sp)
   2951c:	00800044 	movi	r2,1
   29520:	d8801815 	stw	r2,96(sp)
   29524:	01400044 	movi	r5,1
   29528:	9811883a 	mov	r8,r19
   2952c:	003c9706 	br	2878c <___vfiprintf_internal_r+0x334>
   29530:	00c000f4 	movhi	r3,3
   29534:	18c1af04 	addi	r3,r3,1724
   29538:	d8c00515 	stw	r3,20(sp)
   2953c:	003fdd06 	br	294b4 <___vfiprintf_internal_r+0x105c>
   29540:	d8800317 	ldw	r2,12(sp)
   29544:	d8c00117 	ldw	r3,4(sp)
   29548:	10800017 	ldw	r2,0(r2)
   2954c:	10c00015 	stw	r3,0(r2)
   29550:	003dc906 	br	28c78 <___vfiprintf_internal_r+0x820>
   29554:	8005883a 	mov	r2,r16
   29558:	003e4606 	br	28e74 <___vfiprintf_internal_r+0xa1c>
   2955c:	d9000317 	ldw	r4,12(sp)
   29560:	80c0040c 	andi	r3,r16,16
   29564:	25800017 	ldw	r22,0(r4)
   29568:	21000104 	addi	r4,r4,4
   2956c:	d9000315 	stw	r4,12(sp)
   29570:	1800051e 	bne	r3,zero,29588 <___vfiprintf_internal_r+0x1130>
   29574:	80c0100c 	andi	r3,r16,64
   29578:	18000326 	beq	r3,zero,29588 <___vfiprintf_internal_r+0x1130>
   2957c:	b5bfffcc 	andi	r22,r22,65535
   29580:	002b883a 	mov	r21,zero
   29584:	003fd206 	br	294d0 <___vfiprintf_internal_r+0x1078>
   29588:	002b883a 	mov	r21,zero
   2958c:	003fd006 	br	294d0 <___vfiprintf_internal_r+0x1078>
   29590:	002d883a 	mov	r22,zero
   29594:	002b883a 	mov	r21,zero
   29598:	003f4206 	br	292a4 <___vfiprintf_internal_r+0xe4c>
   2959c:	18800060 	cmpeqi	r2,r3,1
   295a0:	1000341e 	bne	r2,zero,29674 <___vfiprintf_internal_r+0x121c>
   295a4:	18c000a0 	cmpeqi	r3,r3,2
   295a8:	183ff91e 	bne	r3,zero,29590 <___vfiprintf_internal_r+0x1138>
   295ac:	002d883a 	mov	r22,zero
   295b0:	002b883a 	mov	r21,zero
   295b4:	003df306 	br	28d84 <___vfiprintf_internal_r+0x92c>
   295b8:	488001f0 	cmpltui	r2,r9,7
   295bc:	482b883a 	mov	r21,r9
   295c0:	10000d26 	beq	r2,zero,295f8 <___vfiprintf_internal_r+0x11a0>
   295c4:	070000f4 	movhi	fp,3
   295c8:	a82d883a 	mov	r22,r21
   295cc:	d8c00315 	stw	r3,12(sp)
   295d0:	e701b404 	addi	fp,fp,1744
   295d4:	003c5606 	br	28730 <___vfiprintf_internal_r+0x2d8>
   295d8:	00c000f4 	movhi	r3,3
   295dc:	18c22f04 	addi	r3,r3,2236
   295e0:	d8c00415 	stw	r3,16(sp)
   295e4:	003eb806 	br	290c8 <___vfiprintf_internal_r+0xc70>
   295e8:	01400044 	movi	r5,1
   295ec:	0009883a 	mov	r4,zero
   295f0:	9811883a 	mov	r8,r19
   295f4:	003c8206 	br	28800 <___vfiprintf_internal_r+0x3a8>
   295f8:	05400184 	movi	r21,6
   295fc:	003ff106 	br	295c4 <___vfiprintf_internal_r+0x116c>
   29600:	0009883a 	mov	r4,zero
   29604:	01400044 	movi	r5,1
   29608:	9811883a 	mov	r8,r19
   2960c:	003c6206 	br	28798 <___vfiprintf_internal_r+0x340>
   29610:	d9000017 	ldw	r4,0(sp)
   29614:	d9800a04 	addi	r6,sp,40
   29618:	900b883a 	mov	r5,r18
   2961c:	002834c0 	call	2834c <__sprint_r.part.0>
   29620:	003c9806 	br	28884 <___vfiprintf_internal_r+0x42c>
   29624:	482d883a 	mov	r22,r9
   29628:	d8c00315 	stw	r3,12(sp)
   2962c:	482b883a 	mov	r21,r9
   29630:	003c3f06 	br	28730 <___vfiprintf_internal_r+0x2d8>
   29634:	301f883a 	mov	r15,r6
   29638:	39c23304 	addi	r7,r7,2252
   2963c:	003f0306 	br	2924c <___vfiprintf_internal_r+0xdf4>
   29640:	21400044 	addi	r5,r4,1
   29644:	39c23304 	addi	r7,r7,2252
   29648:	003d1206 	br	28a94 <___vfiprintf_internal_r+0x63c>
   2964c:	00c000f4 	movhi	r3,3
   29650:	18c22f04 	addi	r3,r3,2236
   29654:	280d883a 	mov	r6,r5
   29658:	d8c00415 	stw	r3,16(sp)
   2965c:	003e6106 	br	28fe4 <___vfiprintf_internal_r+0xb8c>
   29660:	00bfffc4 	movi	r2,-1
   29664:	d8800115 	stw	r2,4(sp)
   29668:	003c8906 	br	28890 <___vfiprintf_internal_r+0x438>
   2966c:	05800c04 	movi	r22,48
   29670:	003d3406 	br	28b44 <___vfiprintf_internal_r+0x6ec>
   29674:	0019883a 	mov	r12,zero
   29678:	05800c04 	movi	r22,48
   2967c:	003d3106 	br	28b44 <___vfiprintf_internal_r+0x6ec>
   29680:	d8800317 	ldw	r2,12(sp)
   29684:	12400017 	ldw	r9,0(r2)
   29688:	17000104 	addi	fp,r2,4
   2968c:	4800010e 	bge	r9,zero,29694 <___vfiprintf_internal_r+0x123c>
   29690:	027fffc4 	movi	r9,-1
   29694:	a0800043 	ldbu	r2,1(r20)
   29698:	df000315 	stw	fp,12(sp)
   2969c:	2029883a 	mov	r20,r4
   296a0:	10803fcc 	andi	r2,r2,255
   296a4:	1080201c 	xori	r2,r2,128
   296a8:	10bfe004 	addi	r2,r2,-128
   296ac:	003bac06 	br	28560 <___vfiprintf_internal_r+0x108>
   296b0:	00bfdfc4 	movi	r2,-129
   296b4:	8084703a 	and	r2,r16,r2
   296b8:	14000094 	ori	r16,r2,2
   296bc:	003ef906 	br	292a4 <___vfiprintf_internal_r+0xe4c>
   296c0:	0019883a 	mov	r12,zero
   296c4:	003d1b06 	br	28b34 <___vfiprintf_internal_r+0x6dc>

000296c8 <__vfiprintf_internal>:
   296c8:	00c000f4 	movhi	r3,3
   296cc:	2005883a 	mov	r2,r4
   296d0:	190a4217 	ldw	r4,10504(r3)
   296d4:	300f883a 	mov	r7,r6
   296d8:	280d883a 	mov	r6,r5
   296dc:	100b883a 	mov	r5,r2
   296e0:	00284581 	jmpi	28458 <___vfiprintf_internal_r>

000296e4 <__sbprintf>:
   296e4:	28c0038b 	ldhu	r3,14(r5)
   296e8:	2880030b 	ldhu	r2,12(r5)
   296ec:	2ac01917 	ldw	r11,100(r5)
   296f0:	1806943a 	slli	r3,r3,16
   296f4:	2a800717 	ldw	r10,28(r5)
   296f8:	2a400917 	ldw	r9,36(r5)
   296fc:	defee204 	addi	sp,sp,-1144
   29700:	10bfff4c 	andi	r2,r2,65533
   29704:	10c4b03a 	or	r2,r2,r3
   29708:	da001a04 	addi	r8,sp,104
   2970c:	00c10004 	movi	r3,1024
   29710:	dc011a15 	stw	r16,1128(sp)
   29714:	2821883a 	mov	r16,r5
   29718:	d80b883a 	mov	r5,sp
   2971c:	dc811c15 	stw	r18,1136(sp)
   29720:	dc411b15 	stw	r17,1132(sp)
   29724:	dfc11d15 	stw	ra,1140(sp)
   29728:	2025883a 	mov	r18,r4
   2972c:	dac01915 	stw	r11,100(sp)
   29730:	d8800315 	stw	r2,12(sp)
   29734:	da800715 	stw	r10,28(sp)
   29738:	da400915 	stw	r9,36(sp)
   2973c:	da000015 	stw	r8,0(sp)
   29740:	da000415 	stw	r8,16(sp)
   29744:	d8c00215 	stw	r3,8(sp)
   29748:	d8c00515 	stw	r3,20(sp)
   2974c:	d8000615 	stw	zero,24(sp)
   29750:	00284580 	call	28458 <___vfiprintf_internal_r>
   29754:	1023883a 	mov	r17,r2
   29758:	10000d0e 	bge	r2,zero,29790 <__sbprintf+0xac>
   2975c:	d880030b 	ldhu	r2,12(sp)
   29760:	1080100c 	andi	r2,r2,64
   29764:	10000326 	beq	r2,zero,29774 <__sbprintf+0x90>
   29768:	8080030b 	ldhu	r2,12(r16)
   2976c:	10801014 	ori	r2,r2,64
   29770:	8080030d 	sth	r2,12(r16)
   29774:	8805883a 	mov	r2,r17
   29778:	dfc11d17 	ldw	ra,1140(sp)
   2977c:	dc811c17 	ldw	r18,1136(sp)
   29780:	dc411b17 	ldw	r17,1132(sp)
   29784:	dc011a17 	ldw	r16,1128(sp)
   29788:	dec11e04 	addi	sp,sp,1144
   2978c:	f800283a 	ret
   29790:	d80b883a 	mov	r5,sp
   29794:	9009883a 	mov	r4,r18
   29798:	0024e0c0 	call	24e0c <_fflush_r>
   2979c:	103fef26 	beq	r2,zero,2975c <__sbprintf+0x78>
   297a0:	047fffc4 	movi	r17,-1
   297a4:	003fed06 	br	2975c <__sbprintf+0x78>

000297a8 <_write_r>:
   297a8:	2807883a 	mov	r3,r5
   297ac:	defffe04 	addi	sp,sp,-8
   297b0:	dc000015 	stw	r16,0(sp)
   297b4:	300b883a 	mov	r5,r6
   297b8:	008000f4 	movhi	r2,3
   297bc:	380d883a 	mov	r6,r7
   297c0:	2021883a 	mov	r16,r4
   297c4:	1809883a 	mov	r4,r3
   297c8:	dfc00115 	stw	ra,4(sp)
   297cc:	10116215 	stw	zero,17800(r2)
   297d0:	002e3ec0 	call	2e3ec <write>
   297d4:	10ffffd8 	cmpnei	r3,r2,-1
   297d8:	18000426 	beq	r3,zero,297ec <_write_r+0x44>
   297dc:	dfc00117 	ldw	ra,4(sp)
   297e0:	dc000017 	ldw	r16,0(sp)
   297e4:	dec00204 	addi	sp,sp,8
   297e8:	f800283a 	ret
   297ec:	00c000f4 	movhi	r3,3
   297f0:	18d16217 	ldw	r3,17800(r3)
   297f4:	183ff926 	beq	r3,zero,297dc <_write_r+0x34>
   297f8:	80c00015 	stw	r3,0(r16)
   297fc:	dfc00117 	ldw	ra,4(sp)
   29800:	dc000017 	ldw	r16,0(sp)
   29804:	dec00204 	addi	sp,sp,8
   29808:	f800283a 	ret

0002980c <_close_r>:
   2980c:	defffe04 	addi	sp,sp,-8
   29810:	dc000015 	stw	r16,0(sp)
   29814:	008000f4 	movhi	r2,3
   29818:	2021883a 	mov	r16,r4
   2981c:	2809883a 	mov	r4,r5
   29820:	dfc00115 	stw	ra,4(sp)
   29824:	10116215 	stw	zero,17800(r2)
   29828:	002da280 	call	2da28 <close>
   2982c:	10ffffd8 	cmpnei	r3,r2,-1
   29830:	18000426 	beq	r3,zero,29844 <_close_r+0x38>
   29834:	dfc00117 	ldw	ra,4(sp)
   29838:	dc000017 	ldw	r16,0(sp)
   2983c:	dec00204 	addi	sp,sp,8
   29840:	f800283a 	ret
   29844:	00c000f4 	movhi	r3,3
   29848:	18d16217 	ldw	r3,17800(r3)
   2984c:	183ff926 	beq	r3,zero,29834 <_close_r+0x28>
   29850:	80c00015 	stw	r3,0(r16)
   29854:	dfc00117 	ldw	ra,4(sp)
   29858:	dc000017 	ldw	r16,0(sp)
   2985c:	dec00204 	addi	sp,sp,8
   29860:	f800283a 	ret

00029864 <__assert_func>:
   29864:	008000f4 	movhi	r2,3
   29868:	120a4217 	ldw	r8,10504(r2)
   2986c:	defffc04 	addi	sp,sp,-16
   29870:	3807883a 	mov	r3,r7
   29874:	3005883a 	mov	r2,r6
   29878:	dfc00315 	stw	ra,12(sp)
   2987c:	42400317 	ldw	r9,12(r8)
   29880:	200f883a 	mov	r7,r4
   29884:	2811883a 	mov	r8,r5
   29888:	180d883a 	mov	r6,r3
   2988c:	10000a26 	beq	r2,zero,298b8 <__assert_func+0x54>
   29890:	00c000f4 	movhi	r3,3
   29894:	18c23704 	addi	r3,r3,2268
   29898:	014000f4 	movhi	r5,3
   2989c:	29423b04 	addi	r5,r5,2284
   298a0:	4809883a 	mov	r4,r9
   298a4:	d8c00115 	stw	r3,4(sp)
   298a8:	da000015 	stw	r8,0(sp)
   298ac:	d8800215 	stw	r2,8(sp)
   298b0:	0029b540 	call	29b54 <fiprintf>
   298b4:	002a39c0 	call	2a39c <abort>
   298b8:	00c000f4 	movhi	r3,3
   298bc:	18c23a04 	addi	r3,r3,2280
   298c0:	1805883a 	mov	r2,r3
   298c4:	003ff406 	br	29898 <__assert_func+0x34>

000298c8 <__assert>:
   298c8:	deffff04 	addi	sp,sp,-4
   298cc:	300f883a 	mov	r7,r6
   298d0:	000d883a 	mov	r6,zero
   298d4:	dfc00015 	stw	ra,0(sp)
   298d8:	00298640 	call	29864 <__assert_func>

000298dc <_calloc_r>:
   298dc:	2804d43a 	srli	r2,r5,16
   298e0:	deffff04 	addi	sp,sp,-4
   298e4:	dfc00015 	stw	ra,0(sp)
   298e8:	3006d43a 	srli	r3,r6,16
   298ec:	10002a1e 	bne	r2,zero,29998 <_calloc_r+0xbc>
   298f0:	1800411e 	bne	r3,zero,299f8 <_calloc_r+0x11c>
   298f4:	31bfffcc 	andi	r6,r6,65535
   298f8:	297fffcc 	andi	r5,r5,65535
   298fc:	298b383a 	mul	r5,r5,r6
   29900:	0025ec80 	call	25ec8 <_malloc_r>
   29904:	1009883a 	mov	r4,r2
   29908:	10003626 	beq	r2,zero,299e4 <_calloc_r+0x108>
   2990c:	11bfff17 	ldw	r6,-4(r2)
   29910:	00bfff04 	movi	r2,-4
   29914:	308c703a 	and	r6,r6,r2
   29918:	31bfff04 	addi	r6,r6,-4
   2991c:	30800968 	cmpgeui	r2,r6,37
   29920:	10000c1e 	bne	r2,zero,29954 <_calloc_r+0x78>
   29924:	30800530 	cmpltui	r2,r6,20
   29928:	1000111e 	bne	r2,zero,29970 <_calloc_r+0x94>
   2992c:	20000015 	stw	zero,0(r4)
   29930:	20000115 	stw	zero,4(r4)
   29934:	30800728 	cmpgeui	r2,r6,28
   29938:	10001526 	beq	r2,zero,29990 <_calloc_r+0xb4>
   2993c:	20000215 	stw	zero,8(r4)
   29940:	20000315 	stw	zero,12(r4)
   29944:	31800920 	cmpeqi	r6,r6,36
   29948:	3000311e 	bne	r6,zero,29a10 <_calloc_r+0x134>
   2994c:	20800404 	addi	r2,r4,16
   29950:	00000806 	br	29974 <_calloc_r+0x98>
   29954:	000b883a 	mov	r5,zero
   29958:	00269740 	call	26974 <memset>
   2995c:	1009883a 	mov	r4,r2
   29960:	2005883a 	mov	r2,r4
   29964:	dfc00017 	ldw	ra,0(sp)
   29968:	dec00104 	addi	sp,sp,4
   2996c:	f800283a 	ret
   29970:	2005883a 	mov	r2,r4
   29974:	10000015 	stw	zero,0(r2)
   29978:	10000115 	stw	zero,4(r2)
   2997c:	10000215 	stw	zero,8(r2)
   29980:	2005883a 	mov	r2,r4
   29984:	dfc00017 	ldw	ra,0(sp)
   29988:	dec00104 	addi	sp,sp,4
   2998c:	f800283a 	ret
   29990:	20800204 	addi	r2,r4,8
   29994:	003ff706 	br	29974 <_calloc_r+0x98>
   29998:	1800191e 	bne	r3,zero,29a00 <_calloc_r+0x124>
   2999c:	1007883a 	mov	r3,r2
   299a0:	3005883a 	mov	r2,r6
   299a4:	297fffcc 	andi	r5,r5,65535
   299a8:	31bfffcc 	andi	r6,r6,65535
   299ac:	298b383a 	mul	r5,r5,r6
   299b0:	18ffffcc 	andi	r3,r3,65535
   299b4:	10bfffcc 	andi	r2,r2,65535
   299b8:	10c5383a 	mul	r2,r2,r3
   299bc:	2806d43a 	srli	r3,r5,16
   299c0:	10c5883a 	add	r2,r2,r3
   299c4:	1006d43a 	srli	r3,r2,16
   299c8:	18000d1e 	bne	r3,zero,29a00 <_calloc_r+0x124>
   299cc:	1004943a 	slli	r2,r2,16
   299d0:	297fffcc 	andi	r5,r5,65535
   299d4:	114ab03a 	or	r5,r2,r5
   299d8:	0025ec80 	call	25ec8 <_malloc_r>
   299dc:	1009883a 	mov	r4,r2
   299e0:	103fca1e 	bne	r2,zero,2990c <_calloc_r+0x30>
   299e4:	0009883a 	mov	r4,zero
   299e8:	2005883a 	mov	r2,r4
   299ec:	dfc00017 	ldw	ra,0(sp)
   299f0:	dec00104 	addi	sp,sp,4
   299f4:	f800283a 	ret
   299f8:	2805883a 	mov	r2,r5
   299fc:	003fe906 	br	299a4 <_calloc_r+0xc8>
   29a00:	0029a200 	call	29a20 <__errno>
   29a04:	00c00304 	movi	r3,12
   29a08:	10c00015 	stw	r3,0(r2)
   29a0c:	003ff506 	br	299e4 <_calloc_r+0x108>
   29a10:	20000415 	stw	zero,16(r4)
   29a14:	20800604 	addi	r2,r4,24
   29a18:	20000515 	stw	zero,20(r4)
   29a1c:	003fd506 	br	29974 <_calloc_r+0x98>

00029a20 <__errno>:
   29a20:	008000f4 	movhi	r2,3
   29a24:	108a4217 	ldw	r2,10504(r2)
   29a28:	f800283a 	ret

00029a2c <_fclose_r>:
   29a2c:	defffc04 	addi	sp,sp,-16
   29a30:	dfc00315 	stw	ra,12(sp)
   29a34:	dc800215 	stw	r18,8(sp)
   29a38:	dc400115 	stw	r17,4(sp)
   29a3c:	dc000015 	stw	r16,0(sp)
   29a40:	28000726 	beq	r5,zero,29a60 <_fclose_r+0x34>
   29a44:	2821883a 	mov	r16,r5
   29a48:	2023883a 	mov	r17,r4
   29a4c:	20000226 	beq	r4,zero,29a58 <_fclose_r+0x2c>
   29a50:	20800e17 	ldw	r2,56(r4)
   29a54:	10002726 	beq	r2,zero,29af4 <_fclose_r+0xc8>
   29a58:	8080030f 	ldh	r2,12(r16)
   29a5c:	1000081e 	bne	r2,zero,29a80 <_fclose_r+0x54>
   29a60:	0025883a 	mov	r18,zero
   29a64:	9005883a 	mov	r2,r18
   29a68:	dfc00317 	ldw	ra,12(sp)
   29a6c:	dc800217 	ldw	r18,8(sp)
   29a70:	dc400117 	ldw	r17,4(sp)
   29a74:	dc000017 	ldw	r16,0(sp)
   29a78:	dec00404 	addi	sp,sp,16
   29a7c:	f800283a 	ret
   29a80:	800b883a 	mov	r5,r16
   29a84:	8809883a 	mov	r4,r17
   29a88:	0024c040 	call	24c04 <__sflush_r>
   29a8c:	80c00b17 	ldw	r3,44(r16)
   29a90:	1025883a 	mov	r18,r2
   29a94:	18000426 	beq	r3,zero,29aa8 <_fclose_r+0x7c>
   29a98:	81400717 	ldw	r5,28(r16)
   29a9c:	8809883a 	mov	r4,r17
   29aa0:	183ee83a 	callr	r3
   29aa4:	10001716 	blt	r2,zero,29b04 <_fclose_r+0xd8>
   29aa8:	8080030b 	ldhu	r2,12(r16)
   29aac:	1080200c 	andi	r2,r2,128
   29ab0:	1000181e 	bne	r2,zero,29b14 <_fclose_r+0xe8>
   29ab4:	81400c17 	ldw	r5,48(r16)
   29ab8:	28000526 	beq	r5,zero,29ad0 <_fclose_r+0xa4>
   29abc:	80801004 	addi	r2,r16,64
   29ac0:	28800226 	beq	r5,r2,29acc <_fclose_r+0xa0>
   29ac4:	8809883a 	mov	r4,r17
   29ac8:	00253900 	call	25390 <_free_r>
   29acc:	80000c15 	stw	zero,48(r16)
   29ad0:	81401117 	ldw	r5,68(r16)
   29ad4:	28000326 	beq	r5,zero,29ae4 <_fclose_r+0xb8>
   29ad8:	8809883a 	mov	r4,r17
   29adc:	00253900 	call	25390 <_free_r>
   29ae0:	80001115 	stw	zero,68(r16)
   29ae4:	00252340 	call	25234 <__sfp_lock_acquire>
   29ae8:	8000030d 	sth	zero,12(r16)
   29aec:	00252380 	call	25238 <__sfp_lock_release>
   29af0:	003fdc06 	br	29a64 <_fclose_r+0x38>
   29af4:	00252240 	call	25224 <__sinit>
   29af8:	8080030f 	ldh	r2,12(r16)
   29afc:	103fd826 	beq	r2,zero,29a60 <_fclose_r+0x34>
   29b00:	003fdf06 	br	29a80 <_fclose_r+0x54>
   29b04:	8080030b 	ldhu	r2,12(r16)
   29b08:	04bfffc4 	movi	r18,-1
   29b0c:	1080200c 	andi	r2,r2,128
   29b10:	103fe826 	beq	r2,zero,29ab4 <_fclose_r+0x88>
   29b14:	81400417 	ldw	r5,16(r16)
   29b18:	8809883a 	mov	r4,r17
   29b1c:	00253900 	call	25390 <_free_r>
   29b20:	003fe406 	br	29ab4 <_fclose_r+0x88>

00029b24 <fclose>:
   29b24:	008000f4 	movhi	r2,3
   29b28:	200b883a 	mov	r5,r4
   29b2c:	110a4217 	ldw	r4,10504(r2)
   29b30:	0029a2c1 	jmpi	29a2c <_fclose_r>

00029b34 <_fiprintf_r>:
   29b34:	defffe04 	addi	sp,sp,-8
   29b38:	dfc00015 	stw	ra,0(sp)
   29b3c:	d9c00115 	stw	r7,4(sp)
   29b40:	d9c00104 	addi	r7,sp,4
   29b44:	002a1080 	call	2a108 <_vfiprintf_r>
   29b48:	dfc00017 	ldw	ra,0(sp)
   29b4c:	dec00204 	addi	sp,sp,8
   29b50:	f800283a 	ret

00029b54 <fiprintf>:
   29b54:	defffd04 	addi	sp,sp,-12
   29b58:	2005883a 	mov	r2,r4
   29b5c:	dfc00015 	stw	ra,0(sp)
   29b60:	d9800115 	stw	r6,4(sp)
   29b64:	d9c00215 	stw	r7,8(sp)
   29b68:	00c000f4 	movhi	r3,3
   29b6c:	190a4217 	ldw	r4,10504(r3)
   29b70:	280d883a 	mov	r6,r5
   29b74:	d9c00104 	addi	r7,sp,4
   29b78:	100b883a 	mov	r5,r2
   29b7c:	002a1080 	call	2a108 <_vfiprintf_r>
   29b80:	dfc00017 	ldw	ra,0(sp)
   29b84:	dec00304 	addi	sp,sp,12
   29b88:	f800283a 	ret

00029b8c <__fputwc>:
   29b8c:	defff904 	addi	sp,sp,-28
   29b90:	dcc00415 	stw	r19,16(sp)
   29b94:	dc800315 	stw	r18,12(sp)
   29b98:	dc000115 	stw	r16,4(sp)
   29b9c:	dfc00615 	stw	ra,24(sp)
   29ba0:	dd000515 	stw	r20,20(sp)
   29ba4:	dc400215 	stw	r17,8(sp)
   29ba8:	2027883a 	mov	r19,r4
   29bac:	2825883a 	mov	r18,r5
   29bb0:	3021883a 	mov	r16,r6
   29bb4:	0029eb80 	call	29eb8 <__locale_mb_cur_max>
   29bb8:	10800058 	cmpnei	r2,r2,1
   29bbc:	1000071e 	bne	r2,zero,29bdc <__fputwc+0x50>
   29bc0:	90bfffc4 	addi	r2,r18,-1
   29bc4:	10803fe8 	cmpgeui	r2,r2,255
   29bc8:	1000041e 	bne	r2,zero,29bdc <__fputwc+0x50>
   29bcc:	900b883a 	mov	r5,r18
   29bd0:	dc8000c5 	stb	r18,3(sp)
   29bd4:	05000044 	movi	r20,1
   29bd8:	00000a06 	br	29c04 <__fputwc+0x78>
   29bdc:	81c01704 	addi	r7,r16,92
   29be0:	900d883a 	mov	r6,r18
   29be4:	d94000c4 	addi	r5,sp,3
   29be8:	9809883a 	mov	r4,r19
   29bec:	002a26c0 	call	2a26c <_wcrtomb_r>
   29bf0:	1029883a 	mov	r20,r2
   29bf4:	10bfffd8 	cmpnei	r2,r2,-1
   29bf8:	10003826 	beq	r2,zero,29cdc <__fputwc+0x150>
   29bfc:	a0001f26 	beq	r20,zero,29c7c <__fputwc+0xf0>
   29c00:	d94000c3 	ldbu	r5,3(sp)
   29c04:	0023883a 	mov	r17,zero
   29c08:	00000a06 	br	29c34 <__fputwc+0xa8>
   29c0c:	80800017 	ldw	r2,0(r16)
   29c10:	11400005 	stb	r5,0(r2)
   29c14:	80c00017 	ldw	r3,0(r16)
   29c18:	18c00044 	addi	r3,r3,1
   29c1c:	80c00015 	stw	r3,0(r16)
   29c20:	8c400044 	addi	r17,r17,1
   29c24:	d88000c4 	addi	r2,sp,3
   29c28:	1447883a 	add	r3,r2,r17
   29c2c:	8d00132e 	bgeu	r17,r20,29c7c <__fputwc+0xf0>
   29c30:	19400003 	ldbu	r5,0(r3)
   29c34:	80c00217 	ldw	r3,8(r16)
   29c38:	18ffffc4 	addi	r3,r3,-1
   29c3c:	80c00215 	stw	r3,8(r16)
   29c40:	183ff20e 	bge	r3,zero,29c0c <__fputwc+0x80>
   29c44:	80800617 	ldw	r2,24(r16)
   29c48:	18801516 	blt	r3,r2,29ca0 <__fputwc+0x114>
   29c4c:	80800017 	ldw	r2,0(r16)
   29c50:	11400005 	stb	r5,0(r2)
   29c54:	80800017 	ldw	r2,0(r16)
   29c58:	10c00003 	ldbu	r3,0(r2)
   29c5c:	10800044 	addi	r2,r2,1
   29c60:	18c002a0 	cmpeqi	r3,r3,10
   29c64:	1800161e 	bne	r3,zero,29cc0 <__fputwc+0x134>
   29c68:	80800015 	stw	r2,0(r16)
   29c6c:	8c400044 	addi	r17,r17,1
   29c70:	d88000c4 	addi	r2,sp,3
   29c74:	1447883a 	add	r3,r2,r17
   29c78:	8d3fed36 	bltu	r17,r20,29c30 <__fputwc+0xa4>
   29c7c:	9005883a 	mov	r2,r18
   29c80:	dfc00617 	ldw	ra,24(sp)
   29c84:	dd000517 	ldw	r20,20(sp)
   29c88:	dcc00417 	ldw	r19,16(sp)
   29c8c:	dc800317 	ldw	r18,12(sp)
   29c90:	dc400217 	ldw	r17,8(sp)
   29c94:	dc000117 	ldw	r16,4(sp)
   29c98:	dec00704 	addi	sp,sp,28
   29c9c:	f800283a 	ret
   29ca0:	29403fcc 	andi	r5,r5,255
   29ca4:	800d883a 	mov	r6,r16
   29ca8:	9809883a 	mov	r4,r19
   29cac:	002a10c0 	call	2a10c <__swbuf_r>
   29cb0:	10bfffe0 	cmpeqi	r2,r2,-1
   29cb4:	103fda26 	beq	r2,zero,29c20 <__fputwc+0x94>
   29cb8:	00bfffc4 	movi	r2,-1
   29cbc:	003ff006 	br	29c80 <__fputwc+0xf4>
   29cc0:	800d883a 	mov	r6,r16
   29cc4:	01400284 	movi	r5,10
   29cc8:	9809883a 	mov	r4,r19
   29ccc:	002a10c0 	call	2a10c <__swbuf_r>
   29cd0:	10bfffe0 	cmpeqi	r2,r2,-1
   29cd4:	103fd226 	beq	r2,zero,29c20 <__fputwc+0x94>
   29cd8:	003ff706 	br	29cb8 <__fputwc+0x12c>
   29cdc:	8080030b 	ldhu	r2,12(r16)
   29ce0:	10801014 	ori	r2,r2,64
   29ce4:	8080030d 	sth	r2,12(r16)
   29ce8:	00bfffc4 	movi	r2,-1
   29cec:	003fe406 	br	29c80 <__fputwc+0xf4>

00029cf0 <_fputwc_r>:
   29cf0:	3080030b 	ldhu	r2,12(r6)
   29cf4:	10c8000c 	andi	r3,r2,8192
   29cf8:	1800051e 	bne	r3,zero,29d10 <_fputwc_r+0x20>
   29cfc:	30c01917 	ldw	r3,100(r6)
   29d00:	10880014 	ori	r2,r2,8192
   29d04:	3080030d 	sth	r2,12(r6)
   29d08:	18880014 	ori	r2,r3,8192
   29d0c:	30801915 	stw	r2,100(r6)
   29d10:	0029b8c1 	jmpi	29b8c <__fputwc>

00029d14 <fputwc>:
   29d14:	defffc04 	addi	sp,sp,-16
   29d18:	008000f4 	movhi	r2,3
   29d1c:	dc000215 	stw	r16,8(sp)
   29d20:	140a4217 	ldw	r16,10504(r2)
   29d24:	dfc00315 	stw	ra,12(sp)
   29d28:	280d883a 	mov	r6,r5
   29d2c:	200b883a 	mov	r5,r4
   29d30:	80000226 	beq	r16,zero,29d3c <fputwc+0x28>
   29d34:	80800e17 	ldw	r2,56(r16)
   29d38:	10000d26 	beq	r2,zero,29d70 <fputwc+0x5c>
   29d3c:	3080030b 	ldhu	r2,12(r6)
   29d40:	10c8000c 	andi	r3,r2,8192
   29d44:	1800051e 	bne	r3,zero,29d5c <fputwc+0x48>
   29d48:	30c01917 	ldw	r3,100(r6)
   29d4c:	10880014 	ori	r2,r2,8192
   29d50:	3080030d 	sth	r2,12(r6)
   29d54:	18880014 	ori	r2,r3,8192
   29d58:	30801915 	stw	r2,100(r6)
   29d5c:	8009883a 	mov	r4,r16
   29d60:	dfc00317 	ldw	ra,12(sp)
   29d64:	dc000217 	ldw	r16,8(sp)
   29d68:	dec00404 	addi	sp,sp,16
   29d6c:	0029b8c1 	jmpi	29b8c <__fputwc>
   29d70:	d9000015 	stw	r4,0(sp)
   29d74:	8009883a 	mov	r4,r16
   29d78:	d9800115 	stw	r6,4(sp)
   29d7c:	00252240 	call	25224 <__sinit>
   29d80:	d9800117 	ldw	r6,4(sp)
   29d84:	d9400017 	ldw	r5,0(sp)
   29d88:	003fec06 	br	29d3c <fputwc+0x28>

00029d8c <_fstat_r>:
   29d8c:	2807883a 	mov	r3,r5
   29d90:	defffe04 	addi	sp,sp,-8
   29d94:	dc000015 	stw	r16,0(sp)
   29d98:	008000f4 	movhi	r2,3
   29d9c:	300b883a 	mov	r5,r6
   29da0:	2021883a 	mov	r16,r4
   29da4:	1809883a 	mov	r4,r3
   29da8:	dfc00115 	stw	ra,4(sp)
   29dac:	10116215 	stw	zero,17800(r2)
   29db0:	002db9c0 	call	2db9c <fstat>
   29db4:	10ffffd8 	cmpnei	r3,r2,-1
   29db8:	18000426 	beq	r3,zero,29dcc <_fstat_r+0x40>
   29dbc:	dfc00117 	ldw	ra,4(sp)
   29dc0:	dc000017 	ldw	r16,0(sp)
   29dc4:	dec00204 	addi	sp,sp,8
   29dc8:	f800283a 	ret
   29dcc:	00c000f4 	movhi	r3,3
   29dd0:	18d16217 	ldw	r3,17800(r3)
   29dd4:	183ff926 	beq	r3,zero,29dbc <_fstat_r+0x30>
   29dd8:	80c00015 	stw	r3,0(r16)
   29ddc:	dfc00117 	ldw	ra,4(sp)
   29de0:	dc000017 	ldw	r16,0(sp)
   29de4:	dec00204 	addi	sp,sp,8
   29de8:	f800283a 	ret

00029dec <_isatty_r>:
   29dec:	defffe04 	addi	sp,sp,-8
   29df0:	dc000015 	stw	r16,0(sp)
   29df4:	008000f4 	movhi	r2,3
   29df8:	2021883a 	mov	r16,r4
   29dfc:	2809883a 	mov	r4,r5
   29e00:	dfc00115 	stw	ra,4(sp)
   29e04:	10116215 	stw	zero,17800(r2)
   29e08:	002dca80 	call	2dca8 <isatty>
   29e0c:	10ffffd8 	cmpnei	r3,r2,-1
   29e10:	18000426 	beq	r3,zero,29e24 <_isatty_r+0x38>
   29e14:	dfc00117 	ldw	ra,4(sp)
   29e18:	dc000017 	ldw	r16,0(sp)
   29e1c:	dec00204 	addi	sp,sp,8
   29e20:	f800283a 	ret
   29e24:	00c000f4 	movhi	r3,3
   29e28:	18d16217 	ldw	r3,17800(r3)
   29e2c:	183ff926 	beq	r3,zero,29e14 <_isatty_r+0x28>
   29e30:	80c00015 	stw	r3,0(r16)
   29e34:	dfc00117 	ldw	ra,4(sp)
   29e38:	dc000017 	ldw	r16,0(sp)
   29e3c:	dec00204 	addi	sp,sp,8
   29e40:	f800283a 	ret

00029e44 <_setlocale_r>:
   29e44:	30001626 	beq	r6,zero,29ea0 <_setlocale_r+0x5c>
   29e48:	014000f4 	movhi	r5,3
   29e4c:	defffe04 	addi	sp,sp,-8
   29e50:	29424804 	addi	r5,r5,2336
   29e54:	3009883a 	mov	r4,r6
   29e58:	dc000015 	stw	r16,0(sp)
   29e5c:	dfc00115 	stw	ra,4(sp)
   29e60:	3021883a 	mov	r16,r6
   29e64:	002a0500 	call	2a050 <strcmp>
   29e68:	1000061e 	bne	r2,zero,29e84 <_setlocale_r+0x40>
   29e6c:	008000f4 	movhi	r2,3
   29e70:	10824704 	addi	r2,r2,2332
   29e74:	dfc00117 	ldw	ra,4(sp)
   29e78:	dc000017 	ldw	r16,0(sp)
   29e7c:	dec00204 	addi	sp,sp,8
   29e80:	f800283a 	ret
   29e84:	80800003 	ldbu	r2,0(r16)
   29e88:	10bfef44 	addi	r2,r2,-67
   29e8c:	10000726 	beq	r2,zero,29eac <_setlocale_r+0x68>
   29e90:	80800003 	ldbu	r2,0(r16)
   29e94:	103ff526 	beq	r2,zero,29e6c <_setlocale_r+0x28>
   29e98:	0005883a 	mov	r2,zero
   29e9c:	003ff506 	br	29e74 <_setlocale_r+0x30>
   29ea0:	008000f4 	movhi	r2,3
   29ea4:	10824704 	addi	r2,r2,2332
   29ea8:	f800283a 	ret
   29eac:	80800043 	ldbu	r2,1(r16)
   29eb0:	103fee26 	beq	r2,zero,29e6c <_setlocale_r+0x28>
   29eb4:	003ff606 	br	29e90 <_setlocale_r+0x4c>

00029eb8 <__locale_mb_cur_max>:
   29eb8:	008000f4 	movhi	r2,3
   29ebc:	10859807 	ldb	r2,5728(r2)
   29ec0:	f800283a 	ret

00029ec4 <setlocale>:
   29ec4:	28001626 	beq	r5,zero,29f20 <setlocale+0x5c>
   29ec8:	defffe04 	addi	sp,sp,-8
   29ecc:	dc000015 	stw	r16,0(sp)
   29ed0:	2821883a 	mov	r16,r5
   29ed4:	014000f4 	movhi	r5,3
   29ed8:	29424804 	addi	r5,r5,2336
   29edc:	8009883a 	mov	r4,r16
   29ee0:	dfc00115 	stw	ra,4(sp)
   29ee4:	002a0500 	call	2a050 <strcmp>
   29ee8:	1000061e 	bne	r2,zero,29f04 <setlocale+0x40>
   29eec:	008000f4 	movhi	r2,3
   29ef0:	10824704 	addi	r2,r2,2332
   29ef4:	dfc00117 	ldw	ra,4(sp)
   29ef8:	dc000017 	ldw	r16,0(sp)
   29efc:	dec00204 	addi	sp,sp,8
   29f00:	f800283a 	ret
   29f04:	80800003 	ldbu	r2,0(r16)
   29f08:	10bfef44 	addi	r2,r2,-67
   29f0c:	10000726 	beq	r2,zero,29f2c <setlocale+0x68>
   29f10:	80800003 	ldbu	r2,0(r16)
   29f14:	103ff526 	beq	r2,zero,29eec <setlocale+0x28>
   29f18:	0005883a 	mov	r2,zero
   29f1c:	003ff506 	br	29ef4 <setlocale+0x30>
   29f20:	008000f4 	movhi	r2,3
   29f24:	10824704 	addi	r2,r2,2332
   29f28:	f800283a 	ret
   29f2c:	80800043 	ldbu	r2,1(r16)
   29f30:	103fee26 	beq	r2,zero,29eec <setlocale+0x28>
   29f34:	003ff606 	br	29f10 <setlocale+0x4c>

00029f38 <_lseek_r>:
   29f38:	2807883a 	mov	r3,r5
   29f3c:	defffe04 	addi	sp,sp,-8
   29f40:	dc000015 	stw	r16,0(sp)
   29f44:	300b883a 	mov	r5,r6
   29f48:	008000f4 	movhi	r2,3
   29f4c:	380d883a 	mov	r6,r7
   29f50:	2021883a 	mov	r16,r4
   29f54:	1809883a 	mov	r4,r3
   29f58:	dfc00115 	stw	ra,4(sp)
   29f5c:	10116215 	stw	zero,17800(r2)
   29f60:	002dfa00 	call	2dfa0 <lseek>
   29f64:	10ffffd8 	cmpnei	r3,r2,-1
   29f68:	18000426 	beq	r3,zero,29f7c <_lseek_r+0x44>
   29f6c:	dfc00117 	ldw	ra,4(sp)
   29f70:	dc000017 	ldw	r16,0(sp)
   29f74:	dec00204 	addi	sp,sp,8
   29f78:	f800283a 	ret
   29f7c:	00c000f4 	movhi	r3,3
   29f80:	18d16217 	ldw	r3,17800(r3)
   29f84:	183ff926 	beq	r3,zero,29f6c <_lseek_r+0x34>
   29f88:	80c00015 	stw	r3,0(r16)
   29f8c:	dfc00117 	ldw	ra,4(sp)
   29f90:	dc000017 	ldw	r16,0(sp)
   29f94:	dec00204 	addi	sp,sp,8
   29f98:	f800283a 	ret

00029f9c <_mbtowc_r>:
   29f9c:	008000f4 	movhi	r2,3
   29fa0:	10858717 	ldw	r2,5660(r2)
   29fa4:	1000683a 	jmp	r2

00029fa8 <__ascii_mbtowc>:
   29fa8:	deffff04 	addi	sp,sp,-4
   29fac:	28000826 	beq	r5,zero,29fd0 <__ascii_mbtowc+0x28>
   29fb0:	30000926 	beq	r6,zero,29fd8 <__ascii_mbtowc+0x30>
   29fb4:	38000b26 	beq	r7,zero,29fe4 <__ascii_mbtowc+0x3c>
   29fb8:	30800003 	ldbu	r2,0(r6)
   29fbc:	28800015 	stw	r2,0(r5)
   29fc0:	30800003 	ldbu	r2,0(r6)
   29fc4:	1004c03a 	cmpne	r2,r2,zero
   29fc8:	dec00104 	addi	sp,sp,4
   29fcc:	f800283a 	ret
   29fd0:	d80b883a 	mov	r5,sp
   29fd4:	303ff71e 	bne	r6,zero,29fb4 <__ascii_mbtowc+0xc>
   29fd8:	0005883a 	mov	r2,zero
   29fdc:	dec00104 	addi	sp,sp,4
   29fe0:	f800283a 	ret
   29fe4:	00bfff84 	movi	r2,-2
   29fe8:	003ff706 	br	29fc8 <__ascii_mbtowc+0x20>

00029fec <_read_r>:
   29fec:	2807883a 	mov	r3,r5
   29ff0:	defffe04 	addi	sp,sp,-8
   29ff4:	dc000015 	stw	r16,0(sp)
   29ff8:	300b883a 	mov	r5,r6
   29ffc:	008000f4 	movhi	r2,3
   2a000:	380d883a 	mov	r6,r7
   2a004:	2021883a 	mov	r16,r4
   2a008:	1809883a 	mov	r4,r3
   2a00c:	dfc00115 	stw	ra,4(sp)
   2a010:	10116215 	stw	zero,17800(r2)
   2a014:	002e1740 	call	2e174 <read>
   2a018:	10ffffd8 	cmpnei	r3,r2,-1
   2a01c:	18000426 	beq	r3,zero,2a030 <_read_r+0x44>
   2a020:	dfc00117 	ldw	ra,4(sp)
   2a024:	dc000017 	ldw	r16,0(sp)
   2a028:	dec00204 	addi	sp,sp,8
   2a02c:	f800283a 	ret
   2a030:	00c000f4 	movhi	r3,3
   2a034:	18d16217 	ldw	r3,17800(r3)
   2a038:	183ff926 	beq	r3,zero,2a020 <_read_r+0x34>
   2a03c:	80c00015 	stw	r3,0(r16)
   2a040:	dfc00117 	ldw	ra,4(sp)
   2a044:	dc000017 	ldw	r16,0(sp)
   2a048:	dec00204 	addi	sp,sp,8
   2a04c:	f800283a 	ret

0002a050 <strcmp>:
   2a050:	2144b03a 	or	r2,r4,r5
   2a054:	108000cc 	andi	r2,r2,3
   2a058:	1000141e 	bne	r2,zero,2a0ac <strcmp+0x5c>
   2a05c:	20800017 	ldw	r2,0(r4)
   2a060:	28c00017 	ldw	r3,0(r5)
   2a064:	10c0111e 	bne	r2,r3,2a0ac <strcmp+0x5c>
   2a068:	01ffbff4 	movhi	r7,65279
   2a06c:	01a02074 	movhi	r6,32897
   2a070:	39ffbfc4 	addi	r7,r7,-257
   2a074:	31a02004 	addi	r6,r6,-32640
   2a078:	00000306 	br	2a088 <strcmp+0x38>
   2a07c:	20800017 	ldw	r2,0(r4)
   2a080:	28c00017 	ldw	r3,0(r5)
   2a084:	10c0091e 	bne	r2,r3,2a0ac <strcmp+0x5c>
   2a088:	11c7883a 	add	r3,r2,r7
   2a08c:	0084303a 	nor	r2,zero,r2
   2a090:	1884703a 	and	r2,r3,r2
   2a094:	1184703a 	and	r2,r2,r6
   2a098:	21000104 	addi	r4,r4,4
   2a09c:	29400104 	addi	r5,r5,4
   2a0a0:	103ff626 	beq	r2,zero,2a07c <strcmp+0x2c>
   2a0a4:	0005883a 	mov	r2,zero
   2a0a8:	f800283a 	ret
   2a0ac:	20c00003 	ldbu	r3,0(r4)
   2a0b0:	18803fcc 	andi	r2,r3,255
   2a0b4:	1080201c 	xori	r2,r2,128
   2a0b8:	10bfe004 	addi	r2,r2,-128
   2a0bc:	1000071e 	bne	r2,zero,2a0dc <strcmp+0x8c>
   2a0c0:	00000a06 	br	2a0ec <strcmp+0x9c>
   2a0c4:	20c00003 	ldbu	r3,0(r4)
   2a0c8:	29400044 	addi	r5,r5,1
   2a0cc:	18803fcc 	andi	r2,r3,255
   2a0d0:	1080201c 	xori	r2,r2,128
   2a0d4:	10bfe004 	addi	r2,r2,-128
   2a0d8:	10000726 	beq	r2,zero,2a0f8 <strcmp+0xa8>
   2a0dc:	29800007 	ldb	r6,0(r5)
   2a0e0:	21000044 	addi	r4,r4,1
   2a0e4:	30bff726 	beq	r6,r2,2a0c4 <strcmp+0x74>
   2a0e8:	18803fcc 	andi	r2,r3,255
   2a0ec:	28c00003 	ldbu	r3,0(r5)
   2a0f0:	10c5c83a 	sub	r2,r2,r3
   2a0f4:	f800283a 	ret
   2a0f8:	28c00003 	ldbu	r3,0(r5)
   2a0fc:	0005883a 	mov	r2,zero
   2a100:	10c5c83a 	sub	r2,r2,r3
   2a104:	f800283a 	ret

0002a108 <_vfiprintf_r>:
   2a108:	00284581 	jmpi	28458 <___vfiprintf_internal_r>

0002a10c <__swbuf_r>:
   2a10c:	defffb04 	addi	sp,sp,-20
   2a110:	dcc00315 	stw	r19,12(sp)
   2a114:	dc400115 	stw	r17,4(sp)
   2a118:	dc000015 	stw	r16,0(sp)
   2a11c:	dfc00415 	stw	ra,16(sp)
   2a120:	dc800215 	stw	r18,8(sp)
   2a124:	2027883a 	mov	r19,r4
   2a128:	2823883a 	mov	r17,r5
   2a12c:	3021883a 	mov	r16,r6
   2a130:	20000226 	beq	r4,zero,2a13c <__swbuf_r+0x30>
   2a134:	20800e17 	ldw	r2,56(r4)
   2a138:	10003e26 	beq	r2,zero,2a234 <__swbuf_r+0x128>
   2a13c:	80800617 	ldw	r2,24(r16)
   2a140:	80c0030b 	ldhu	r3,12(r16)
   2a144:	80800215 	stw	r2,8(r16)
   2a148:	1880020c 	andi	r2,r3,8
   2a14c:	10001f26 	beq	r2,zero,2a1cc <__swbuf_r+0xc0>
   2a150:	80800417 	ldw	r2,16(r16)
   2a154:	10001d26 	beq	r2,zero,2a1cc <__swbuf_r+0xc0>
   2a158:	1948000c 	andi	r5,r3,8192
   2a15c:	8c803fcc 	andi	r18,r17,255
   2a160:	28002326 	beq	r5,zero,2a1f0 <__swbuf_r+0xe4>
   2a164:	80c00017 	ldw	r3,0(r16)
   2a168:	81000517 	ldw	r4,20(r16)
   2a16c:	1885c83a 	sub	r2,r3,r2
   2a170:	1100290e 	bge	r2,r4,2a218 <__swbuf_r+0x10c>
   2a174:	10800044 	addi	r2,r2,1
   2a178:	81400217 	ldw	r5,8(r16)
   2a17c:	19000044 	addi	r4,r3,1
   2a180:	81000015 	stw	r4,0(r16)
   2a184:	297fffc4 	addi	r5,r5,-1
   2a188:	81400215 	stw	r5,8(r16)
   2a18c:	1c400005 	stb	r17,0(r3)
   2a190:	80c00517 	ldw	r3,20(r16)
   2a194:	18802926 	beq	r3,r2,2a23c <__swbuf_r+0x130>
   2a198:	8080030b 	ldhu	r2,12(r16)
   2a19c:	1080004c 	andi	r2,r2,1
   2a1a0:	10000226 	beq	r2,zero,2a1ac <__swbuf_r+0xa0>
   2a1a4:	90800298 	cmpnei	r2,r18,10
   2a1a8:	10002426 	beq	r2,zero,2a23c <__swbuf_r+0x130>
   2a1ac:	9005883a 	mov	r2,r18
   2a1b0:	dfc00417 	ldw	ra,16(sp)
   2a1b4:	dcc00317 	ldw	r19,12(sp)
   2a1b8:	dc800217 	ldw	r18,8(sp)
   2a1bc:	dc400117 	ldw	r17,4(sp)
   2a1c0:	dc000017 	ldw	r16,0(sp)
   2a1c4:	dec00504 	addi	sp,sp,20
   2a1c8:	f800283a 	ret
   2a1cc:	800b883a 	mov	r5,r16
   2a1d0:	9809883a 	mov	r4,r19
   2a1d4:	00230d40 	call	230d4 <__swsetup_r>
   2a1d8:	10001c1e 	bne	r2,zero,2a24c <__swbuf_r+0x140>
   2a1dc:	80c0030b 	ldhu	r3,12(r16)
   2a1e0:	80800417 	ldw	r2,16(r16)
   2a1e4:	8c803fcc 	andi	r18,r17,255
   2a1e8:	1948000c 	andi	r5,r3,8192
   2a1ec:	283fdd1e 	bne	r5,zero,2a164 <__swbuf_r+0x58>
   2a1f0:	81001917 	ldw	r4,100(r16)
   2a1f4:	18c80014 	ori	r3,r3,8192
   2a1f8:	0177ffc4 	movi	r5,-8193
   2a1fc:	2148703a 	and	r4,r4,r5
   2a200:	80c0030d 	sth	r3,12(r16)
   2a204:	80c00017 	ldw	r3,0(r16)
   2a208:	81001915 	stw	r4,100(r16)
   2a20c:	81000517 	ldw	r4,20(r16)
   2a210:	1885c83a 	sub	r2,r3,r2
   2a214:	113fd716 	blt	r2,r4,2a174 <__swbuf_r+0x68>
   2a218:	800b883a 	mov	r5,r16
   2a21c:	9809883a 	mov	r4,r19
   2a220:	0024e0c0 	call	24e0c <_fflush_r>
   2a224:	1000091e 	bne	r2,zero,2a24c <__swbuf_r+0x140>
   2a228:	80c00017 	ldw	r3,0(r16)
   2a22c:	00800044 	movi	r2,1
   2a230:	003fd106 	br	2a178 <__swbuf_r+0x6c>
   2a234:	00252240 	call	25224 <__sinit>
   2a238:	003fc006 	br	2a13c <__swbuf_r+0x30>
   2a23c:	800b883a 	mov	r5,r16
   2a240:	9809883a 	mov	r4,r19
   2a244:	0024e0c0 	call	24e0c <_fflush_r>
   2a248:	103fd826 	beq	r2,zero,2a1ac <__swbuf_r+0xa0>
   2a24c:	04bfffc4 	movi	r18,-1
   2a250:	003fd606 	br	2a1ac <__swbuf_r+0xa0>

0002a254 <__swbuf>:
   2a254:	00c000f4 	movhi	r3,3
   2a258:	2005883a 	mov	r2,r4
   2a25c:	190a4217 	ldw	r4,10504(r3)
   2a260:	280d883a 	mov	r6,r5
   2a264:	100b883a 	mov	r5,r2
   2a268:	002a10c1 	jmpi	2a10c <__swbuf_r>

0002a26c <_wcrtomb_r>:
   2a26c:	defffa04 	addi	sp,sp,-24
   2a270:	dc400415 	stw	r17,16(sp)
   2a274:	dc000315 	stw	r16,12(sp)
   2a278:	008000f4 	movhi	r2,3
   2a27c:	dfc00515 	stw	ra,20(sp)
   2a280:	10858617 	ldw	r2,5656(r2)
   2a284:	2023883a 	mov	r17,r4
   2a288:	3821883a 	mov	r16,r7
   2a28c:	28000826 	beq	r5,zero,2a2b0 <_wcrtomb_r+0x44>
   2a290:	103ee83a 	callr	r2
   2a294:	10ffffd8 	cmpnei	r3,r2,-1
   2a298:	18000a26 	beq	r3,zero,2a2c4 <_wcrtomb_r+0x58>
   2a29c:	dfc00517 	ldw	ra,20(sp)
   2a2a0:	dc400417 	ldw	r17,16(sp)
   2a2a4:	dc000317 	ldw	r16,12(sp)
   2a2a8:	dec00604 	addi	sp,sp,24
   2a2ac:	f800283a 	ret
   2a2b0:	000d883a 	mov	r6,zero
   2a2b4:	d9400084 	addi	r5,sp,2
   2a2b8:	103ee83a 	callr	r2
   2a2bc:	10ffffd8 	cmpnei	r3,r2,-1
   2a2c0:	183ff61e 	bne	r3,zero,2a29c <_wcrtomb_r+0x30>
   2a2c4:	00802284 	movi	r2,138
   2a2c8:	80000015 	stw	zero,0(r16)
   2a2cc:	88800015 	stw	r2,0(r17)
   2a2d0:	00bfffc4 	movi	r2,-1
   2a2d4:	003ff106 	br	2a29c <_wcrtomb_r+0x30>

0002a2d8 <wcrtomb>:
   2a2d8:	defffa04 	addi	sp,sp,-24
   2a2dc:	00c000f4 	movhi	r3,3
   2a2e0:	dc400415 	stw	r17,16(sp)
   2a2e4:	dc000315 	stw	r16,12(sp)
   2a2e8:	1c4a4217 	ldw	r17,10504(r3)
   2a2ec:	dfc00515 	stw	ra,20(sp)
   2a2f0:	00c000f4 	movhi	r3,3
   2a2f4:	18c58617 	ldw	r3,5656(r3)
   2a2f8:	3021883a 	mov	r16,r6
   2a2fc:	20000c26 	beq	r4,zero,2a330 <wcrtomb+0x58>
   2a300:	280d883a 	mov	r6,r5
   2a304:	800f883a 	mov	r7,r16
   2a308:	200b883a 	mov	r5,r4
   2a30c:	8809883a 	mov	r4,r17
   2a310:	183ee83a 	callr	r3
   2a314:	10ffffd8 	cmpnei	r3,r2,-1
   2a318:	18000c26 	beq	r3,zero,2a34c <wcrtomb+0x74>
   2a31c:	dfc00517 	ldw	ra,20(sp)
   2a320:	dc400417 	ldw	r17,16(sp)
   2a324:	dc000317 	ldw	r16,12(sp)
   2a328:	dec00604 	addi	sp,sp,24
   2a32c:	f800283a 	ret
   2a330:	300f883a 	mov	r7,r6
   2a334:	d9400084 	addi	r5,sp,2
   2a338:	000d883a 	mov	r6,zero
   2a33c:	8809883a 	mov	r4,r17
   2a340:	183ee83a 	callr	r3
   2a344:	10ffffd8 	cmpnei	r3,r2,-1
   2a348:	183ff41e 	bne	r3,zero,2a31c <wcrtomb+0x44>
   2a34c:	00802284 	movi	r2,138
   2a350:	80000015 	stw	zero,0(r16)
   2a354:	88800015 	stw	r2,0(r17)
   2a358:	00bfffc4 	movi	r2,-1
   2a35c:	003fef06 	br	2a31c <wcrtomb+0x44>

0002a360 <_wctomb_r>:
   2a360:	008000f4 	movhi	r2,3
   2a364:	10858617 	ldw	r2,5656(r2)
   2a368:	1000683a 	jmp	r2

0002a36c <__ascii_wctomb>:
   2a36c:	28000926 	beq	r5,zero,2a394 <__ascii_wctomb+0x28>
   2a370:	30804030 	cmpltui	r2,r6,256
   2a374:	10000326 	beq	r2,zero,2a384 <__ascii_wctomb+0x18>
   2a378:	29800005 	stb	r6,0(r5)
   2a37c:	00800044 	movi	r2,1
   2a380:	f800283a 	ret
   2a384:	00802284 	movi	r2,138
   2a388:	20800015 	stw	r2,0(r4)
   2a38c:	00bfffc4 	movi	r2,-1
   2a390:	f800283a 	ret
   2a394:	0005883a 	mov	r2,zero
   2a398:	f800283a 	ret

0002a39c <abort>:
   2a39c:	deffff04 	addi	sp,sp,-4
   2a3a0:	01000184 	movi	r4,6
   2a3a4:	dfc00015 	stw	ra,0(sp)
   2a3a8:	002a60c0 	call	2a60c <raise>
   2a3ac:	01000044 	movi	r4,1
   2a3b0:	002db240 	call	2db24 <_exit>

0002a3b4 <_init_signal_r>:
   2a3b4:	2080b717 	ldw	r2,732(r4)
   2a3b8:	10000226 	beq	r2,zero,2a3c4 <_init_signal_r+0x10>
   2a3bc:	0005883a 	mov	r2,zero
   2a3c0:	f800283a 	ret
   2a3c4:	defffe04 	addi	sp,sp,-8
   2a3c8:	01402004 	movi	r5,128
   2a3cc:	dc000015 	stw	r16,0(sp)
   2a3d0:	dfc00115 	stw	ra,4(sp)
   2a3d4:	2021883a 	mov	r16,r4
   2a3d8:	0025ec80 	call	25ec8 <_malloc_r>
   2a3dc:	8080b715 	stw	r2,732(r16)
   2a3e0:	1009883a 	mov	r4,r2
   2a3e4:	10000826 	beq	r2,zero,2a408 <_init_signal_r+0x54>
   2a3e8:	01802004 	movi	r6,128
   2a3ec:	000b883a 	mov	r5,zero
   2a3f0:	00269740 	call	26974 <memset>
   2a3f4:	0005883a 	mov	r2,zero
   2a3f8:	dfc00117 	ldw	ra,4(sp)
   2a3fc:	dc000017 	ldw	r16,0(sp)
   2a400:	dec00204 	addi	sp,sp,8
   2a404:	f800283a 	ret
   2a408:	00bfffc4 	movi	r2,-1
   2a40c:	003ffa06 	br	2a3f8 <_init_signal_r+0x44>

0002a410 <_signal_r>:
   2a410:	defffc04 	addi	sp,sp,-16
   2a414:	dc400115 	stw	r17,4(sp)
   2a418:	dfc00315 	stw	ra,12(sp)
   2a41c:	dc800215 	stw	r18,8(sp)
   2a420:	dc000015 	stw	r16,0(sp)
   2a424:	28800830 	cmpltui	r2,r5,32
   2a428:	2023883a 	mov	r17,r4
   2a42c:	10000e26 	beq	r2,zero,2a468 <_signal_r+0x58>
   2a430:	20c0b717 	ldw	r3,732(r4)
   2a434:	2821883a 	mov	r16,r5
   2a438:	3025883a 	mov	r18,r6
   2a43c:	18000e26 	beq	r3,zero,2a478 <_signal_r+0x68>
   2a440:	802090ba 	slli	r16,r16,2
   2a444:	1c07883a 	add	r3,r3,r16
   2a448:	18800017 	ldw	r2,0(r3)
   2a44c:	1c800015 	stw	r18,0(r3)
   2a450:	dfc00317 	ldw	ra,12(sp)
   2a454:	dc800217 	ldw	r18,8(sp)
   2a458:	dc400117 	ldw	r17,4(sp)
   2a45c:	dc000017 	ldw	r16,0(sp)
   2a460:	dec00404 	addi	sp,sp,16
   2a464:	f800283a 	ret
   2a468:	00800584 	movi	r2,22
   2a46c:	20800015 	stw	r2,0(r4)
   2a470:	00bfffc4 	movi	r2,-1
   2a474:	003ff606 	br	2a450 <_signal_r+0x40>
   2a478:	01402004 	movi	r5,128
   2a47c:	0025ec80 	call	25ec8 <_malloc_r>
   2a480:	8880b715 	stw	r2,732(r17)
   2a484:	103ffa26 	beq	r2,zero,2a470 <_signal_r+0x60>
   2a488:	01802004 	movi	r6,128
   2a48c:	000b883a 	mov	r5,zero
   2a490:	1009883a 	mov	r4,r2
   2a494:	00269740 	call	26974 <memset>
   2a498:	1007883a 	mov	r3,r2
   2a49c:	003fe806 	br	2a440 <_signal_r+0x30>

0002a4a0 <_raise_r>:
   2a4a0:	28800830 	cmpltui	r2,r5,32
   2a4a4:	10002626 	beq	r2,zero,2a540 <_raise_r+0xa0>
   2a4a8:	2080b717 	ldw	r2,732(r4)
   2a4ac:	defffd04 	addi	sp,sp,-12
   2a4b0:	dc000115 	stw	r16,4(sp)
   2a4b4:	dfc00215 	stw	ra,8(sp)
   2a4b8:	2821883a 	mov	r16,r5
   2a4bc:	10001026 	beq	r2,zero,2a500 <_raise_r+0x60>
   2a4c0:	280690ba 	slli	r3,r5,2
   2a4c4:	10c5883a 	add	r2,r2,r3
   2a4c8:	10c00017 	ldw	r3,0(r2)
   2a4cc:	18000c26 	beq	r3,zero,2a500 <_raise_r+0x60>
   2a4d0:	19400060 	cmpeqi	r5,r3,1
   2a4d4:	2800051e 	bne	r5,zero,2a4ec <_raise_r+0x4c>
   2a4d8:	197fffd8 	cmpnei	r5,r3,-1
   2a4dc:	28001126 	beq	r5,zero,2a524 <_raise_r+0x84>
   2a4e0:	10000015 	stw	zero,0(r2)
   2a4e4:	8009883a 	mov	r4,r16
   2a4e8:	183ee83a 	callr	r3
   2a4ec:	0005883a 	mov	r2,zero
   2a4f0:	dfc00217 	ldw	ra,8(sp)
   2a4f4:	dc000117 	ldw	r16,4(sp)
   2a4f8:	dec00304 	addi	sp,sp,12
   2a4fc:	f800283a 	ret
   2a500:	d9000015 	stw	r4,0(sp)
   2a504:	002a8d40 	call	2a8d4 <_getpid_r>
   2a508:	d9000017 	ldw	r4,0(sp)
   2a50c:	800d883a 	mov	r6,r16
   2a510:	100b883a 	mov	r5,r2
   2a514:	dfc00217 	ldw	ra,8(sp)
   2a518:	dc000117 	ldw	r16,4(sp)
   2a51c:	dec00304 	addi	sp,sp,12
   2a520:	002a8741 	jmpi	2a874 <_kill_r>
   2a524:	00800584 	movi	r2,22
   2a528:	20800015 	stw	r2,0(r4)
   2a52c:	00800044 	movi	r2,1
   2a530:	dfc00217 	ldw	ra,8(sp)
   2a534:	dc000117 	ldw	r16,4(sp)
   2a538:	dec00304 	addi	sp,sp,12
   2a53c:	f800283a 	ret
   2a540:	00800584 	movi	r2,22
   2a544:	20800015 	stw	r2,0(r4)
   2a548:	00bfffc4 	movi	r2,-1
   2a54c:	f800283a 	ret

0002a550 <__sigtramp_r>:
   2a550:	28800830 	cmpltui	r2,r5,32
   2a554:	10002b26 	beq	r2,zero,2a604 <__sigtramp_r+0xb4>
   2a558:	20c0b717 	ldw	r3,732(r4)
   2a55c:	defffd04 	addi	sp,sp,-12
   2a560:	dc400115 	stw	r17,4(sp)
   2a564:	dc000015 	stw	r16,0(sp)
   2a568:	dfc00215 	stw	ra,8(sp)
   2a56c:	2821883a 	mov	r16,r5
   2a570:	2023883a 	mov	r17,r4
   2a574:	18001726 	beq	r3,zero,2a5d4 <__sigtramp_r+0x84>
   2a578:	800490ba 	slli	r2,r16,2
   2a57c:	1887883a 	add	r3,r3,r2
   2a580:	18800017 	ldw	r2,0(r3)
   2a584:	10000d26 	beq	r2,zero,2a5bc <__sigtramp_r+0x6c>
   2a588:	113fffe0 	cmpeqi	r4,r2,-1
   2a58c:	20000f1e 	bne	r4,zero,2a5cc <__sigtramp_r+0x7c>
   2a590:	11000060 	cmpeqi	r4,r2,1
   2a594:	20000b1e 	bne	r4,zero,2a5c4 <__sigtramp_r+0x74>
   2a598:	18000015 	stw	zero,0(r3)
   2a59c:	8009883a 	mov	r4,r16
   2a5a0:	103ee83a 	callr	r2
   2a5a4:	0005883a 	mov	r2,zero
   2a5a8:	dfc00217 	ldw	ra,8(sp)
   2a5ac:	dc400117 	ldw	r17,4(sp)
   2a5b0:	dc000017 	ldw	r16,0(sp)
   2a5b4:	dec00304 	addi	sp,sp,12
   2a5b8:	f800283a 	ret
   2a5bc:	00800044 	movi	r2,1
   2a5c0:	003ff906 	br	2a5a8 <__sigtramp_r+0x58>
   2a5c4:	008000c4 	movi	r2,3
   2a5c8:	003ff706 	br	2a5a8 <__sigtramp_r+0x58>
   2a5cc:	00800084 	movi	r2,2
   2a5d0:	003ff506 	br	2a5a8 <__sigtramp_r+0x58>
   2a5d4:	01402004 	movi	r5,128
   2a5d8:	0025ec80 	call	25ec8 <_malloc_r>
   2a5dc:	8880b715 	stw	r2,732(r17)
   2a5e0:	10000626 	beq	r2,zero,2a5fc <__sigtramp_r+0xac>
   2a5e4:	01802004 	movi	r6,128
   2a5e8:	000b883a 	mov	r5,zero
   2a5ec:	1009883a 	mov	r4,r2
   2a5f0:	00269740 	call	26974 <memset>
   2a5f4:	1007883a 	mov	r3,r2
   2a5f8:	003fdf06 	br	2a578 <__sigtramp_r+0x28>
   2a5fc:	00bfffc4 	movi	r2,-1
   2a600:	003fe906 	br	2a5a8 <__sigtramp_r+0x58>
   2a604:	00bfffc4 	movi	r2,-1
   2a608:	f800283a 	ret

0002a60c <raise>:
   2a60c:	defffd04 	addi	sp,sp,-12
   2a610:	dc400115 	stw	r17,4(sp)
   2a614:	00c000f4 	movhi	r3,3
   2a618:	dfc00215 	stw	ra,8(sp)
   2a61c:	dc000015 	stw	r16,0(sp)
   2a620:	20800830 	cmpltui	r2,r4,32
   2a624:	1c4a4217 	ldw	r17,10504(r3)
   2a628:	10002126 	beq	r2,zero,2a6b0 <raise+0xa4>
   2a62c:	8880b717 	ldw	r2,732(r17)
   2a630:	2021883a 	mov	r16,r4
   2a634:	10001026 	beq	r2,zero,2a678 <raise+0x6c>
   2a638:	200690ba 	slli	r3,r4,2
   2a63c:	10c5883a 	add	r2,r2,r3
   2a640:	10c00017 	ldw	r3,0(r2)
   2a644:	18000c26 	beq	r3,zero,2a678 <raise+0x6c>
   2a648:	19400060 	cmpeqi	r5,r3,1
   2a64c:	2800041e 	bne	r5,zero,2a660 <raise+0x54>
   2a650:	197fffd8 	cmpnei	r5,r3,-1
   2a654:	28001226 	beq	r5,zero,2a6a0 <raise+0x94>
   2a658:	10000015 	stw	zero,0(r2)
   2a65c:	183ee83a 	callr	r3
   2a660:	0005883a 	mov	r2,zero
   2a664:	dfc00217 	ldw	ra,8(sp)
   2a668:	dc400117 	ldw	r17,4(sp)
   2a66c:	dc000017 	ldw	r16,0(sp)
   2a670:	dec00304 	addi	sp,sp,12
   2a674:	f800283a 	ret
   2a678:	8809883a 	mov	r4,r17
   2a67c:	002a8d40 	call	2a8d4 <_getpid_r>
   2a680:	800d883a 	mov	r6,r16
   2a684:	100b883a 	mov	r5,r2
   2a688:	8809883a 	mov	r4,r17
   2a68c:	dfc00217 	ldw	ra,8(sp)
   2a690:	dc400117 	ldw	r17,4(sp)
   2a694:	dc000017 	ldw	r16,0(sp)
   2a698:	dec00304 	addi	sp,sp,12
   2a69c:	002a8741 	jmpi	2a874 <_kill_r>
   2a6a0:	00800584 	movi	r2,22
   2a6a4:	88800015 	stw	r2,0(r17)
   2a6a8:	00800044 	movi	r2,1
   2a6ac:	003fed06 	br	2a664 <raise+0x58>
   2a6b0:	00800584 	movi	r2,22
   2a6b4:	88800015 	stw	r2,0(r17)
   2a6b8:	00bfffc4 	movi	r2,-1
   2a6bc:	003fe906 	br	2a664 <raise+0x58>

0002a6c0 <signal>:
   2a6c0:	defffc04 	addi	sp,sp,-16
   2a6c4:	dc800215 	stw	r18,8(sp)
   2a6c8:	00c000f4 	movhi	r3,3
   2a6cc:	dfc00315 	stw	ra,12(sp)
   2a6d0:	dc400115 	stw	r17,4(sp)
   2a6d4:	dc000015 	stw	r16,0(sp)
   2a6d8:	20800830 	cmpltui	r2,r4,32
   2a6dc:	1c8a4217 	ldw	r18,10504(r3)
   2a6e0:	10000e26 	beq	r2,zero,2a71c <signal+0x5c>
   2a6e4:	2021883a 	mov	r16,r4
   2a6e8:	9100b717 	ldw	r4,732(r18)
   2a6ec:	2823883a 	mov	r17,r5
   2a6f0:	20000e26 	beq	r4,zero,2a72c <signal+0x6c>
   2a6f4:	802090ba 	slli	r16,r16,2
   2a6f8:	2409883a 	add	r4,r4,r16
   2a6fc:	20800017 	ldw	r2,0(r4)
   2a700:	24400015 	stw	r17,0(r4)
   2a704:	dfc00317 	ldw	ra,12(sp)
   2a708:	dc800217 	ldw	r18,8(sp)
   2a70c:	dc400117 	ldw	r17,4(sp)
   2a710:	dc000017 	ldw	r16,0(sp)
   2a714:	dec00404 	addi	sp,sp,16
   2a718:	f800283a 	ret
   2a71c:	00800584 	movi	r2,22
   2a720:	90800015 	stw	r2,0(r18)
   2a724:	00bfffc4 	movi	r2,-1
   2a728:	003ff606 	br	2a704 <signal+0x44>
   2a72c:	9009883a 	mov	r4,r18
   2a730:	01402004 	movi	r5,128
   2a734:	0025ec80 	call	25ec8 <_malloc_r>
   2a738:	9080b715 	stw	r2,732(r18)
   2a73c:	1009883a 	mov	r4,r2
   2a740:	103ff826 	beq	r2,zero,2a724 <signal+0x64>
   2a744:	01802004 	movi	r6,128
   2a748:	000b883a 	mov	r5,zero
   2a74c:	00269740 	call	26974 <memset>
   2a750:	1009883a 	mov	r4,r2
   2a754:	003fe706 	br	2a6f4 <signal+0x34>

0002a758 <_init_signal>:
   2a758:	defffe04 	addi	sp,sp,-8
   2a75c:	008000f4 	movhi	r2,3
   2a760:	dc000015 	stw	r16,0(sp)
   2a764:	140a4217 	ldw	r16,10504(r2)
   2a768:	dfc00115 	stw	ra,4(sp)
   2a76c:	8080b717 	ldw	r2,732(r16)
   2a770:	10000526 	beq	r2,zero,2a788 <_init_signal+0x30>
   2a774:	0005883a 	mov	r2,zero
   2a778:	dfc00117 	ldw	ra,4(sp)
   2a77c:	dc000017 	ldw	r16,0(sp)
   2a780:	dec00204 	addi	sp,sp,8
   2a784:	f800283a 	ret
   2a788:	8009883a 	mov	r4,r16
   2a78c:	01402004 	movi	r5,128
   2a790:	0025ec80 	call	25ec8 <_malloc_r>
   2a794:	8080b715 	stw	r2,732(r16)
   2a798:	1009883a 	mov	r4,r2
   2a79c:	10000426 	beq	r2,zero,2a7b0 <_init_signal+0x58>
   2a7a0:	01802004 	movi	r6,128
   2a7a4:	000b883a 	mov	r5,zero
   2a7a8:	00269740 	call	26974 <memset>
   2a7ac:	003ff106 	br	2a774 <_init_signal+0x1c>
   2a7b0:	00bfffc4 	movi	r2,-1
   2a7b4:	003ff006 	br	2a778 <_init_signal+0x20>

0002a7b8 <__sigtramp>:
   2a7b8:	defffd04 	addi	sp,sp,-12
   2a7bc:	dc400115 	stw	r17,4(sp)
   2a7c0:	00c000f4 	movhi	r3,3
   2a7c4:	dfc00215 	stw	ra,8(sp)
   2a7c8:	dc000015 	stw	r16,0(sp)
   2a7cc:	20800830 	cmpltui	r2,r4,32
   2a7d0:	1c4a4217 	ldw	r17,10504(r3)
   2a7d4:	10002526 	beq	r2,zero,2a86c <__sigtramp+0xb4>
   2a7d8:	88c0b717 	ldw	r3,732(r17)
   2a7dc:	2021883a 	mov	r16,r4
   2a7e0:	18001726 	beq	r3,zero,2a840 <__sigtramp+0x88>
   2a7e4:	800490ba 	slli	r2,r16,2
   2a7e8:	1887883a 	add	r3,r3,r2
   2a7ec:	18800017 	ldw	r2,0(r3)
   2a7f0:	10000d26 	beq	r2,zero,2a828 <__sigtramp+0x70>
   2a7f4:	113fffe0 	cmpeqi	r4,r2,-1
   2a7f8:	20000f1e 	bne	r4,zero,2a838 <__sigtramp+0x80>
   2a7fc:	11000060 	cmpeqi	r4,r2,1
   2a800:	20000b1e 	bne	r4,zero,2a830 <__sigtramp+0x78>
   2a804:	18000015 	stw	zero,0(r3)
   2a808:	8009883a 	mov	r4,r16
   2a80c:	103ee83a 	callr	r2
   2a810:	0005883a 	mov	r2,zero
   2a814:	dfc00217 	ldw	ra,8(sp)
   2a818:	dc400117 	ldw	r17,4(sp)
   2a81c:	dc000017 	ldw	r16,0(sp)
   2a820:	dec00304 	addi	sp,sp,12
   2a824:	f800283a 	ret
   2a828:	00800044 	movi	r2,1
   2a82c:	003ff906 	br	2a814 <__sigtramp+0x5c>
   2a830:	008000c4 	movi	r2,3
   2a834:	003ff706 	br	2a814 <__sigtramp+0x5c>
   2a838:	00800084 	movi	r2,2
   2a83c:	003ff506 	br	2a814 <__sigtramp+0x5c>
   2a840:	01402004 	movi	r5,128
   2a844:	8809883a 	mov	r4,r17
   2a848:	0025ec80 	call	25ec8 <_malloc_r>
   2a84c:	8880b715 	stw	r2,732(r17)
   2a850:	10000626 	beq	r2,zero,2a86c <__sigtramp+0xb4>
   2a854:	01802004 	movi	r6,128
   2a858:	000b883a 	mov	r5,zero
   2a85c:	1009883a 	mov	r4,r2
   2a860:	00269740 	call	26974 <memset>
   2a864:	1007883a 	mov	r3,r2
   2a868:	003fde06 	br	2a7e4 <__sigtramp+0x2c>
   2a86c:	00bfffc4 	movi	r2,-1
   2a870:	003fe806 	br	2a814 <__sigtramp+0x5c>

0002a874 <_kill_r>:
   2a874:	2807883a 	mov	r3,r5
   2a878:	defffe04 	addi	sp,sp,-8
   2a87c:	dc000015 	stw	r16,0(sp)
   2a880:	008000f4 	movhi	r2,3
   2a884:	300b883a 	mov	r5,r6
   2a888:	2021883a 	mov	r16,r4
   2a88c:	1809883a 	mov	r4,r3
   2a890:	dfc00115 	stw	ra,4(sp)
   2a894:	10116215 	stw	zero,17800(r2)
   2a898:	002dd880 	call	2dd88 <kill>
   2a89c:	10ffffd8 	cmpnei	r3,r2,-1
   2a8a0:	18000426 	beq	r3,zero,2a8b4 <_kill_r+0x40>
   2a8a4:	dfc00117 	ldw	ra,4(sp)
   2a8a8:	dc000017 	ldw	r16,0(sp)
   2a8ac:	dec00204 	addi	sp,sp,8
   2a8b0:	f800283a 	ret
   2a8b4:	00c000f4 	movhi	r3,3
   2a8b8:	18d16217 	ldw	r3,17800(r3)
   2a8bc:	183ff926 	beq	r3,zero,2a8a4 <_kill_r+0x30>
   2a8c0:	80c00015 	stw	r3,0(r16)
   2a8c4:	dfc00117 	ldw	ra,4(sp)
   2a8c8:	dc000017 	ldw	r16,0(sp)
   2a8cc:	dec00204 	addi	sp,sp,8
   2a8d0:	f800283a 	ret

0002a8d4 <_getpid_r>:
   2a8d4:	002dc4c1 	jmpi	2dc4c <getpid>

0002a8d8 <__udivdi3>:
   2a8d8:	defff504 	addi	sp,sp,-44
   2a8dc:	dc800315 	stw	r18,12(sp)
   2a8e0:	dc000115 	stw	r16,4(sp)
   2a8e4:	dfc00a15 	stw	ra,40(sp)
   2a8e8:	df000915 	stw	fp,36(sp)
   2a8ec:	ddc00815 	stw	r23,32(sp)
   2a8f0:	dd800715 	stw	r22,28(sp)
   2a8f4:	dd400615 	stw	r21,24(sp)
   2a8f8:	dd000515 	stw	r20,20(sp)
   2a8fc:	dcc00415 	stw	r19,16(sp)
   2a900:	dc400215 	stw	r17,8(sp)
   2a904:	2025883a 	mov	r18,r4
   2a908:	2821883a 	mov	r16,r5
   2a90c:	3800401e 	bne	r7,zero,2aa10 <__udivdi3+0x138>
   2a910:	3023883a 	mov	r17,r6
   2a914:	2027883a 	mov	r19,r4
   2a918:	29805d2e 	bgeu	r5,r6,2aa90 <__udivdi3+0x1b8>
   2a91c:	00bfffd4 	movui	r2,65535
   2a920:	282d883a 	mov	r22,r5
   2a924:	1180982e 	bgeu	r2,r6,2ab88 <__udivdi3+0x2b0>
   2a928:	00804034 	movhi	r2,256
   2a92c:	30812536 	bltu	r6,r2,2adc4 <__udivdi3+0x4ec>
   2a930:	00c00604 	movi	r3,24
   2a934:	30cad83a 	srl	r5,r6,r3
   2a938:	008000f4 	movhi	r2,3
   2a93c:	01000804 	movi	r4,32
   2a940:	2885883a 	add	r2,r5,r2
   2a944:	1082ec03 	ldbu	r2,2992(r2)
   2a948:	10c5883a 	add	r2,r2,r3
   2a94c:	2087c83a 	sub	r3,r4,r2
   2a950:	20800526 	beq	r4,r2,2a968 <__udivdi3+0x90>
   2a954:	80ec983a 	sll	r22,r16,r3
   2a958:	9084d83a 	srl	r2,r18,r2
   2a95c:	30e2983a 	sll	r17,r6,r3
   2a960:	90e6983a 	sll	r19,r18,r3
   2a964:	15acb03a 	or	r22,r2,r22
   2a968:	882ad43a 	srli	r21,r17,16
   2a96c:	b009883a 	mov	r4,r22
   2a970:	8d3fffcc 	andi	r20,r17,65535
   2a974:	a80b883a 	mov	r5,r21
   2a978:	0020a100 	call	20a10 <__umodsi3>
   2a97c:	b009883a 	mov	r4,r22
   2a980:	a80b883a 	mov	r5,r21
   2a984:	1025883a 	mov	r18,r2
   2a988:	00209ac0 	call	209ac <__udivsi3>
   2a98c:	9008943a 	slli	r4,r18,16
   2a990:	9806d43a 	srli	r3,r19,16
   2a994:	1021883a 	mov	r16,r2
   2a998:	a085383a 	mul	r2,r20,r2
   2a99c:	20c8b03a 	or	r4,r4,r3
   2a9a0:	2080052e 	bgeu	r4,r2,2a9b8 <__udivdi3+0xe0>
   2a9a4:	2449883a 	add	r4,r4,r17
   2a9a8:	80ffffc4 	addi	r3,r16,-1
   2a9ac:	24400136 	bltu	r4,r17,2a9b4 <__udivdi3+0xdc>
   2a9b0:	20811a36 	bltu	r4,r2,2ae1c <__udivdi3+0x544>
   2a9b4:	1821883a 	mov	r16,r3
   2a9b8:	20a5c83a 	sub	r18,r4,r2
   2a9bc:	9009883a 	mov	r4,r18
   2a9c0:	a80b883a 	mov	r5,r21
   2a9c4:	0020a100 	call	20a10 <__umodsi3>
   2a9c8:	9009883a 	mov	r4,r18
   2a9cc:	a80b883a 	mov	r5,r21
   2a9d0:	1025883a 	mov	r18,r2
   2a9d4:	00209ac0 	call	209ac <__udivsi3>
   2a9d8:	9006943a 	slli	r3,r18,16
   2a9dc:	a0a9383a 	mul	r20,r20,r2
   2a9e0:	9cffffcc 	andi	r19,r19,65535
   2a9e4:	1cc6b03a 	or	r3,r3,r19
   2a9e8:	1d00052e 	bgeu	r3,r20,2aa00 <__udivdi3+0x128>
   2a9ec:	88c7883a 	add	r3,r17,r3
   2a9f0:	113fffc4 	addi	r4,r2,-1
   2a9f4:	1c400136 	bltu	r3,r17,2a9fc <__udivdi3+0x124>
   2a9f8:	1d010136 	bltu	r3,r20,2ae00 <__udivdi3+0x528>
   2a9fc:	2005883a 	mov	r2,r4
   2aa00:	800c943a 	slli	r6,r16,16
   2aa04:	0007883a 	mov	r3,zero
   2aa08:	3084b03a 	or	r2,r6,r2
   2aa0c:	00000306 	br	2aa1c <__udivdi3+0x144>
   2aa10:	29c00e2e 	bgeu	r5,r7,2aa4c <__udivdi3+0x174>
   2aa14:	0007883a 	mov	r3,zero
   2aa18:	0005883a 	mov	r2,zero
   2aa1c:	dfc00a17 	ldw	ra,40(sp)
   2aa20:	df000917 	ldw	fp,36(sp)
   2aa24:	ddc00817 	ldw	r23,32(sp)
   2aa28:	dd800717 	ldw	r22,28(sp)
   2aa2c:	dd400617 	ldw	r21,24(sp)
   2aa30:	dd000517 	ldw	r20,20(sp)
   2aa34:	dcc00417 	ldw	r19,16(sp)
   2aa38:	dc800317 	ldw	r18,12(sp)
   2aa3c:	dc400217 	ldw	r17,8(sp)
   2aa40:	dc000117 	ldw	r16,4(sp)
   2aa44:	dec00b04 	addi	sp,sp,44
   2aa48:	f800283a 	ret
   2aa4c:	00bfffd4 	movui	r2,65535
   2aa50:	11c0562e 	bgeu	r2,r7,2abac <__udivdi3+0x2d4>
   2aa54:	00804034 	movhi	r2,256
   2aa58:	3880d836 	bltu	r7,r2,2adbc <__udivdi3+0x4e4>
   2aa5c:	00c00604 	movi	r3,24
   2aa60:	38cad83a 	srl	r5,r7,r3
   2aa64:	008000f4 	movhi	r2,3
   2aa68:	01000804 	movi	r4,32
   2aa6c:	2885883a 	add	r2,r5,r2
   2aa70:	1082ec03 	ldbu	r2,2992(r2)
   2aa74:	10c5883a 	add	r2,r2,r3
   2aa78:	20adc83a 	sub	r22,r4,r2
   2aa7c:	2080801e 	bne	r4,r2,2ac80 <__udivdi3+0x3a8>
   2aa80:	3c00d236 	bltu	r7,r16,2adcc <__udivdi3+0x4f4>
   2aa84:	9185403a 	cmpgeu	r2,r18,r6
   2aa88:	0007883a 	mov	r3,zero
   2aa8c:	003fe306 	br	2aa1c <__udivdi3+0x144>
   2aa90:	3000401e 	bne	r6,zero,2ab94 <__udivdi3+0x2bc>
   2aa94:	000b883a 	mov	r5,zero
   2aa98:	01000044 	movi	r4,1
   2aa9c:	00209ac0 	call	209ac <__udivsi3>
   2aaa0:	1023883a 	mov	r17,r2
   2aaa4:	88804028 	cmpgeui	r2,r17,256
   2aaa8:	100490fa 	slli	r2,r2,3
   2aaac:	888ad83a 	srl	r5,r17,r2
   2aab0:	00c000f4 	movhi	r3,3
   2aab4:	01000804 	movi	r4,32
   2aab8:	28c7883a 	add	r3,r5,r3
   2aabc:	18c2ec03 	ldbu	r3,2992(r3)
   2aac0:	1887883a 	add	r3,r3,r2
   2aac4:	20cdc83a 	sub	r6,r4,r3
   2aac8:	20c03b1e 	bne	r4,r3,2abb8 <__udivdi3+0x2e0>
   2aacc:	8828d43a 	srli	r20,r17,16
   2aad0:	8461c83a 	sub	r16,r16,r17
   2aad4:	8d7fffcc 	andi	r21,r17,65535
   2aad8:	00c00044 	movi	r3,1
   2aadc:	8009883a 	mov	r4,r16
   2aae0:	a00b883a 	mov	r5,r20
   2aae4:	d8c00015 	stw	r3,0(sp)
   2aae8:	0020a100 	call	20a10 <__umodsi3>
   2aaec:	8009883a 	mov	r4,r16
   2aaf0:	a00b883a 	mov	r5,r20
   2aaf4:	1025883a 	mov	r18,r2
   2aaf8:	00209ac0 	call	209ac <__udivsi3>
   2aafc:	9008943a 	slli	r4,r18,16
   2ab00:	980ad43a 	srli	r5,r19,16
   2ab04:	1021883a 	mov	r16,r2
   2ab08:	1545383a 	mul	r2,r2,r21
   2ab0c:	2148b03a 	or	r4,r4,r5
   2ab10:	d8c00017 	ldw	r3,0(sp)
   2ab14:	2080052e 	bgeu	r4,r2,2ab2c <__udivdi3+0x254>
   2ab18:	2449883a 	add	r4,r4,r17
   2ab1c:	817fffc4 	addi	r5,r16,-1
   2ab20:	24400136 	bltu	r4,r17,2ab28 <__udivdi3+0x250>
   2ab24:	2080b836 	bltu	r4,r2,2ae08 <__udivdi3+0x530>
   2ab28:	2821883a 	mov	r16,r5
   2ab2c:	20a5c83a 	sub	r18,r4,r2
   2ab30:	9009883a 	mov	r4,r18
   2ab34:	a00b883a 	mov	r5,r20
   2ab38:	d8c00015 	stw	r3,0(sp)
   2ab3c:	0020a100 	call	20a10 <__umodsi3>
   2ab40:	9009883a 	mov	r4,r18
   2ab44:	a00b883a 	mov	r5,r20
   2ab48:	1025883a 	mov	r18,r2
   2ab4c:	00209ac0 	call	209ac <__udivsi3>
   2ab50:	9008943a 	slli	r4,r18,16
   2ab54:	156b383a 	mul	r21,r2,r21
   2ab58:	9cffffcc 	andi	r19,r19,65535
   2ab5c:	24c8b03a 	or	r4,r4,r19
   2ab60:	d8c00017 	ldw	r3,0(sp)
   2ab64:	2540052e 	bgeu	r4,r21,2ab7c <__udivdi3+0x2a4>
   2ab68:	8909883a 	add	r4,r17,r4
   2ab6c:	117fffc4 	addi	r5,r2,-1
   2ab70:	24400136 	bltu	r4,r17,2ab78 <__udivdi3+0x2a0>
   2ab74:	2540a036 	bltu	r4,r21,2adf8 <__udivdi3+0x520>
   2ab78:	2805883a 	mov	r2,r5
   2ab7c:	800c943a 	slli	r6,r16,16
   2ab80:	3084b03a 	or	r2,r6,r2
   2ab84:	003fa506 	br	2aa1c <__udivdi3+0x144>
   2ab88:	30c04028 	cmpgeui	r3,r6,256
   2ab8c:	180690fa 	slli	r3,r3,3
   2ab90:	003f6806 	br	2a934 <__udivdi3+0x5c>
   2ab94:	00bfffd4 	movui	r2,65535
   2ab98:	11bfc22e 	bgeu	r2,r6,2aaa4 <__udivdi3+0x1cc>
   2ab9c:	00804034 	movhi	r2,256
   2aba0:	30809c2e 	bgeu	r6,r2,2ae14 <__udivdi3+0x53c>
   2aba4:	00800404 	movi	r2,16
   2aba8:	003fc006 	br	2aaac <__udivdi3+0x1d4>
   2abac:	38c04028 	cmpgeui	r3,r7,256
   2abb0:	180690fa 	slli	r3,r3,3
   2abb4:	003faa06 	br	2aa60 <__udivdi3+0x188>
   2abb8:	89a2983a 	sll	r17,r17,r6
   2abbc:	80ead83a 	srl	r21,r16,r3
   2abc0:	81a0983a 	sll	r16,r16,r6
   2abc4:	8828d43a 	srli	r20,r17,16
   2abc8:	90c6d83a 	srl	r3,r18,r3
   2abcc:	a809883a 	mov	r4,r21
   2abd0:	a00b883a 	mov	r5,r20
   2abd4:	1c2cb03a 	or	r22,r3,r16
   2abd8:	91a6983a 	sll	r19,r18,r6
   2abdc:	0020a100 	call	20a10 <__umodsi3>
   2abe0:	a809883a 	mov	r4,r21
   2abe4:	a00b883a 	mov	r5,r20
   2abe8:	1021883a 	mov	r16,r2
   2abec:	00209ac0 	call	209ac <__udivsi3>
   2abf0:	8008943a 	slli	r4,r16,16
   2abf4:	b00ad43a 	srli	r5,r22,16
   2abf8:	8d7fffcc 	andi	r21,r17,65535
   2abfc:	1025883a 	mov	r18,r2
   2ac00:	a885383a 	mul	r2,r21,r2
   2ac04:	2148b03a 	or	r4,r4,r5
   2ac08:	2080062e 	bgeu	r4,r2,2ac24 <__udivdi3+0x34c>
   2ac0c:	2449883a 	add	r4,r4,r17
   2ac10:	90ffffc4 	addi	r3,r18,-1
   2ac14:	24407636 	bltu	r4,r17,2adf0 <__udivdi3+0x518>
   2ac18:	2080752e 	bgeu	r4,r2,2adf0 <__udivdi3+0x518>
   2ac1c:	94bfff84 	addi	r18,r18,-2
   2ac20:	2449883a 	add	r4,r4,r17
   2ac24:	20a1c83a 	sub	r16,r4,r2
   2ac28:	8009883a 	mov	r4,r16
   2ac2c:	a00b883a 	mov	r5,r20
   2ac30:	0020a100 	call	20a10 <__umodsi3>
   2ac34:	8009883a 	mov	r4,r16
   2ac38:	a00b883a 	mov	r5,r20
   2ac3c:	1021883a 	mov	r16,r2
   2ac40:	8020943a 	slli	r16,r16,16
   2ac44:	00209ac0 	call	209ac <__udivsi3>
   2ac48:	a889383a 	mul	r4,r21,r2
   2ac4c:	b5bfffcc 	andi	r22,r22,65535
   2ac50:	85a0b03a 	or	r16,r16,r22
   2ac54:	8100062e 	bgeu	r16,r4,2ac70 <__udivdi3+0x398>
   2ac58:	8461883a 	add	r16,r16,r17
   2ac5c:	10ffffc4 	addi	r3,r2,-1
   2ac60:	84405f36 	bltu	r16,r17,2ade0 <__udivdi3+0x508>
   2ac64:	81005e2e 	bgeu	r16,r4,2ade0 <__udivdi3+0x508>
   2ac68:	10bfff84 	addi	r2,r2,-2
   2ac6c:	8461883a 	add	r16,r16,r17
   2ac70:	9006943a 	slli	r3,r18,16
   2ac74:	8121c83a 	sub	r16,r16,r4
   2ac78:	1886b03a 	or	r3,r3,r2
   2ac7c:	003f9706 	br	2aadc <__udivdi3+0x204>
   2ac80:	30aed83a 	srl	r23,r6,r2
   2ac84:	3d8e983a 	sll	r7,r7,r22
   2ac88:	80a8d83a 	srl	r20,r16,r2
   2ac8c:	90a2d83a 	srl	r17,r18,r2
   2ac90:	b9eeb03a 	or	r23,r23,r7
   2ac94:	b826d43a 	srli	r19,r23,16
   2ac98:	8584983a 	sll	r2,r16,r22
   2ac9c:	a009883a 	mov	r4,r20
   2aca0:	980b883a 	mov	r5,r19
   2aca4:	35aa983a 	sll	r21,r6,r22
   2aca8:	88a2b03a 	or	r17,r17,r2
   2acac:	0020a100 	call	20a10 <__umodsi3>
   2acb0:	a009883a 	mov	r4,r20
   2acb4:	980b883a 	mov	r5,r19
   2acb8:	1029883a 	mov	r20,r2
   2acbc:	00209ac0 	call	209ac <__udivsi3>
   2acc0:	a008943a 	slli	r4,r20,16
   2acc4:	8806d43a 	srli	r3,r17,16
   2acc8:	bf3fffcc 	andi	fp,r23,65535
   2accc:	1021883a 	mov	r16,r2
   2acd0:	e085383a 	mul	r2,fp,r2
   2acd4:	20c8b03a 	or	r4,r4,r3
   2acd8:	2080062e 	bgeu	r4,r2,2acf4 <__udivdi3+0x41c>
   2acdc:	25c9883a 	add	r4,r4,r23
   2ace0:	80ffffc4 	addi	r3,r16,-1
   2ace4:	25c04036 	bltu	r4,r23,2ade8 <__udivdi3+0x510>
   2ace8:	20803f2e 	bgeu	r4,r2,2ade8 <__udivdi3+0x510>
   2acec:	843fff84 	addi	r16,r16,-2
   2acf0:	25c9883a 	add	r4,r4,r23
   2acf4:	20a9c83a 	sub	r20,r4,r2
   2acf8:	980b883a 	mov	r5,r19
   2acfc:	a009883a 	mov	r4,r20
   2ad00:	0020a100 	call	20a10 <__umodsi3>
   2ad04:	980b883a 	mov	r5,r19
   2ad08:	a009883a 	mov	r4,r20
   2ad0c:	1027883a 	mov	r19,r2
   2ad10:	00209ac0 	call	209ac <__udivsi3>
   2ad14:	9806943a 	slli	r3,r19,16
   2ad18:	e0b9383a 	mul	fp,fp,r2
   2ad1c:	8c7fffcc 	andi	r17,r17,65535
   2ad20:	1c46b03a 	or	r3,r3,r17
   2ad24:	1009883a 	mov	r4,r2
   2ad28:	1f00062e 	bgeu	r3,fp,2ad44 <__udivdi3+0x46c>
   2ad2c:	1dc7883a 	add	r3,r3,r23
   2ad30:	10bfffc4 	addi	r2,r2,-1
   2ad34:	1dc02836 	bltu	r3,r23,2add8 <__udivdi3+0x500>
   2ad38:	1f00272e 	bgeu	r3,fp,2add8 <__udivdi3+0x500>
   2ad3c:	213fff84 	addi	r4,r4,-2
   2ad40:	1dc7883a 	add	r3,r3,r23
   2ad44:	8004943a 	slli	r2,r16,16
   2ad48:	a80ed43a 	srli	r7,r21,16
   2ad4c:	217fffcc 	andi	r5,r4,65535
   2ad50:	1104b03a 	or	r2,r2,r4
   2ad54:	1008d43a 	srli	r4,r2,16
   2ad58:	ad7fffcc 	andi	r21,r21,65535
   2ad5c:	2d51383a 	mul	r8,r5,r21
   2ad60:	256b383a 	mul	r21,r4,r21
   2ad64:	29cb383a 	mul	r5,r5,r7
   2ad68:	400cd43a 	srli	r6,r8,16
   2ad6c:	21c9383a 	mul	r4,r4,r7
   2ad70:	2d4b883a 	add	r5,r5,r21
   2ad74:	314b883a 	add	r5,r6,r5
   2ad78:	1f07c83a 	sub	r3,r3,fp
   2ad7c:	2d40022e 	bgeu	r5,r21,2ad88 <__udivdi3+0x4b0>
   2ad80:	01800074 	movhi	r6,1
   2ad84:	2189883a 	add	r4,r4,r6
   2ad88:	280cd43a 	srli	r6,r5,16
   2ad8c:	3109883a 	add	r4,r6,r4
   2ad90:	19000836 	bltu	r3,r4,2adb4 <__udivdi3+0x4dc>
   2ad94:	19000226 	beq	r3,r4,2ada0 <__udivdi3+0x4c8>
   2ad98:	0007883a 	mov	r3,zero
   2ad9c:	003f1f06 	br	2aa1c <__udivdi3+0x144>
   2ada0:	280a943a 	slli	r5,r5,16
   2ada4:	9588983a 	sll	r4,r18,r22
   2ada8:	423fffcc 	andi	r8,r8,65535
   2adac:	2a0b883a 	add	r5,r5,r8
   2adb0:	217ff92e 	bgeu	r4,r5,2ad98 <__udivdi3+0x4c0>
   2adb4:	10bfffc4 	addi	r2,r2,-1
   2adb8:	003ff706 	br	2ad98 <__udivdi3+0x4c0>
   2adbc:	00c00404 	movi	r3,16
   2adc0:	003f2706 	br	2aa60 <__udivdi3+0x188>
   2adc4:	00c00404 	movi	r3,16
   2adc8:	003eda06 	br	2a934 <__udivdi3+0x5c>
   2adcc:	0007883a 	mov	r3,zero
   2add0:	00800044 	movi	r2,1
   2add4:	003f1106 	br	2aa1c <__udivdi3+0x144>
   2add8:	1009883a 	mov	r4,r2
   2addc:	003fd906 	br	2ad44 <__udivdi3+0x46c>
   2ade0:	1805883a 	mov	r2,r3
   2ade4:	003fa206 	br	2ac70 <__udivdi3+0x398>
   2ade8:	1821883a 	mov	r16,r3
   2adec:	003fc106 	br	2acf4 <__udivdi3+0x41c>
   2adf0:	1825883a 	mov	r18,r3
   2adf4:	003f8b06 	br	2ac24 <__udivdi3+0x34c>
   2adf8:	10bfff84 	addi	r2,r2,-2
   2adfc:	003f5f06 	br	2ab7c <__udivdi3+0x2a4>
   2ae00:	10bfff84 	addi	r2,r2,-2
   2ae04:	003efe06 	br	2aa00 <__udivdi3+0x128>
   2ae08:	843fff84 	addi	r16,r16,-2
   2ae0c:	2449883a 	add	r4,r4,r17
   2ae10:	003f4606 	br	2ab2c <__udivdi3+0x254>
   2ae14:	00800604 	movi	r2,24
   2ae18:	003f2406 	br	2aaac <__udivdi3+0x1d4>
   2ae1c:	843fff84 	addi	r16,r16,-2
   2ae20:	2449883a 	add	r4,r4,r17
   2ae24:	003ee406 	br	2a9b8 <__udivdi3+0xe0>

0002ae28 <__umoddi3>:
   2ae28:	defff504 	addi	sp,sp,-44
   2ae2c:	dcc00415 	stw	r19,16(sp)
   2ae30:	dc000115 	stw	r16,4(sp)
   2ae34:	dfc00a15 	stw	ra,40(sp)
   2ae38:	df000915 	stw	fp,36(sp)
   2ae3c:	ddc00815 	stw	r23,32(sp)
   2ae40:	dd800715 	stw	r22,28(sp)
   2ae44:	dd400615 	stw	r21,24(sp)
   2ae48:	dd000515 	stw	r20,20(sp)
   2ae4c:	dc800315 	stw	r18,12(sp)
   2ae50:	dc400215 	stw	r17,8(sp)
   2ae54:	2827883a 	mov	r19,r5
   2ae58:	2021883a 	mov	r16,r4
   2ae5c:	38003b1e 	bne	r7,zero,2af4c <__umoddi3+0x124>
   2ae60:	3029883a 	mov	r20,r6
   2ae64:	2025883a 	mov	r18,r4
   2ae68:	29805d2e 	bgeu	r5,r6,2afe0 <__umoddi3+0x1b8>
   2ae6c:	00bfffd4 	movui	r2,65535
   2ae70:	282f883a 	mov	r23,r5
   2ae74:	11808e2e 	bgeu	r2,r6,2b0b0 <__umoddi3+0x288>
   2ae78:	00804034 	movhi	r2,256
   2ae7c:	30811e36 	bltu	r6,r2,2b2f8 <__umoddi3+0x4d0>
   2ae80:	00c00604 	movi	r3,24
   2ae84:	30cad83a 	srl	r5,r6,r3
   2ae88:	008000f4 	movhi	r2,3
   2ae8c:	01000804 	movi	r4,32
   2ae90:	2885883a 	add	r2,r5,r2
   2ae94:	1082ec03 	ldbu	r2,2992(r2)
   2ae98:	10c5883a 	add	r2,r2,r3
   2ae9c:	20a3c83a 	sub	r17,r4,r2
   2aea0:	20800526 	beq	r4,r2,2aeb8 <__umoddi3+0x90>
   2aea4:	9c6e983a 	sll	r23,r19,r17
   2aea8:	8084d83a 	srl	r2,r16,r2
   2aeac:	3468983a 	sll	r20,r6,r17
   2aeb0:	8464983a 	sll	r18,r16,r17
   2aeb4:	15eeb03a 	or	r23,r2,r23
   2aeb8:	a02cd43a 	srli	r22,r20,16
   2aebc:	b809883a 	mov	r4,r23
   2aec0:	a57fffcc 	andi	r21,r20,65535
   2aec4:	b00b883a 	mov	r5,r22
   2aec8:	0020a100 	call	20a10 <__umodsi3>
   2aecc:	b809883a 	mov	r4,r23
   2aed0:	b00b883a 	mov	r5,r22
   2aed4:	1021883a 	mov	r16,r2
   2aed8:	00209ac0 	call	209ac <__udivsi3>
   2aedc:	8008943a 	slli	r4,r16,16
   2aee0:	9006d43a 	srli	r3,r18,16
   2aee4:	a885383a 	mul	r2,r21,r2
   2aee8:	20c8b03a 	or	r4,r4,r3
   2aeec:	2080032e 	bgeu	r4,r2,2aefc <__umoddi3+0xd4>
   2aef0:	2509883a 	add	r4,r4,r20
   2aef4:	25000136 	bltu	r4,r20,2aefc <__umoddi3+0xd4>
   2aef8:	20810d36 	bltu	r4,r2,2b330 <__umoddi3+0x508>
   2aefc:	20a7c83a 	sub	r19,r4,r2
   2af00:	b00b883a 	mov	r5,r22
   2af04:	9809883a 	mov	r4,r19
   2af08:	0020a100 	call	20a10 <__umodsi3>
   2af0c:	1021883a 	mov	r16,r2
   2af10:	b00b883a 	mov	r5,r22
   2af14:	9809883a 	mov	r4,r19
   2af18:	8020943a 	slli	r16,r16,16
   2af1c:	00209ac0 	call	209ac <__udivsi3>
   2af20:	a8ab383a 	mul	r21,r21,r2
   2af24:	94bfffcc 	andi	r18,r18,65535
   2af28:	84a0b03a 	or	r16,r16,r18
   2af2c:	8540032e 	bgeu	r16,r21,2af3c <__umoddi3+0x114>
   2af30:	8521883a 	add	r16,r16,r20
   2af34:	85000136 	bltu	r16,r20,2af3c <__umoddi3+0x114>
   2af38:	8540f736 	bltu	r16,r21,2b318 <__umoddi3+0x4f0>
   2af3c:	8561c83a 	sub	r16,r16,r21
   2af40:	8444d83a 	srl	r2,r16,r17
   2af44:	0007883a 	mov	r3,zero
   2af48:	00000406 	br	2af5c <__umoddi3+0x134>
   2af4c:	2807883a 	mov	r3,r5
   2af50:	200b883a 	mov	r5,r4
   2af54:	99c00d2e 	bgeu	r19,r7,2af8c <__umoddi3+0x164>
   2af58:	2005883a 	mov	r2,r4
   2af5c:	dfc00a17 	ldw	ra,40(sp)
   2af60:	df000917 	ldw	fp,36(sp)
   2af64:	ddc00817 	ldw	r23,32(sp)
   2af68:	dd800717 	ldw	r22,28(sp)
   2af6c:	dd400617 	ldw	r21,24(sp)
   2af70:	dd000517 	ldw	r20,20(sp)
   2af74:	dcc00417 	ldw	r19,16(sp)
   2af78:	dc800317 	ldw	r18,12(sp)
   2af7c:	dc400217 	ldw	r17,8(sp)
   2af80:	dc000117 	ldw	r16,4(sp)
   2af84:	dec00b04 	addi	sp,sp,44
   2af88:	f800283a 	ret
   2af8c:	00bfffd4 	movui	r2,65535
   2af90:	11c0502e 	bgeu	r2,r7,2b0d4 <__umoddi3+0x2ac>
   2af94:	00804034 	movhi	r2,256
   2af98:	3880d936 	bltu	r7,r2,2b300 <__umoddi3+0x4d8>
   2af9c:	01000604 	movi	r4,24
   2afa0:	3912d83a 	srl	r9,r7,r4
   2afa4:	008000f4 	movhi	r2,3
   2afa8:	02000804 	movi	r8,32
   2afac:	4885883a 	add	r2,r9,r2
   2afb0:	1502ec03 	ldbu	r20,2992(r2)
   2afb4:	a129883a 	add	r20,r20,r4
   2afb8:	4525c83a 	sub	r18,r8,r20
   2afbc:	4500731e 	bne	r8,r20,2b18c <__umoddi3+0x364>
   2afc0:	3cc00136 	bltu	r7,r19,2afc8 <__umoddi3+0x1a0>
   2afc4:	81800436 	bltu	r16,r6,2afd8 <__umoddi3+0x1b0>
   2afc8:	818bc83a 	sub	r5,r16,r6
   2afcc:	99cfc83a 	sub	r7,r19,r7
   2afd0:	8147803a 	cmpltu	r3,r16,r5
   2afd4:	38c7c83a 	sub	r3,r7,r3
   2afd8:	2805883a 	mov	r2,r5
   2afdc:	003fdf06 	br	2af5c <__umoddi3+0x134>
   2afe0:	3000361e 	bne	r6,zero,2b0bc <__umoddi3+0x294>
   2afe4:	000b883a 	mov	r5,zero
   2afe8:	01000044 	movi	r4,1
   2afec:	00209ac0 	call	209ac <__udivsi3>
   2aff0:	1029883a 	mov	r20,r2
   2aff4:	a0804028 	cmpgeui	r2,r20,256
   2aff8:	100490fa 	slli	r2,r2,3
   2affc:	a08ad83a 	srl	r5,r20,r2
   2b000:	00c000f4 	movhi	r3,3
   2b004:	01000804 	movi	r4,32
   2b008:	28c7883a 	add	r3,r5,r3
   2b00c:	1dc2ec03 	ldbu	r23,2992(r3)
   2b010:	b8af883a 	add	r23,r23,r2
   2b014:	25e3c83a 	sub	r17,r4,r23
   2b018:	25c0311e 	bne	r4,r23,2b0e0 <__umoddi3+0x2b8>
   2b01c:	a02ad43a 	srli	r21,r20,16
   2b020:	9d27c83a 	sub	r19,r19,r20
   2b024:	a5bfffcc 	andi	r22,r20,65535
   2b028:	a80b883a 	mov	r5,r21
   2b02c:	9809883a 	mov	r4,r19
   2b030:	0020a100 	call	20a10 <__umodsi3>
   2b034:	9809883a 	mov	r4,r19
   2b038:	a80b883a 	mov	r5,r21
   2b03c:	1021883a 	mov	r16,r2
   2b040:	00209ac0 	call	209ac <__udivsi3>
   2b044:	8008943a 	slli	r4,r16,16
   2b048:	9006d43a 	srli	r3,r18,16
   2b04c:	1585383a 	mul	r2,r2,r22
   2b050:	20c8b03a 	or	r4,r4,r3
   2b054:	2080032e 	bgeu	r4,r2,2b064 <__umoddi3+0x23c>
   2b058:	2509883a 	add	r4,r4,r20
   2b05c:	25000136 	bltu	r4,r20,2b064 <__umoddi3+0x23c>
   2b060:	2080af36 	bltu	r4,r2,2b320 <__umoddi3+0x4f8>
   2b064:	20a7c83a 	sub	r19,r4,r2
   2b068:	a80b883a 	mov	r5,r21
   2b06c:	9809883a 	mov	r4,r19
   2b070:	0020a100 	call	20a10 <__umodsi3>
   2b074:	1021883a 	mov	r16,r2
   2b078:	a80b883a 	mov	r5,r21
   2b07c:	9809883a 	mov	r4,r19
   2b080:	8020943a 	slli	r16,r16,16
   2b084:	00209ac0 	call	209ac <__udivsi3>
   2b088:	1585383a 	mul	r2,r2,r22
   2b08c:	94bfffcc 	andi	r18,r18,65535
   2b090:	84a0b03a 	or	r16,r16,r18
   2b094:	8080042e 	bgeu	r16,r2,2b0a8 <__umoddi3+0x280>
   2b098:	8521883a 	add	r16,r16,r20
   2b09c:	85000236 	bltu	r16,r20,2b0a8 <__umoddi3+0x280>
   2b0a0:	8080012e 	bgeu	r16,r2,2b0a8 <__umoddi3+0x280>
   2b0a4:	8521883a 	add	r16,r16,r20
   2b0a8:	80a1c83a 	sub	r16,r16,r2
   2b0ac:	003fa406 	br	2af40 <__umoddi3+0x118>
   2b0b0:	30c04028 	cmpgeui	r3,r6,256
   2b0b4:	180690fa 	slli	r3,r3,3
   2b0b8:	003f7206 	br	2ae84 <__umoddi3+0x5c>
   2b0bc:	00bfffd4 	movui	r2,65535
   2b0c0:	11bfcc2e 	bgeu	r2,r6,2aff4 <__umoddi3+0x1cc>
   2b0c4:	00804034 	movhi	r2,256
   2b0c8:	3080972e 	bgeu	r6,r2,2b328 <__umoddi3+0x500>
   2b0cc:	00800404 	movi	r2,16
   2b0d0:	003fca06 	br	2affc <__umoddi3+0x1d4>
   2b0d4:	39004028 	cmpgeui	r4,r7,256
   2b0d8:	200890fa 	slli	r4,r4,3
   2b0dc:	003fb006 	br	2afa0 <__umoddi3+0x178>
   2b0e0:	a468983a 	sll	r20,r20,r17
   2b0e4:	9decd83a 	srl	r22,r19,r23
   2b0e8:	85eed83a 	srl	r23,r16,r23
   2b0ec:	a02ad43a 	srli	r21,r20,16
   2b0f0:	b009883a 	mov	r4,r22
   2b0f4:	9c66983a 	sll	r19,r19,r17
   2b0f8:	a80b883a 	mov	r5,r21
   2b0fc:	0020a100 	call	20a10 <__umodsi3>
   2b100:	b009883a 	mov	r4,r22
   2b104:	a80b883a 	mov	r5,r21
   2b108:	1025883a 	mov	r18,r2
   2b10c:	bceeb03a 	or	r23,r23,r19
   2b110:	00209ac0 	call	209ac <__udivsi3>
   2b114:	9008943a 	slli	r4,r18,16
   2b118:	b806d43a 	srli	r3,r23,16
   2b11c:	a5bfffcc 	andi	r22,r20,65535
   2b120:	b085383a 	mul	r2,r22,r2
   2b124:	20c8b03a 	or	r4,r4,r3
   2b128:	8464983a 	sll	r18,r16,r17
   2b12c:	2080042e 	bgeu	r4,r2,2b140 <__umoddi3+0x318>
   2b130:	2509883a 	add	r4,r4,r20
   2b134:	25000236 	bltu	r4,r20,2b140 <__umoddi3+0x318>
   2b138:	2080012e 	bgeu	r4,r2,2b140 <__umoddi3+0x318>
   2b13c:	2509883a 	add	r4,r4,r20
   2b140:	20a1c83a 	sub	r16,r4,r2
   2b144:	a80b883a 	mov	r5,r21
   2b148:	8009883a 	mov	r4,r16
   2b14c:	0020a100 	call	20a10 <__umodsi3>
   2b150:	1027883a 	mov	r19,r2
   2b154:	a80b883a 	mov	r5,r21
   2b158:	8009883a 	mov	r4,r16
   2b15c:	9826943a 	slli	r19,r19,16
   2b160:	00209ac0 	call	209ac <__udivsi3>
   2b164:	b085383a 	mul	r2,r22,r2
   2b168:	bdffffcc 	andi	r23,r23,65535
   2b16c:	9de6b03a 	or	r19,r19,r23
   2b170:	9880042e 	bgeu	r19,r2,2b184 <__umoddi3+0x35c>
   2b174:	9d27883a 	add	r19,r19,r20
   2b178:	9d000236 	bltu	r19,r20,2b184 <__umoddi3+0x35c>
   2b17c:	9880012e 	bgeu	r19,r2,2b184 <__umoddi3+0x35c>
   2b180:	9d27883a 	add	r19,r19,r20
   2b184:	98a7c83a 	sub	r19,r19,r2
   2b188:	003fa706 	br	2b028 <__umoddi3+0x200>
   2b18c:	352cd83a 	srl	r22,r6,r20
   2b190:	3c8e983a 	sll	r7,r7,r18
   2b194:	9d2ed83a 	srl	r23,r19,r20
   2b198:	8504d83a 	srl	r2,r16,r20
   2b19c:	b1ecb03a 	or	r22,r22,r7
   2b1a0:	b02ad43a 	srli	r21,r22,16
   2b1a4:	9ca6983a 	sll	r19,r19,r18
   2b1a8:	b809883a 	mov	r4,r23
   2b1ac:	a80b883a 	mov	r5,r21
   2b1b0:	34a2983a 	sll	r17,r6,r18
   2b1b4:	14e6b03a 	or	r19,r2,r19
   2b1b8:	0020a100 	call	20a10 <__umodsi3>
   2b1bc:	b809883a 	mov	r4,r23
   2b1c0:	a80b883a 	mov	r5,r21
   2b1c4:	102f883a 	mov	r23,r2
   2b1c8:	00209ac0 	call	209ac <__udivsi3>
   2b1cc:	b808943a 	slli	r4,r23,16
   2b1d0:	9806d43a 	srli	r3,r19,16
   2b1d4:	b1bfffcc 	andi	r6,r22,65535
   2b1d8:	1039883a 	mov	fp,r2
   2b1dc:	3085383a 	mul	r2,r6,r2
   2b1e0:	20c8b03a 	or	r4,r4,r3
   2b1e4:	84ae983a 	sll	r23,r16,r18
   2b1e8:	2080062e 	bgeu	r4,r2,2b204 <__umoddi3+0x3dc>
   2b1ec:	2589883a 	add	r4,r4,r22
   2b1f0:	e0ffffc4 	addi	r3,fp,-1
   2b1f4:	25804636 	bltu	r4,r22,2b310 <__umoddi3+0x4e8>
   2b1f8:	2080452e 	bgeu	r4,r2,2b310 <__umoddi3+0x4e8>
   2b1fc:	e73fff84 	addi	fp,fp,-2
   2b200:	2589883a 	add	r4,r4,r22
   2b204:	20a1c83a 	sub	r16,r4,r2
   2b208:	8009883a 	mov	r4,r16
   2b20c:	a80b883a 	mov	r5,r21
   2b210:	d9800015 	stw	r6,0(sp)
   2b214:	0020a100 	call	20a10 <__umodsi3>
   2b218:	a80b883a 	mov	r5,r21
   2b21c:	8009883a 	mov	r4,r16
   2b220:	1021883a 	mov	r16,r2
   2b224:	00209ac0 	call	209ac <__udivsi3>
   2b228:	d9800017 	ldw	r6,0(sp)
   2b22c:	8006943a 	slli	r3,r16,16
   2b230:	9cffffcc 	andi	r19,r19,65535
   2b234:	308b383a 	mul	r5,r6,r2
   2b238:	1cc6b03a 	or	r3,r3,r19
   2b23c:	1940062e 	bgeu	r3,r5,2b258 <__umoddi3+0x430>
   2b240:	1d87883a 	add	r3,r3,r22
   2b244:	113fffc4 	addi	r4,r2,-1
   2b248:	1d802f36 	bltu	r3,r22,2b308 <__umoddi3+0x4e0>
   2b24c:	19402e2e 	bgeu	r3,r5,2b308 <__umoddi3+0x4e0>
   2b250:	10bfff84 	addi	r2,r2,-2
   2b254:	1d87883a 	add	r3,r3,r22
   2b258:	e038943a 	slli	fp,fp,16
   2b25c:	113fffcc 	andi	r4,r2,65535
   2b260:	8810d43a 	srli	r8,r17,16
   2b264:	e0b8b03a 	or	fp,fp,r2
   2b268:	e038d43a 	srli	fp,fp,16
   2b26c:	89bfffcc 	andi	r6,r17,65535
   2b270:	218f383a 	mul	r7,r4,r6
   2b274:	e18d383a 	mul	r6,fp,r6
   2b278:	2209383a 	mul	r4,r4,r8
   2b27c:	3804d43a 	srli	r2,r7,16
   2b280:	e239383a 	mul	fp,fp,r8
   2b284:	2189883a 	add	r4,r4,r6
   2b288:	1105883a 	add	r2,r2,r4
   2b28c:	1947c83a 	sub	r3,r3,r5
   2b290:	1180022e 	bgeu	r2,r6,2b29c <__umoddi3+0x474>
   2b294:	01000074 	movhi	r4,1
   2b298:	e139883a 	add	fp,fp,r4
   2b29c:	1008d43a 	srli	r4,r2,16
   2b2a0:	1004943a 	slli	r2,r2,16
   2b2a4:	39ffffcc 	andi	r7,r7,65535
   2b2a8:	2709883a 	add	r4,r4,fp
   2b2ac:	11c5883a 	add	r2,r2,r7
   2b2b0:	19000b36 	bltu	r3,r4,2b2e0 <__umoddi3+0x4b8>
   2b2b4:	19000926 	beq	r3,r4,2b2dc <__umoddi3+0x4b4>
   2b2b8:	b885c83a 	sub	r2,r23,r2
   2b2bc:	b8af803a 	cmpltu	r23,r23,r2
   2b2c0:	1907c83a 	sub	r3,r3,r4
   2b2c4:	1dc7c83a 	sub	r3,r3,r23
   2b2c8:	1d28983a 	sll	r20,r3,r20
   2b2cc:	1484d83a 	srl	r2,r2,r18
   2b2d0:	1c86d83a 	srl	r3,r3,r18
   2b2d4:	a084b03a 	or	r2,r20,r2
   2b2d8:	003f2006 	br	2af5c <__umoddi3+0x134>
   2b2dc:	b8bff62e 	bgeu	r23,r2,2b2b8 <__umoddi3+0x490>
   2b2e0:	1463c83a 	sub	r17,r2,r17
   2b2e4:	1445803a 	cmpltu	r2,r2,r17
   2b2e8:	1585883a 	add	r2,r2,r22
   2b2ec:	2089c83a 	sub	r4,r4,r2
   2b2f0:	8805883a 	mov	r2,r17
   2b2f4:	003ff006 	br	2b2b8 <__umoddi3+0x490>
   2b2f8:	00c00404 	movi	r3,16
   2b2fc:	003ee106 	br	2ae84 <__umoddi3+0x5c>
   2b300:	01000404 	movi	r4,16
   2b304:	003f2606 	br	2afa0 <__umoddi3+0x178>
   2b308:	2005883a 	mov	r2,r4
   2b30c:	003fd206 	br	2b258 <__umoddi3+0x430>
   2b310:	1839883a 	mov	fp,r3
   2b314:	003fbb06 	br	2b204 <__umoddi3+0x3dc>
   2b318:	8521883a 	add	r16,r16,r20
   2b31c:	003f0706 	br	2af3c <__umoddi3+0x114>
   2b320:	2509883a 	add	r4,r4,r20
   2b324:	003f4f06 	br	2b064 <__umoddi3+0x23c>
   2b328:	00800604 	movi	r2,24
   2b32c:	003f3306 	br	2affc <__umoddi3+0x1d4>
   2b330:	2509883a 	add	r4,r4,r20
   2b334:	003ef106 	br	2aefc <__umoddi3+0xd4>

0002b338 <__adddf3>:
   2b338:	00c00434 	movhi	r3,16
   2b33c:	18ffffc4 	addi	r3,r3,-1
   2b340:	defffa04 	addi	sp,sp,-24
   2b344:	2810d7fa 	srli	r8,r5,31
   2b348:	3804d53a 	srli	r2,r7,20
   2b34c:	28d4703a 	and	r10,r5,r3
   2b350:	38d2703a 	and	r9,r7,r3
   2b354:	280ad53a 	srli	r5,r5,20
   2b358:	501490fa 	slli	r10,r10,3
   2b35c:	481290fa 	slli	r9,r9,3
   2b360:	3016d77a 	srli	r11,r6,29
   2b364:	dc400115 	stw	r17,4(sp)
   2b368:	380ed7fa 	srli	r7,r7,31
   2b36c:	2022d77a 	srli	r17,r4,29
   2b370:	dd000415 	stw	r20,16(sp)
   2b374:	dcc00315 	stw	r19,12(sp)
   2b378:	dc000015 	stw	r16,0(sp)
   2b37c:	1081ffcc 	andi	r2,r2,2047
   2b380:	2c01ffcc 	andi	r16,r5,2047
   2b384:	dfc00515 	stw	ra,20(sp)
   2b388:	dc800215 	stw	r18,8(sp)
   2b38c:	201890fa 	slli	r12,r4,3
   2b390:	301a90fa 	slli	r13,r6,3
   2b394:	4027883a 	mov	r19,r8
   2b398:	45003fcc 	andi	r20,r8,255
   2b39c:	8aa2b03a 	or	r17,r17,r10
   2b3a0:	5a56b03a 	or	r11,r11,r9
   2b3a4:	808bc83a 	sub	r5,r16,r2
   2b3a8:	41c07526 	beq	r8,r7,2b580 <__adddf3+0x248>
   2b3ac:	0140540e 	bge	zero,r5,2b500 <__adddf3+0x1c8>
   2b3b0:	10008b26 	beq	r2,zero,2b5e0 <__adddf3+0x2a8>
   2b3b4:	8081ffe0 	cmpeqi	r2,r16,2047
   2b3b8:	10010d1e 	bne	r2,zero,2b7f0 <__adddf3+0x4b8>
   2b3bc:	28800e48 	cmpgei	r2,r5,57
   2b3c0:	1000c11e 	bne	r2,zero,2b6c8 <__adddf3+0x390>
   2b3c4:	5ac02034 	orhi	r11,r11,128
   2b3c8:	28800808 	cmpgei	r2,r5,32
   2b3cc:	1001461e 	bne	r2,zero,2b8e8 <__adddf3+0x5b0>
   2b3d0:	00800804 	movi	r2,32
   2b3d4:	1145c83a 	sub	r2,r2,r5
   2b3d8:	58a4983a 	sll	r18,r11,r2
   2b3dc:	6946d83a 	srl	r3,r13,r5
   2b3e0:	6884983a 	sll	r2,r13,r2
   2b3e4:	594ad83a 	srl	r5,r11,r5
   2b3e8:	90e4b03a 	or	r18,r18,r3
   2b3ec:	1004c03a 	cmpne	r2,r2,zero
   2b3f0:	90a4b03a 	or	r18,r18,r2
   2b3f4:	8963c83a 	sub	r17,r17,r5
   2b3f8:	64a5c83a 	sub	r18,r12,r18
   2b3fc:	6485803a 	cmpltu	r2,r12,r18
   2b400:	88a3c83a 	sub	r17,r17,r2
   2b404:	8880202c 	andhi	r2,r17,128
   2b408:	1000b826 	beq	r2,zero,2b6ec <__adddf3+0x3b4>
   2b40c:	00802034 	movhi	r2,128
   2b410:	10bfffc4 	addi	r2,r2,-1
   2b414:	88a2703a 	and	r17,r17,r2
   2b418:	8800d026 	beq	r17,zero,2b75c <__adddf3+0x424>
   2b41c:	8809883a 	mov	r4,r17
   2b420:	002d99c0 	call	2d99c <__clzsi2>
   2b424:	113ffe04 	addi	r4,r2,-8
   2b428:	00c00804 	movi	r3,32
   2b42c:	1905c83a 	sub	r2,r3,r4
   2b430:	9084d83a 	srl	r2,r18,r2
   2b434:	8922983a 	sll	r17,r17,r4
   2b438:	9124983a 	sll	r18,r18,r4
   2b43c:	1444b03a 	or	r2,r2,r17
   2b440:	2400ff16 	blt	r4,r16,2b840 <__adddf3+0x508>
   2b444:	2409c83a 	sub	r4,r4,r16
   2b448:	21000044 	addi	r4,r4,1
   2b44c:	1907c83a 	sub	r3,r3,r4
   2b450:	90ca983a 	sll	r5,r18,r3
   2b454:	9122d83a 	srl	r17,r18,r4
   2b458:	280ac03a 	cmpne	r5,r5,zero
   2b45c:	10c6983a 	sll	r3,r2,r3
   2b460:	894ab03a 	or	r5,r17,r5
   2b464:	1122d83a 	srl	r17,r2,r4
   2b468:	0021883a 	mov	r16,zero
   2b46c:	1964b03a 	or	r18,r3,r5
   2b470:	908001cc 	andi	r2,r18,7
   2b474:	10000726 	beq	r2,zero,2b494 <__adddf3+0x15c>
   2b478:	908003cc 	andi	r2,r18,15
   2b47c:	10800120 	cmpeqi	r2,r2,4
   2b480:	1000041e 	bne	r2,zero,2b494 <__adddf3+0x15c>
   2b484:	90800104 	addi	r2,r18,4
   2b488:	14a5803a 	cmpltu	r18,r2,r18
   2b48c:	8ca3883a 	add	r17,r17,r18
   2b490:	1025883a 	mov	r18,r2
   2b494:	8880202c 	andhi	r2,r17,128
   2b498:	1000c926 	beq	r2,zero,2b7c0 <__adddf3+0x488>
   2b49c:	8081ffa0 	cmpeqi	r2,r16,2046
   2b4a0:	84000044 	addi	r16,r16,1
   2b4a4:	1000841e 	bne	r2,zero,2b6b8 <__adddf3+0x380>
   2b4a8:	013fe034 	movhi	r4,65408
   2b4ac:	213fffc4 	addi	r4,r4,-1
   2b4b0:	8908703a 	and	r4,r17,r4
   2b4b4:	2004977a 	slli	r2,r4,29
   2b4b8:	2008927a 	slli	r4,r4,9
   2b4bc:	9024d0fa 	srli	r18,r18,3
   2b4c0:	80c1ffcc 	andi	r3,r16,2047
   2b4c4:	2008d33a 	srli	r4,r4,12
   2b4c8:	1484b03a 	or	r2,r2,r18
   2b4cc:	a027883a 	mov	r19,r20
   2b4d0:	1806953a 	slli	r3,r3,20
   2b4d4:	982697fa 	slli	r19,r19,31
   2b4d8:	1906b03a 	or	r3,r3,r4
   2b4dc:	1cc6b03a 	or	r3,r3,r19
   2b4e0:	dfc00517 	ldw	ra,20(sp)
   2b4e4:	dd000417 	ldw	r20,16(sp)
   2b4e8:	dcc00317 	ldw	r19,12(sp)
   2b4ec:	dc800217 	ldw	r18,8(sp)
   2b4f0:	dc400117 	ldw	r17,4(sp)
   2b4f4:	dc000017 	ldw	r16,0(sp)
   2b4f8:	dec00604 	addi	sp,sp,24
   2b4fc:	f800283a 	ret
   2b500:	3a803fcc 	andi	r10,r7,255
   2b504:	28004026 	beq	r5,zero,2b608 <__adddf3+0x2d0>
   2b508:	140bc83a 	sub	r5,r2,r16
   2b50c:	8000e61e 	bne	r16,zero,2b8a8 <__adddf3+0x570>
   2b510:	8b06b03a 	or	r3,r17,r12
   2b514:	1800c426 	beq	r3,zero,2b828 <__adddf3+0x4f0>
   2b518:	28ffffc4 	addi	r3,r5,-1
   2b51c:	18017a26 	beq	r3,zero,2bb08 <__adddf3+0x7d0>
   2b520:	2941ffe0 	cmpeqi	r5,r5,2047
   2b524:	28019a1e 	bne	r5,zero,2bb90 <__adddf3+0x858>
   2b528:	19000e48 	cmpgei	r4,r3,57
   2b52c:	20010c1e 	bne	r4,zero,2b960 <__adddf3+0x628>
   2b530:	180b883a 	mov	r5,r3
   2b534:	28c00808 	cmpgei	r3,r5,32
   2b538:	1801521e 	bne	r3,zero,2ba84 <__adddf3+0x74c>
   2b53c:	00c00804 	movi	r3,32
   2b540:	1947c83a 	sub	r3,r3,r5
   2b544:	88e4983a 	sll	r18,r17,r3
   2b548:	6148d83a 	srl	r4,r12,r5
   2b54c:	60c6983a 	sll	r3,r12,r3
   2b550:	894ad83a 	srl	r5,r17,r5
   2b554:	9124b03a 	or	r18,r18,r4
   2b558:	1806c03a 	cmpne	r3,r3,zero
   2b55c:	90e4b03a 	or	r18,r18,r3
   2b560:	5957c83a 	sub	r11,r11,r5
   2b564:	6ca5c83a 	sub	r18,r13,r18
   2b568:	6c9b803a 	cmpltu	r13,r13,r18
   2b56c:	5b63c83a 	sub	r17,r11,r13
   2b570:	3827883a 	mov	r19,r7
   2b574:	1021883a 	mov	r16,r2
   2b578:	5029883a 	mov	r20,r10
   2b57c:	003fa106 	br	2b404 <__adddf3+0xcc>
   2b580:	01405d0e 	bge	zero,r5,2b6f8 <__adddf3+0x3c0>
   2b584:	1000351e 	bne	r2,zero,2b65c <__adddf3+0x324>
   2b588:	5b44b03a 	or	r2,r11,r13
   2b58c:	1000a926 	beq	r2,zero,2b834 <__adddf3+0x4fc>
   2b590:	28bfffc4 	addi	r2,r5,-1
   2b594:	10004e26 	beq	r2,zero,2b6d0 <__adddf3+0x398>
   2b598:	2941ffe0 	cmpeqi	r5,r5,2047
   2b59c:	2801121e 	bne	r5,zero,2b9e8 <__adddf3+0x6b0>
   2b5a0:	10c00e48 	cmpgei	r3,r2,57
   2b5a4:	1800311e 	bne	r3,zero,2b66c <__adddf3+0x334>
   2b5a8:	100b883a 	mov	r5,r2
   2b5ac:	28800808 	cmpgei	r2,r5,32
   2b5b0:	1001181e 	bne	r2,zero,2ba14 <__adddf3+0x6dc>
   2b5b4:	00800804 	movi	r2,32
   2b5b8:	1145c83a 	sub	r2,r2,r5
   2b5bc:	58a4983a 	sll	r18,r11,r2
   2b5c0:	6946d83a 	srl	r3,r13,r5
   2b5c4:	6884983a 	sll	r2,r13,r2
   2b5c8:	594ad83a 	srl	r5,r11,r5
   2b5cc:	90e4b03a 	or	r18,r18,r3
   2b5d0:	1004c03a 	cmpne	r2,r2,zero
   2b5d4:	90a4b03a 	or	r18,r18,r2
   2b5d8:	8963883a 	add	r17,r17,r5
   2b5dc:	00002406 	br	2b670 <__adddf3+0x338>
   2b5e0:	5b44b03a 	or	r2,r11,r13
   2b5e4:	10009326 	beq	r2,zero,2b834 <__adddf3+0x4fc>
   2b5e8:	28bfffc4 	addi	r2,r5,-1
   2b5ec:	1000f826 	beq	r2,zero,2b9d0 <__adddf3+0x698>
   2b5f0:	2941ffe0 	cmpeqi	r5,r5,2047
   2b5f4:	2800fc1e 	bne	r5,zero,2b9e8 <__adddf3+0x6b0>
   2b5f8:	10c00e48 	cmpgei	r3,r2,57
   2b5fc:	1800321e 	bne	r3,zero,2b6c8 <__adddf3+0x390>
   2b600:	100b883a 	mov	r5,r2
   2b604:	003f7006 	br	2b3c8 <__adddf3+0x90>
   2b608:	80800044 	addi	r2,r16,1
   2b60c:	1081ff8c 	andi	r2,r2,2046
   2b610:	1000ab1e 	bne	r2,zero,2b8c0 <__adddf3+0x588>
   2b614:	8b0ab03a 	or	r5,r17,r12
   2b618:	5b44b03a 	or	r2,r11,r13
   2b61c:	8000e71e 	bne	r16,zero,2b9bc <__adddf3+0x684>
   2b620:	28014126 	beq	r5,zero,2bb28 <__adddf3+0x7f0>
   2b624:	10010626 	beq	r2,zero,2ba40 <__adddf3+0x708>
   2b628:	6365c83a 	sub	r18,r12,r13
   2b62c:	6485803a 	cmpltu	r2,r12,r18
   2b630:	8ac7c83a 	sub	r3,r17,r11
   2b634:	1887c83a 	sub	r3,r3,r2
   2b638:	1880202c 	andhi	r2,r3,128
   2b63c:	10017326 	beq	r2,zero,2bc0c <__adddf3+0x8d4>
   2b640:	6b25c83a 	sub	r18,r13,r12
   2b644:	5c57c83a 	sub	r11,r11,r17
   2b648:	6c9b803a 	cmpltu	r13,r13,r18
   2b64c:	5b63c83a 	sub	r17,r11,r13
   2b650:	3827883a 	mov	r19,r7
   2b654:	5029883a 	mov	r20,r10
   2b658:	003f8506 	br	2b470 <__adddf3+0x138>
   2b65c:	8081ffe0 	cmpeqi	r2,r16,2047
   2b660:	1000631e 	bne	r2,zero,2b7f0 <__adddf3+0x4b8>
   2b664:	28800e48 	cmpgei	r2,r5,57
   2b668:	1000aa26 	beq	r2,zero,2b914 <__adddf3+0x5dc>
   2b66c:	04800044 	movi	r18,1
   2b670:	9325883a 	add	r18,r18,r12
   2b674:	9305803a 	cmpltu	r2,r18,r12
   2b678:	88a3883a 	add	r17,r17,r2
   2b67c:	8880202c 	andhi	r2,r17,128
   2b680:	10001a26 	beq	r2,zero,2b6ec <__adddf3+0x3b4>
   2b684:	84000044 	addi	r16,r16,1
   2b688:	8081ffe0 	cmpeqi	r2,r16,2047
   2b68c:	10000a1e 	bne	r2,zero,2b6b8 <__adddf3+0x380>
   2b690:	00bfe034 	movhi	r2,65408
   2b694:	10bfffc4 	addi	r2,r2,-1
   2b698:	9006d07a 	srli	r3,r18,1
   2b69c:	8884703a 	and	r2,r17,r2
   2b6a0:	100897fa 	slli	r4,r2,31
   2b6a4:	9480004c 	andi	r18,r18,1
   2b6a8:	1c86b03a 	or	r3,r3,r18
   2b6ac:	1022d07a 	srli	r17,r2,1
   2b6b0:	20e4b03a 	or	r18,r4,r3
   2b6b4:	003f6e06 	br	2b470 <__adddf3+0x138>
   2b6b8:	00c1ffc4 	movi	r3,2047
   2b6bc:	0009883a 	mov	r4,zero
   2b6c0:	0005883a 	mov	r2,zero
   2b6c4:	003f8206 	br	2b4d0 <__adddf3+0x198>
   2b6c8:	04800044 	movi	r18,1
   2b6cc:	003f4a06 	br	2b3f8 <__adddf3+0xc0>
   2b6d0:	6365883a 	add	r18,r12,r13
   2b6d4:	8ad7883a 	add	r11,r17,r11
   2b6d8:	9305803a 	cmpltu	r2,r18,r12
   2b6dc:	58a3883a 	add	r17,r11,r2
   2b6e0:	8880202c 	andhi	r2,r17,128
   2b6e4:	1001061e 	bne	r2,zero,2bb00 <__adddf3+0x7c8>
   2b6e8:	04000044 	movi	r16,1
   2b6ec:	908001cc 	andi	r2,r18,7
   2b6f0:	103f611e 	bne	r2,zero,2b478 <__adddf3+0x140>
   2b6f4:	00006906 	br	2b89c <__adddf3+0x564>
   2b6f8:	28005626 	beq	r5,zero,2b854 <__adddf3+0x51c>
   2b6fc:	140bc83a 	sub	r5,r2,r16
   2b700:	80008626 	beq	r16,zero,2b91c <__adddf3+0x5e4>
   2b704:	10c1ffe0 	cmpeqi	r3,r2,2047
   2b708:	1801101e 	bne	r3,zero,2bb4c <__adddf3+0x814>
   2b70c:	28c00e48 	cmpgei	r3,r5,57
   2b710:	1800da1e 	bne	r3,zero,2ba7c <__adddf3+0x744>
   2b714:	8c402034 	orhi	r17,r17,128
   2b718:	28c00808 	cmpgei	r3,r5,32
   2b71c:	1801241e 	bne	r3,zero,2bbb0 <__adddf3+0x878>
   2b720:	00c00804 	movi	r3,32
   2b724:	1947c83a 	sub	r3,r3,r5
   2b728:	88e4983a 	sll	r18,r17,r3
   2b72c:	6148d83a 	srl	r4,r12,r5
   2b730:	60c6983a 	sll	r3,r12,r3
   2b734:	894ad83a 	srl	r5,r17,r5
   2b738:	9124b03a 	or	r18,r18,r4
   2b73c:	1806c03a 	cmpne	r3,r3,zero
   2b740:	90e4b03a 	or	r18,r18,r3
   2b744:	5957883a 	add	r11,r11,r5
   2b748:	9365883a 	add	r18,r18,r13
   2b74c:	935b803a 	cmpltu	r13,r18,r13
   2b750:	6ae3883a 	add	r17,r13,r11
   2b754:	1021883a 	mov	r16,r2
   2b758:	003fc806 	br	2b67c <__adddf3+0x344>
   2b75c:	9009883a 	mov	r4,r18
   2b760:	002d99c0 	call	2d99c <__clzsi2>
   2b764:	11000604 	addi	r4,r2,24
   2b768:	20c00808 	cmpgei	r3,r4,32
   2b76c:	183f2e26 	beq	r3,zero,2b428 <__adddf3+0xf0>
   2b770:	10bffe04 	addi	r2,r2,-8
   2b774:	9084983a 	sll	r2,r18,r2
   2b778:	24007216 	blt	r4,r16,2b944 <__adddf3+0x60c>
   2b77c:	2425c83a 	sub	r18,r4,r16
   2b780:	91000044 	addi	r4,r18,1
   2b784:	20c00808 	cmpgei	r3,r4,32
   2b788:	18012426 	beq	r3,zero,2bc1c <__adddf3+0x8e4>
   2b78c:	94bff844 	addi	r18,r18,-31
   2b790:	20c00820 	cmpeqi	r3,r4,32
   2b794:	14a4d83a 	srl	r18,r2,r18
   2b798:	1800051e 	bne	r3,zero,2b7b0 <__adddf3+0x478>
   2b79c:	00c01004 	movi	r3,64
   2b7a0:	1907c83a 	sub	r3,r3,r4
   2b7a4:	10c4983a 	sll	r2,r2,r3
   2b7a8:	1004c03a 	cmpne	r2,r2,zero
   2b7ac:	90a4b03a 	or	r18,r18,r2
   2b7b0:	908001cc 	andi	r2,r18,7
   2b7b4:	0021883a 	mov	r16,zero
   2b7b8:	103f2f1e 	bne	r2,zero,2b478 <__adddf3+0x140>
   2b7bc:	00003706 	br	2b89c <__adddf3+0x564>
   2b7c0:	9004d0fa 	srli	r2,r18,3
   2b7c4:	880a977a 	slli	r5,r17,29
   2b7c8:	8101ffe0 	cmpeqi	r4,r16,2047
   2b7cc:	8806d0fa 	srli	r3,r17,3
   2b7d0:	2884b03a 	or	r2,r5,r2
   2b7d4:	20000c1e 	bne	r4,zero,2b808 <__adddf3+0x4d0>
   2b7d8:	01000434 	movhi	r4,16
   2b7dc:	213fffc4 	addi	r4,r4,-1
   2b7e0:	1908703a 	and	r4,r3,r4
   2b7e4:	80c1ffcc 	andi	r3,r16,2047
   2b7e8:	003f3906 	br	2b4d0 <__adddf3+0x198>
   2b7ec:	1000b31e 	bne	r2,zero,2babc <__adddf3+0x784>
   2b7f0:	880a977a 	slli	r5,r17,29
   2b7f4:	00880034 	movhi	r2,8192
   2b7f8:	10bfffc4 	addi	r2,r2,-1
   2b7fc:	8806d0fa 	srli	r3,r17,3
   2b800:	2084703a 	and	r2,r4,r2
   2b804:	1144b03a 	or	r2,r2,r5
   2b808:	10c8b03a 	or	r4,r2,r3
   2b80c:	20010726 	beq	r4,zero,2bc2c <__adddf3+0x8f4>
   2b810:	01400434 	movhi	r5,16
   2b814:	19000234 	orhi	r4,r3,8
   2b818:	297fffc4 	addi	r5,r5,-1
   2b81c:	2148703a 	and	r4,r4,r5
   2b820:	00c1ffc4 	movi	r3,2047
   2b824:	003f2a06 	br	2b4d0 <__adddf3+0x198>
   2b828:	6819883a 	mov	r12,r13
   2b82c:	5823883a 	mov	r17,r11
   2b830:	3827883a 	mov	r19,r7
   2b834:	6004d0fa 	srli	r2,r12,3
   2b838:	2821883a 	mov	r16,r5
   2b83c:	003fe106 	br	2b7c4 <__adddf3+0x48c>
   2b840:	047fe034 	movhi	r17,65408
   2b844:	8c7fffc4 	addi	r17,r17,-1
   2b848:	8121c83a 	sub	r16,r16,r4
   2b84c:	1462703a 	and	r17,r2,r17
   2b850:	003f0706 	br	2b470 <__adddf3+0x138>
   2b854:	80c00044 	addi	r3,r16,1
   2b858:	1881ff8c 	andi	r2,r3,2046
   2b85c:	1000421e 	bne	r2,zero,2b968 <__adddf3+0x630>
   2b860:	8b04b03a 	or	r2,r17,r12
   2b864:	8000921e 	bne	r16,zero,2bab0 <__adddf3+0x778>
   2b868:	1000c226 	beq	r2,zero,2bb74 <__adddf3+0x83c>
   2b86c:	5b44b03a 	or	r2,r11,r13
   2b870:	10007326 	beq	r2,zero,2ba40 <__adddf3+0x708>
   2b874:	6365883a 	add	r18,r12,r13
   2b878:	9305803a 	cmpltu	r2,r18,r12
   2b87c:	8ad7883a 	add	r11,r17,r11
   2b880:	58a3883a 	add	r17,r11,r2
   2b884:	8880202c 	andhi	r2,r17,128
   2b888:	10000426 	beq	r2,zero,2b89c <__adddf3+0x564>
   2b88c:	00bfe034 	movhi	r2,65408
   2b890:	10bfffc4 	addi	r2,r2,-1
   2b894:	88a2703a 	and	r17,r17,r2
   2b898:	04000044 	movi	r16,1
   2b89c:	800b883a 	mov	r5,r16
   2b8a0:	9019883a 	mov	r12,r18
   2b8a4:	003fe306 	br	2b834 <__adddf3+0x4fc>
   2b8a8:	10c1ffe0 	cmpeqi	r3,r2,2047
   2b8ac:	18006b1e 	bne	r3,zero,2ba5c <__adddf3+0x724>
   2b8b0:	28c00e48 	cmpgei	r3,r5,57
   2b8b4:	18002a1e 	bne	r3,zero,2b960 <__adddf3+0x628>
   2b8b8:	8c402034 	orhi	r17,r17,128
   2b8bc:	003f1d06 	br	2b534 <__adddf3+0x1fc>
   2b8c0:	6365c83a 	sub	r18,r12,r13
   2b8c4:	6485803a 	cmpltu	r2,r12,r18
   2b8c8:	8ac7c83a 	sub	r3,r17,r11
   2b8cc:	1887c83a 	sub	r3,r3,r2
   2b8d0:	1880202c 	andhi	r2,r3,128
   2b8d4:	1000321e 	bne	r2,zero,2b9a0 <__adddf3+0x668>
   2b8d8:	90c4b03a 	or	r2,r18,r3
   2b8dc:	10004926 	beq	r2,zero,2ba04 <__adddf3+0x6cc>
   2b8e0:	1823883a 	mov	r17,r3
   2b8e4:	003ecc06 	br	2b418 <__adddf3+0xe0>
   2b8e8:	28bff804 	addi	r2,r5,-32
   2b8ec:	28c00820 	cmpeqi	r3,r5,32
   2b8f0:	5884d83a 	srl	r2,r11,r2
   2b8f4:	1800041e 	bne	r3,zero,2b908 <__adddf3+0x5d0>
   2b8f8:	00c01004 	movi	r3,64
   2b8fc:	1947c83a 	sub	r3,r3,r5
   2b900:	58c6983a 	sll	r3,r11,r3
   2b904:	68dab03a 	or	r13,r13,r3
   2b908:	6824c03a 	cmpne	r18,r13,zero
   2b90c:	90a4b03a 	or	r18,r18,r2
   2b910:	003eb906 	br	2b3f8 <__adddf3+0xc0>
   2b914:	5ac02034 	orhi	r11,r11,128
   2b918:	003f2406 	br	2b5ac <__adddf3+0x274>
   2b91c:	8b06b03a 	or	r3,r17,r12
   2b920:	18009126 	beq	r3,zero,2bb68 <__adddf3+0x830>
   2b924:	28ffffc4 	addi	r3,r5,-1
   2b928:	1800ac26 	beq	r3,zero,2bbdc <__adddf3+0x8a4>
   2b92c:	2941ffe0 	cmpeqi	r5,r5,2047
   2b930:	2800861e 	bne	r5,zero,2bb4c <__adddf3+0x814>
   2b934:	19000e48 	cmpgei	r4,r3,57
   2b938:	2000501e 	bne	r4,zero,2ba7c <__adddf3+0x744>
   2b93c:	180b883a 	mov	r5,r3
   2b940:	003f7506 	br	2b718 <__adddf3+0x3e0>
   2b944:	00ffe034 	movhi	r3,65408
   2b948:	18ffffc4 	addi	r3,r3,-1
   2b94c:	10c6703a 	and	r3,r2,r3
   2b950:	1804977a 	slli	r2,r3,29
   2b954:	8121c83a 	sub	r16,r16,r4
   2b958:	1806d0fa 	srli	r3,r3,3
   2b95c:	003f9e06 	br	2b7d8 <__adddf3+0x4a0>
   2b960:	04800044 	movi	r18,1
   2b964:	003eff06 	br	2b564 <__adddf3+0x22c>
   2b968:	1881ffe0 	cmpeqi	r2,r3,2047
   2b96c:	103f521e 	bne	r2,zero,2b6b8 <__adddf3+0x380>
   2b970:	6349883a 	add	r4,r12,r13
   2b974:	8ad7883a 	add	r11,r17,r11
   2b978:	2305803a 	cmpltu	r2,r4,r12
   2b97c:	5885883a 	add	r2,r11,r2
   2b980:	2008d07a 	srli	r4,r4,1
   2b984:	102497fa 	slli	r18,r2,31
   2b988:	1022d07a 	srli	r17,r2,1
   2b98c:	208001cc 	andi	r2,r4,7
   2b990:	9124b03a 	or	r18,r18,r4
   2b994:	1821883a 	mov	r16,r3
   2b998:	103eb71e 	bne	r2,zero,2b478 <__adddf3+0x140>
   2b99c:	003fbf06 	br	2b89c <__adddf3+0x564>
   2b9a0:	6b25c83a 	sub	r18,r13,r12
   2b9a4:	5c57c83a 	sub	r11,r11,r17
   2b9a8:	6c9b803a 	cmpltu	r13,r13,r18
   2b9ac:	5b63c83a 	sub	r17,r11,r13
   2b9b0:	3827883a 	mov	r19,r7
   2b9b4:	5029883a 	mov	r20,r10
   2b9b8:	003e9706 	br	2b418 <__adddf3+0xe0>
   2b9bc:	283f8b1e 	bne	r5,zero,2b7ec <__adddf3+0x4b4>
   2b9c0:	1000261e 	bne	r2,zero,2ba5c <__adddf3+0x724>
   2b9c4:	00bfffc4 	movi	r2,-1
   2b9c8:	0027883a 	mov	r19,zero
   2b9cc:	003f9006 	br	2b810 <__adddf3+0x4d8>
   2b9d0:	6365c83a 	sub	r18,r12,r13
   2b9d4:	8ad7c83a 	sub	r11,r17,r11
   2b9d8:	6485803a 	cmpltu	r2,r12,r18
   2b9dc:	58a3c83a 	sub	r17,r11,r2
   2b9e0:	04000044 	movi	r16,1
   2b9e4:	003e8706 	br	2b404 <__adddf3+0xcc>
   2b9e8:	8804977a 	slli	r2,r17,29
   2b9ec:	00c80034 	movhi	r3,8192
   2b9f0:	18ffffc4 	addi	r3,r3,-1
   2b9f4:	20c8703a 	and	r4,r4,r3
   2b9f8:	2084b03a 	or	r2,r4,r2
   2b9fc:	8806d0fa 	srli	r3,r17,3
   2ba00:	003f8106 	br	2b808 <__adddf3+0x4d0>
   2ba04:	0027883a 	mov	r19,zero
   2ba08:	0007883a 	mov	r3,zero
   2ba0c:	0009883a 	mov	r4,zero
   2ba10:	003eaf06 	br	2b4d0 <__adddf3+0x198>
   2ba14:	28bff804 	addi	r2,r5,-32
   2ba18:	28c00820 	cmpeqi	r3,r5,32
   2ba1c:	5884d83a 	srl	r2,r11,r2
   2ba20:	1800041e 	bne	r3,zero,2ba34 <__adddf3+0x6fc>
   2ba24:	00c01004 	movi	r3,64
   2ba28:	1947c83a 	sub	r3,r3,r5
   2ba2c:	58c6983a 	sll	r3,r11,r3
   2ba30:	68dab03a 	or	r13,r13,r3
   2ba34:	6824c03a 	cmpne	r18,r13,zero
   2ba38:	90a4b03a 	or	r18,r18,r2
   2ba3c:	003f0c06 	br	2b670 <__adddf3+0x338>
   2ba40:	880a977a 	slli	r5,r17,29
   2ba44:	00880034 	movhi	r2,8192
   2ba48:	10bfffc4 	addi	r2,r2,-1
   2ba4c:	2084703a 	and	r2,r4,r2
   2ba50:	8806d0fa 	srli	r3,r17,3
   2ba54:	1144b03a 	or	r2,r2,r5
   2ba58:	003f5f06 	br	2b7d8 <__adddf3+0x4a0>
   2ba5c:	5804977a 	slli	r2,r11,29
   2ba60:	00c80034 	movhi	r3,8192
   2ba64:	18ffffc4 	addi	r3,r3,-1
   2ba68:	30c8703a 	and	r4,r6,r3
   2ba6c:	1104b03a 	or	r2,r2,r4
   2ba70:	5806d0fa 	srli	r3,r11,3
   2ba74:	3827883a 	mov	r19,r7
   2ba78:	003f6306 	br	2b808 <__adddf3+0x4d0>
   2ba7c:	04800044 	movi	r18,1
   2ba80:	003f3106 	br	2b748 <__adddf3+0x410>
   2ba84:	28fff804 	addi	r3,r5,-32
   2ba88:	29000820 	cmpeqi	r4,r5,32
   2ba8c:	88c6d83a 	srl	r3,r17,r3
   2ba90:	2000041e 	bne	r4,zero,2baa4 <__adddf3+0x76c>
   2ba94:	01001004 	movi	r4,64
   2ba98:	2149c83a 	sub	r4,r4,r5
   2ba9c:	8908983a 	sll	r4,r17,r4
   2baa0:	6118b03a 	or	r12,r12,r4
   2baa4:	6024c03a 	cmpne	r18,r12,zero
   2baa8:	90e4b03a 	or	r18,r18,r3
   2baac:	003ead06 	br	2b564 <__adddf3+0x22c>
   2bab0:	10004f26 	beq	r2,zero,2bbf0 <__adddf3+0x8b8>
   2bab4:	5b5ab03a 	or	r13,r11,r13
   2bab8:	683f4d26 	beq	r13,zero,2b7f0 <__adddf3+0x4b8>
   2babc:	8806d0fa 	srli	r3,r17,3
   2bac0:	01480034 	movhi	r5,8192
   2bac4:	8822977a 	slli	r17,r17,29
   2bac8:	297fffc4 	addi	r5,r5,-1
   2bacc:	2144703a 	and	r2,r4,r5
   2bad0:	1900022c 	andhi	r4,r3,8
   2bad4:	1444b03a 	or	r2,r2,r17
   2bad8:	203f4b26 	beq	r4,zero,2b808 <__adddf3+0x4d0>
   2badc:	5808d0fa 	srli	r4,r11,3
   2bae0:	2200022c 	andhi	r8,r4,8
   2bae4:	403f481e 	bne	r8,zero,2b808 <__adddf3+0x4d0>
   2bae8:	5804977a 	slli	r2,r11,29
   2baec:	314a703a 	and	r5,r6,r5
   2baf0:	3827883a 	mov	r19,r7
   2baf4:	2884b03a 	or	r2,r5,r2
   2baf8:	2007883a 	mov	r3,r4
   2bafc:	003f4206 	br	2b808 <__adddf3+0x4d0>
   2bb00:	04000084 	movi	r16,2
   2bb04:	003ee206 	br	2b690 <__adddf3+0x358>
   2bb08:	6b25c83a 	sub	r18,r13,r12
   2bb0c:	5c57c83a 	sub	r11,r11,r17
   2bb10:	6c9b803a 	cmpltu	r13,r13,r18
   2bb14:	5b63c83a 	sub	r17,r11,r13
   2bb18:	3827883a 	mov	r19,r7
   2bb1c:	5029883a 	mov	r20,r10
   2bb20:	04000044 	movi	r16,1
   2bb24:	003e3706 	br	2b404 <__adddf3+0xcc>
   2bb28:	103fb626 	beq	r2,zero,2ba04 <__adddf3+0x6cc>
   2bb2c:	5808977a 	slli	r4,r11,29
   2bb30:	00880034 	movhi	r2,8192
   2bb34:	10bfffc4 	addi	r2,r2,-1
   2bb38:	3084703a 	and	r2,r6,r2
   2bb3c:	5806d0fa 	srli	r3,r11,3
   2bb40:	1104b03a 	or	r2,r2,r4
   2bb44:	3827883a 	mov	r19,r7
   2bb48:	003f2306 	br	2b7d8 <__adddf3+0x4a0>
   2bb4c:	5808977a 	slli	r4,r11,29
   2bb50:	00880034 	movhi	r2,8192
   2bb54:	10bfffc4 	addi	r2,r2,-1
   2bb58:	3084703a 	and	r2,r6,r2
   2bb5c:	5806d0fa 	srli	r3,r11,3
   2bb60:	1104b03a 	or	r2,r2,r4
   2bb64:	003f2806 	br	2b808 <__adddf3+0x4d0>
   2bb68:	6819883a 	mov	r12,r13
   2bb6c:	5823883a 	mov	r17,r11
   2bb70:	003f3006 	br	2b834 <__adddf3+0x4fc>
   2bb74:	5808977a 	slli	r4,r11,29
   2bb78:	00880034 	movhi	r2,8192
   2bb7c:	10bfffc4 	addi	r2,r2,-1
   2bb80:	3084703a 	and	r2,r6,r2
   2bb84:	5806d0fa 	srli	r3,r11,3
   2bb88:	1104b03a 	or	r2,r2,r4
   2bb8c:	003f1206 	br	2b7d8 <__adddf3+0x4a0>
   2bb90:	5808977a 	slli	r4,r11,29
   2bb94:	00880034 	movhi	r2,8192
   2bb98:	10bfffc4 	addi	r2,r2,-1
   2bb9c:	3084703a 	and	r2,r6,r2
   2bba0:	5806d0fa 	srli	r3,r11,3
   2bba4:	1104b03a 	or	r2,r2,r4
   2bba8:	3827883a 	mov	r19,r7
   2bbac:	003f1606 	br	2b808 <__adddf3+0x4d0>
   2bbb0:	28fff804 	addi	r3,r5,-32
   2bbb4:	29000820 	cmpeqi	r4,r5,32
   2bbb8:	88c6d83a 	srl	r3,r17,r3
   2bbbc:	2000041e 	bne	r4,zero,2bbd0 <__adddf3+0x898>
   2bbc0:	01001004 	movi	r4,64
   2bbc4:	2149c83a 	sub	r4,r4,r5
   2bbc8:	8908983a 	sll	r4,r17,r4
   2bbcc:	6118b03a 	or	r12,r12,r4
   2bbd0:	6024c03a 	cmpne	r18,r12,zero
   2bbd4:	90e4b03a 	or	r18,r18,r3
   2bbd8:	003edb06 	br	2b748 <__adddf3+0x410>
   2bbdc:	6365883a 	add	r18,r12,r13
   2bbe0:	8ad7883a 	add	r11,r17,r11
   2bbe4:	935b803a 	cmpltu	r13,r18,r13
   2bbe8:	5b63883a 	add	r17,r11,r13
   2bbec:	003ebc06 	br	2b6e0 <__adddf3+0x3a8>
   2bbf0:	5804977a 	slli	r2,r11,29
   2bbf4:	00c80034 	movhi	r3,8192
   2bbf8:	18ffffc4 	addi	r3,r3,-1
   2bbfc:	30cc703a 	and	r6,r6,r3
   2bc00:	1184b03a 	or	r2,r2,r6
   2bc04:	5806d0fa 	srli	r3,r11,3
   2bc08:	003eff06 	br	2b808 <__adddf3+0x4d0>
   2bc0c:	90c4b03a 	or	r2,r18,r3
   2bc10:	103f7c26 	beq	r2,zero,2ba04 <__adddf3+0x6cc>
   2bc14:	1823883a 	mov	r17,r3
   2bc18:	003f2006 	br	2b89c <__adddf3+0x564>
   2bc1c:	00c00804 	movi	r3,32
   2bc20:	1907c83a 	sub	r3,r3,r4
   2bc24:	000b883a 	mov	r5,zero
   2bc28:	003e0c06 	br	2b45c <__adddf3+0x124>
   2bc2c:	0005883a 	mov	r2,zero
   2bc30:	00c1ffc4 	movi	r3,2047
   2bc34:	0009883a 	mov	r4,zero
   2bc38:	003e2506 	br	2b4d0 <__adddf3+0x198>

0002bc3c <__divdf3>:
   2bc3c:	2806d53a 	srli	r3,r5,20
   2bc40:	defff304 	addi	sp,sp,-52
   2bc44:	00800434 	movhi	r2,16
   2bc48:	dd800915 	stw	r22,36(sp)
   2bc4c:	dd400815 	stw	r21,32(sp)
   2bc50:	dd000715 	stw	r20,28(sp)
   2bc54:	dc400415 	stw	r17,16(sp)
   2bc58:	dc000315 	stw	r16,12(sp)
   2bc5c:	10bfffc4 	addi	r2,r2,-1
   2bc60:	dfc00c15 	stw	ra,48(sp)
   2bc64:	df000b15 	stw	fp,44(sp)
   2bc68:	ddc00a15 	stw	r23,40(sp)
   2bc6c:	dcc00615 	stw	r19,24(sp)
   2bc70:	dc800515 	stw	r18,20(sp)
   2bc74:	18c1ffcc 	andi	r3,r3,2047
   2bc78:	282cd7fa 	srli	r22,r5,31
   2bc7c:	302b883a 	mov	r21,r6
   2bc80:	3821883a 	mov	r16,r7
   2bc84:	2029883a 	mov	r20,r4
   2bc88:	28a2703a 	and	r17,r5,r2
   2bc8c:	18010d26 	beq	r3,zero,2c0c4 <__divdf3+0x488>
   2bc90:	1881ffe0 	cmpeqi	r2,r3,2047
   2bc94:	10011e1e 	bne	r2,zero,2c110 <__divdf3+0x4d4>
   2bc98:	880a90fa 	slli	r5,r17,3
   2bc9c:	2008d77a 	srli	r4,r4,29
   2bca0:	a02890fa 	slli	r20,r20,3
   2bca4:	1cff0044 	addi	r19,r3,-1023
   2bca8:	2148b03a 	or	r4,r4,r5
   2bcac:	24802034 	orhi	r18,r4,128
   2bcb0:	0023883a 	mov	r17,zero
   2bcb4:	0039883a 	mov	fp,zero
   2bcb8:	8006d53a 	srli	r3,r16,20
   2bcbc:	00800434 	movhi	r2,16
   2bcc0:	10bfffc4 	addi	r2,r2,-1
   2bcc4:	18c1ffcc 	andi	r3,r3,2047
   2bcc8:	802ed7fa 	srli	r23,r16,31
   2bccc:	80a0703a 	and	r16,r16,r2
   2bcd0:	1800eb26 	beq	r3,zero,2c080 <__divdf3+0x444>
   2bcd4:	1881ffe0 	cmpeqi	r2,r3,2047
   2bcd8:	1001141e 	bne	r2,zero,2c12c <__divdf3+0x4f0>
   2bcdc:	802090fa 	slli	r16,r16,3
   2bce0:	a804d77a 	srli	r2,r21,29
   2bce4:	a80e90fa 	slli	r7,r21,3
   2bce8:	18ff0044 	addi	r3,r3,-1023
   2bcec:	1420b03a 	or	r16,r2,r16
   2bcf0:	98e7c83a 	sub	r19,r19,r3
   2bcf4:	84002034 	orhi	r16,r16,128
   2bcf8:	0007883a 	mov	r3,zero
   2bcfc:	88800428 	cmpgeui	r2,r17,16
   2bd00:	b5eaf03a 	xor	r21,r22,r23
   2bd04:	1000391e 	bne	r2,zero,2bdec <__divdf3+0x1b0>
   2bd08:	882290ba 	slli	r17,r17,2
   2bd0c:	008000f4 	movhi	r2,3
   2bd10:	8885883a 	add	r2,r17,r2
   2bd14:	10af4717 	ldw	r2,-17124(r2)
   2bd18:	1000683a 	jmp	r2
   2bd1c:	0002bdec 	andhi	zero,zero,2807
   2bd20:	0002bdd4 	movui	zero,2807
   2bd24:	0002bd84 	movi	zero,2806
   2bd28:	0002bde4 	muli	zero,zero,2807
   2bd2c:	0002bd84 	movi	zero,2806
   2bd30:	0002c190 	cmplti	zero,zero,2822
   2bd34:	0002bd84 	movi	zero,2806
   2bd38:	0002bde4 	muli	zero,zero,2807
   2bd3c:	0002bdd4 	movui	zero,2807
   2bd40:	0002bdd4 	movui	zero,2807
   2bd44:	0002c190 	cmplti	zero,zero,2822
   2bd48:	0002bde4 	muli	zero,zero,2807
   2bd4c:	0002bd5c 	xori	zero,zero,2805
   2bd50:	0002bd5c 	xori	zero,zero,2805
   2bd54:	0002bd5c 	xori	zero,zero,2805
   2bd58:	0002c220 	cmpeqi	zero,zero,2824
   2bd5c:	b02b883a 	mov	r21,r22
   2bd60:	9021883a 	mov	r16,r18
   2bd64:	a00f883a 	mov	r7,r20
   2bd68:	e007883a 	mov	r3,fp
   2bd6c:	188000a0 	cmpeqi	r2,r3,2
   2bd70:	1000181e 	bne	r2,zero,2bdd4 <__divdf3+0x198>
   2bd74:	188000e0 	cmpeqi	r2,r3,3
   2bd78:	1001b61e 	bne	r2,zero,2c454 <__divdf3+0x818>
   2bd7c:	18c00060 	cmpeqi	r3,r3,1
   2bd80:	1800ac26 	beq	r3,zero,2c034 <__divdf3+0x3f8>
   2bd84:	000b883a 	mov	r5,zero
   2bd88:	0009883a 	mov	r4,zero
   2bd8c:	0029883a 	mov	r20,zero
   2bd90:	2806953a 	slli	r3,r5,20
   2bd94:	a82a97fa 	slli	r21,r21,31
   2bd98:	a005883a 	mov	r2,r20
   2bd9c:	1906b03a 	or	r3,r3,r4
   2bda0:	1d46b03a 	or	r3,r3,r21
   2bda4:	dfc00c17 	ldw	ra,48(sp)
   2bda8:	df000b17 	ldw	fp,44(sp)
   2bdac:	ddc00a17 	ldw	r23,40(sp)
   2bdb0:	dd800917 	ldw	r22,36(sp)
   2bdb4:	dd400817 	ldw	r21,32(sp)
   2bdb8:	dd000717 	ldw	r20,28(sp)
   2bdbc:	dcc00617 	ldw	r19,24(sp)
   2bdc0:	dc800517 	ldw	r18,20(sp)
   2bdc4:	dc400417 	ldw	r17,16(sp)
   2bdc8:	dc000317 	ldw	r16,12(sp)
   2bdcc:	dec00d04 	addi	sp,sp,52
   2bdd0:	f800283a 	ret
   2bdd4:	0141ffc4 	movi	r5,2047
   2bdd8:	0009883a 	mov	r4,zero
   2bddc:	0029883a 	mov	r20,zero
   2bde0:	003feb06 	br	2bd90 <__divdf3+0x154>
   2bde4:	b82b883a 	mov	r21,r23
   2bde8:	003fe006 	br	2bd6c <__divdf3+0x130>
   2bdec:	84812636 	bltu	r16,r18,2c288 <__divdf3+0x64c>
   2bdf0:	84812426 	beq	r16,r18,2c284 <__divdf3+0x648>
   2bdf4:	9cffffc4 	addi	r19,r19,-1
   2bdf8:	a023883a 	mov	r17,r20
   2bdfc:	0007883a 	mov	r3,zero
   2be00:	8020923a 	slli	r16,r16,8
   2be04:	3828d63a 	srli	r20,r7,24
   2be08:	9009883a 	mov	r4,r18
   2be0c:	802cd43a 	srli	r22,r16,16
   2be10:	d8c00015 	stw	r3,0(sp)
   2be14:	382e923a 	slli	r23,r7,8
   2be18:	b00b883a 	mov	r5,r22
   2be1c:	00209ac0 	call	209ac <__udivsi3>
   2be20:	9009883a 	mov	r4,r18
   2be24:	b00b883a 	mov	r5,r22
   2be28:	a428b03a 	or	r20,r20,r16
   2be2c:	1021883a 	mov	r16,r2
   2be30:	0020a100 	call	20a10 <__umodsi3>
   2be34:	1004943a 	slli	r2,r2,16
   2be38:	8808d43a 	srli	r4,r17,16
   2be3c:	a4bfffcc 	andi	r18,r20,65535
   2be40:	940b383a 	mul	r5,r18,r16
   2be44:	2088b03a 	or	r4,r4,r2
   2be48:	d8c00017 	ldw	r3,0(sp)
   2be4c:	2140042e 	bgeu	r4,r5,2be60 <__divdf3+0x224>
   2be50:	2509883a 	add	r4,r4,r20
   2be54:	80bfffc4 	addi	r2,r16,-1
   2be58:	25013b2e 	bgeu	r4,r20,2c348 <__divdf3+0x70c>
   2be5c:	1021883a 	mov	r16,r2
   2be60:	2179c83a 	sub	fp,r4,r5
   2be64:	e009883a 	mov	r4,fp
   2be68:	b00b883a 	mov	r5,r22
   2be6c:	d8c00015 	stw	r3,0(sp)
   2be70:	00209ac0 	call	209ac <__udivsi3>
   2be74:	e009883a 	mov	r4,fp
   2be78:	b00b883a 	mov	r5,r22
   2be7c:	1039883a 	mov	fp,r2
   2be80:	0020a100 	call	20a10 <__umodsi3>
   2be84:	1004943a 	slli	r2,r2,16
   2be88:	9715383a 	mul	r10,r18,fp
   2be8c:	893fffcc 	andi	r4,r17,65535
   2be90:	2088b03a 	or	r4,r4,r2
   2be94:	d8c00017 	ldw	r3,0(sp)
   2be98:	2280042e 	bgeu	r4,r10,2beac <__divdf3+0x270>
   2be9c:	2509883a 	add	r4,r4,r20
   2bea0:	e0bfffc4 	addi	r2,fp,-1
   2bea4:	2501242e 	bgeu	r4,r20,2c338 <__divdf3+0x6fc>
   2bea8:	1039883a 	mov	fp,r2
   2beac:	8020943a 	slli	r16,r16,16
   2beb0:	b80cd43a 	srli	r6,r23,16
   2beb4:	ba3fffcc 	andi	r8,r23,65535
   2beb8:	8720b03a 	or	r16,r16,fp
   2bebc:	80bfffcc 	andi	r2,r16,65535
   2bec0:	800ed43a 	srli	r7,r16,16
   2bec4:	1213383a 	mul	r9,r2,r8
   2bec8:	308b383a 	mul	r5,r6,r2
   2becc:	3a17383a 	mul	r11,r7,r8
   2bed0:	4804d43a 	srli	r2,r9,16
   2bed4:	398f383a 	mul	r7,r7,r6
   2bed8:	2acb883a 	add	r5,r5,r11
   2bedc:	1145883a 	add	r2,r2,r5
   2bee0:	2289c83a 	sub	r4,r4,r10
   2bee4:	12c0022e 	bgeu	r2,r11,2bef0 <__divdf3+0x2b4>
   2bee8:	01400074 	movhi	r5,1
   2beec:	394f883a 	add	r7,r7,r5
   2bef0:	100ad43a 	srli	r5,r2,16
   2bef4:	1038943a 	slli	fp,r2,16
   2bef8:	4a7fffcc 	andi	r9,r9,65535
   2befc:	29c5883a 	add	r2,r5,r7
   2bf00:	e279883a 	add	fp,fp,r9
   2bf04:	20800236 	bltu	r4,r2,2bf10 <__divdf3+0x2d4>
   2bf08:	20800a1e 	bne	r4,r2,2bf34 <__divdf3+0x2f8>
   2bf0c:	1f00092e 	bgeu	r3,fp,2bf34 <__divdf3+0x2f8>
   2bf10:	1dc7883a 	add	r3,r3,r23
   2bf14:	1dcb803a 	cmpltu	r5,r3,r23
   2bf18:	2d0b883a 	add	r5,r5,r20
   2bf1c:	2149883a 	add	r4,r4,r5
   2bf20:	817fffc4 	addi	r5,r16,-1
   2bf24:	a101012e 	bgeu	r20,r4,2c32c <__divdf3+0x6f0>
   2bf28:	20813236 	bltu	r4,r2,2c3f4 <__divdf3+0x7b8>
   2bf2c:	11013026 	beq	r2,r4,2c3f0 <__divdf3+0x7b4>
   2bf30:	2821883a 	mov	r16,r5
   2bf34:	1f39c83a 	sub	fp,r3,fp
   2bf38:	2089c83a 	sub	r4,r4,r2
   2bf3c:	1f07803a 	cmpltu	r3,r3,fp
   2bf40:	da000115 	stw	r8,4(sp)
   2bf44:	d9800015 	stw	r6,0(sp)
   2bf48:	20e3c83a 	sub	r17,r4,r3
   2bf4c:	a4411726 	beq	r20,r17,2c3ac <__divdf3+0x770>
   2bf50:	b00b883a 	mov	r5,r22
   2bf54:	8809883a 	mov	r4,r17
   2bf58:	00209ac0 	call	209ac <__udivsi3>
   2bf5c:	8809883a 	mov	r4,r17
   2bf60:	b00b883a 	mov	r5,r22
   2bf64:	d8800215 	stw	r2,8(sp)
   2bf68:	0020a100 	call	20a10 <__umodsi3>
   2bf6c:	d9c00217 	ldw	r7,8(sp)
   2bf70:	1004943a 	slli	r2,r2,16
   2bf74:	e008d43a 	srli	r4,fp,16
   2bf78:	91c7383a 	mul	r3,r18,r7
   2bf7c:	d9800017 	ldw	r6,0(sp)
   2bf80:	2088b03a 	or	r4,r4,r2
   2bf84:	da000117 	ldw	r8,4(sp)
   2bf88:	20c0e136 	bltu	r4,r3,2c310 <__divdf3+0x6d4>
   2bf8c:	20e3c83a 	sub	r17,r4,r3
   2bf90:	8809883a 	mov	r4,r17
   2bf94:	b00b883a 	mov	r5,r22
   2bf98:	da000215 	stw	r8,8(sp)
   2bf9c:	d9c00115 	stw	r7,4(sp)
   2bfa0:	d9800015 	stw	r6,0(sp)
   2bfa4:	00209ac0 	call	209ac <__udivsi3>
   2bfa8:	8809883a 	mov	r4,r17
   2bfac:	b00b883a 	mov	r5,r22
   2bfb0:	1023883a 	mov	r17,r2
   2bfb4:	0020a100 	call	20a10 <__umodsi3>
   2bfb8:	1004943a 	slli	r2,r2,16
   2bfbc:	9465383a 	mul	r18,r18,r17
   2bfc0:	e73fffcc 	andi	fp,fp,65535
   2bfc4:	e0b8b03a 	or	fp,fp,r2
   2bfc8:	d9800017 	ldw	r6,0(sp)
   2bfcc:	d9c00117 	ldw	r7,4(sp)
   2bfd0:	da000217 	ldw	r8,8(sp)
   2bfd4:	e480c736 	bltu	fp,r18,2c2f4 <__divdf3+0x6b8>
   2bfd8:	380e943a 	slli	r7,r7,16
   2bfdc:	e4b9c83a 	sub	fp,fp,r18
   2bfe0:	3c4eb03a 	or	r7,r7,r17
   2bfe4:	38bfffcc 	andi	r2,r7,65535
   2bfe8:	380ad43a 	srli	r5,r7,16
   2bfec:	4089383a 	mul	r4,r8,r2
   2bff0:	3087383a 	mul	r3,r6,r2
   2bff4:	2a11383a 	mul	r8,r5,r8
   2bff8:	2004d43a 	srli	r2,r4,16
   2bffc:	314d383a 	mul	r6,r6,r5
   2c000:	1a07883a 	add	r3,r3,r8
   2c004:	10c5883a 	add	r2,r2,r3
   2c008:	1200022e 	bgeu	r2,r8,2c014 <__divdf3+0x3d8>
   2c00c:	00c00074 	movhi	r3,1
   2c010:	30cd883a 	add	r6,r6,r3
   2c014:	1006d43a 	srli	r3,r2,16
   2c018:	1004943a 	slli	r2,r2,16
   2c01c:	213fffcc 	andi	r4,r4,65535
   2c020:	1987883a 	add	r3,r3,r6
   2c024:	1105883a 	add	r2,r2,r4
   2c028:	e0c08f36 	bltu	fp,r3,2c268 <__divdf3+0x62c>
   2c02c:	e0c08d26 	beq	fp,r3,2c264 <__divdf3+0x628>
   2c030:	39c00054 	ori	r7,r7,1
   2c034:	9940ffc4 	addi	r5,r19,1023
   2c038:	01405c0e 	bge	zero,r5,2c1ac <__divdf3+0x570>
   2c03c:	388001cc 	andi	r2,r7,7
   2c040:	1000e21e 	bne	r2,zero,2c3cc <__divdf3+0x790>
   2c044:	8080402c 	andhi	r2,r16,256
   2c048:	10000426 	beq	r2,zero,2c05c <__divdf3+0x420>
   2c04c:	00bfc034 	movhi	r2,65280
   2c050:	10bfffc4 	addi	r2,r2,-1
   2c054:	80a0703a 	and	r16,r16,r2
   2c058:	99410004 	addi	r5,r19,1024
   2c05c:	2881ffc8 	cmpgei	r2,r5,2047
   2c060:	103f5c1e 	bne	r2,zero,2bdd4 <__divdf3+0x198>
   2c064:	380ed0fa 	srli	r7,r7,3
   2c068:	8028977a 	slli	r20,r16,29
   2c06c:	8008927a 	slli	r4,r16,9
   2c070:	2941ffcc 	andi	r5,r5,2047
   2c074:	a1e8b03a 	or	r20,r20,r7
   2c078:	2008d33a 	srli	r4,r4,12
   2c07c:	003f4406 	br	2bd90 <__divdf3+0x154>
   2c080:	854eb03a 	or	r7,r16,r21
   2c084:	38003e26 	beq	r7,zero,2c180 <__divdf3+0x544>
   2c088:	80008f26 	beq	r16,zero,2c2c8 <__divdf3+0x68c>
   2c08c:	8009883a 	mov	r4,r16
   2c090:	002d99c0 	call	2d99c <__clzsi2>
   2c094:	113ffd44 	addi	r4,r2,-11
   2c098:	00c00744 	movi	r3,29
   2c09c:	11fffe04 	addi	r7,r2,-8
   2c0a0:	1907c83a 	sub	r3,r3,r4
   2c0a4:	81e0983a 	sll	r16,r16,r7
   2c0a8:	a8c6d83a 	srl	r3,r21,r3
   2c0ac:	a9ce983a 	sll	r7,r21,r7
   2c0b0:	1c20b03a 	or	r16,r3,r16
   2c0b4:	14c5883a 	add	r2,r2,r19
   2c0b8:	14c0fcc4 	addi	r19,r2,1011
   2c0bc:	0007883a 	mov	r3,zero
   2c0c0:	003f0e06 	br	2bcfc <__divdf3+0xc0>
   2c0c4:	2464b03a 	or	r18,r4,r17
   2c0c8:	2027883a 	mov	r19,r4
   2c0cc:	90002726 	beq	r18,zero,2c16c <__divdf3+0x530>
   2c0d0:	88007326 	beq	r17,zero,2c2a0 <__divdf3+0x664>
   2c0d4:	8809883a 	mov	r4,r17
   2c0d8:	002d99c0 	call	2d99c <__clzsi2>
   2c0dc:	10fffd44 	addi	r3,r2,-11
   2c0e0:	01000744 	movi	r4,29
   2c0e4:	153ffe04 	addi	r20,r2,-8
   2c0e8:	20c9c83a 	sub	r4,r4,r3
   2c0ec:	8d0a983a 	sll	r5,r17,r20
   2c0f0:	9908d83a 	srl	r4,r19,r4
   2c0f4:	9d28983a 	sll	r20,r19,r20
   2c0f8:	2164b03a 	or	r18,r4,r5
   2c0fc:	00ff0344 	movi	r3,-1011
   2c100:	18a7c83a 	sub	r19,r3,r2
   2c104:	0023883a 	mov	r17,zero
   2c108:	0039883a 	mov	fp,zero
   2c10c:	003eea06 	br	2bcb8 <__divdf3+0x7c>
   2c110:	2464b03a 	or	r18,r4,r17
   2c114:	9000101e 	bne	r18,zero,2c158 <__divdf3+0x51c>
   2c118:	0029883a 	mov	r20,zero
   2c11c:	04400204 	movi	r17,8
   2c120:	04c1ffc4 	movi	r19,2047
   2c124:	07000084 	movi	fp,2
   2c128:	003ee306 	br	2bcb8 <__divdf3+0x7c>
   2c12c:	854eb03a 	or	r7,r16,r21
   2c130:	9cfe0044 	addi	r19,r19,-2047
   2c134:	3800041e 	bne	r7,zero,2c148 <__divdf3+0x50c>
   2c138:	8c400094 	ori	r17,r17,2
   2c13c:	0021883a 	mov	r16,zero
   2c140:	00c00084 	movi	r3,2
   2c144:	003eed06 	br	2bcfc <__divdf3+0xc0>
   2c148:	8c4000d4 	ori	r17,r17,3
   2c14c:	a80f883a 	mov	r7,r21
   2c150:	00c000c4 	movi	r3,3
   2c154:	003ee906 	br	2bcfc <__divdf3+0xc0>
   2c158:	8825883a 	mov	r18,r17
   2c15c:	04c1ffc4 	movi	r19,2047
   2c160:	04400304 	movi	r17,12
   2c164:	070000c4 	movi	fp,3
   2c168:	003ed306 	br	2bcb8 <__divdf3+0x7c>
   2c16c:	0029883a 	mov	r20,zero
   2c170:	04400104 	movi	r17,4
   2c174:	0027883a 	mov	r19,zero
   2c178:	07000044 	movi	fp,1
   2c17c:	003ece06 	br	2bcb8 <__divdf3+0x7c>
   2c180:	8c400054 	ori	r17,r17,1
   2c184:	0021883a 	mov	r16,zero
   2c188:	00c00044 	movi	r3,1
   2c18c:	003edb06 	br	2bcfc <__divdf3+0xc0>
   2c190:	01000434 	movhi	r4,16
   2c194:	002b883a 	mov	r21,zero
   2c198:	213fffc4 	addi	r4,r4,-1
   2c19c:	053fffc4 	movi	r20,-1
   2c1a0:	0141ffc4 	movi	r5,2047
   2c1a4:	003efa06 	br	2bd90 <__divdf3+0x154>
   2c1a8:	01ffffc4 	movi	r7,-1
   2c1ac:	00800044 	movi	r2,1
   2c1b0:	1145c83a 	sub	r2,r2,r5
   2c1b4:	10c00e48 	cmpgei	r3,r2,57
   2c1b8:	183ef21e 	bne	r3,zero,2bd84 <__divdf3+0x148>
   2c1bc:	10c00808 	cmpgei	r3,r2,32
   2c1c0:	1800651e 	bne	r3,zero,2c358 <__divdf3+0x71c>
   2c1c4:	98c10784 	addi	r3,r19,1054
   2c1c8:	80e8983a 	sll	r20,r16,r3
   2c1cc:	3888d83a 	srl	r4,r7,r2
   2c1d0:	38c6983a 	sll	r3,r7,r3
   2c1d4:	80a0d83a 	srl	r16,r16,r2
   2c1d8:	a128b03a 	or	r20,r20,r4
   2c1dc:	1806c03a 	cmpne	r3,r3,zero
   2c1e0:	a0e8b03a 	or	r20,r20,r3
   2c1e4:	a08001cc 	andi	r2,r20,7
   2c1e8:	10000726 	beq	r2,zero,2c208 <__divdf3+0x5cc>
   2c1ec:	a08003cc 	andi	r2,r20,15
   2c1f0:	10800120 	cmpeqi	r2,r2,4
   2c1f4:	1000041e 	bne	r2,zero,2c208 <__divdf3+0x5cc>
   2c1f8:	a0800104 	addi	r2,r20,4
   2c1fc:	1529803a 	cmpltu	r20,r2,r20
   2c200:	8521883a 	add	r16,r16,r20
   2c204:	1029883a 	mov	r20,r2
   2c208:	8080202c 	andhi	r2,r16,128
   2c20c:	10008d26 	beq	r2,zero,2c444 <__divdf3+0x808>
   2c210:	01400044 	movi	r5,1
   2c214:	0009883a 	mov	r4,zero
   2c218:	0029883a 	mov	r20,zero
   2c21c:	003edc06 	br	2bd90 <__divdf3+0x154>
   2c220:	9080022c 	andhi	r2,r18,8
   2c224:	10000926 	beq	r2,zero,2c24c <__divdf3+0x610>
   2c228:	8080022c 	andhi	r2,r16,8
   2c22c:	1000071e 	bne	r2,zero,2c24c <__divdf3+0x610>
   2c230:	00800434 	movhi	r2,16
   2c234:	81000234 	orhi	r4,r16,8
   2c238:	10bfffc4 	addi	r2,r2,-1
   2c23c:	2088703a 	and	r4,r4,r2
   2c240:	b82b883a 	mov	r21,r23
   2c244:	3829883a 	mov	r20,r7
   2c248:	003fd506 	br	2c1a0 <__divdf3+0x564>
   2c24c:	00800434 	movhi	r2,16
   2c250:	91000234 	orhi	r4,r18,8
   2c254:	10bfffc4 	addi	r2,r2,-1
   2c258:	2088703a 	and	r4,r4,r2
   2c25c:	b02b883a 	mov	r21,r22
   2c260:	003fcf06 	br	2c1a0 <__divdf3+0x564>
   2c264:	103f7326 	beq	r2,zero,2c034 <__divdf3+0x3f8>
   2c268:	a739883a 	add	fp,r20,fp
   2c26c:	393fffc4 	addi	r4,r7,-1
   2c270:	e5004a36 	bltu	fp,r20,2c39c <__divdf3+0x760>
   2c274:	e0c06536 	bltu	fp,r3,2c40c <__divdf3+0x7d0>
   2c278:	e0c07c26 	beq	fp,r3,2c46c <__divdf3+0x830>
   2c27c:	200f883a 	mov	r7,r4
   2c280:	003f6b06 	br	2c030 <__divdf3+0x3f4>
   2c284:	a1fedb36 	bltu	r20,r7,2bdf4 <__divdf3+0x1b8>
   2c288:	902297fa 	slli	r17,r18,31
   2c28c:	a004d07a 	srli	r2,r20,1
   2c290:	9024d07a 	srli	r18,r18,1
   2c294:	a00697fa 	slli	r3,r20,31
   2c298:	88a2b03a 	or	r17,r17,r2
   2c29c:	003ed806 	br	2be00 <__divdf3+0x1c4>
   2c2a0:	002d99c0 	call	2d99c <__clzsi2>
   2c2a4:	10c00544 	addi	r3,r2,21
   2c2a8:	19400748 	cmpgei	r5,r3,29
   2c2ac:	1009883a 	mov	r4,r2
   2c2b0:	10800804 	addi	r2,r2,32
   2c2b4:	283f8a26 	beq	r5,zero,2c0e0 <__divdf3+0x4a4>
   2c2b8:	213ffe04 	addi	r4,r4,-8
   2c2bc:	a124983a 	sll	r18,r20,r4
   2c2c0:	0029883a 	mov	r20,zero
   2c2c4:	003f8d06 	br	2c0fc <__divdf3+0x4c0>
   2c2c8:	a809883a 	mov	r4,r21
   2c2cc:	002d99c0 	call	2d99c <__clzsi2>
   2c2d0:	11000544 	addi	r4,r2,21
   2c2d4:	21400748 	cmpgei	r5,r4,29
   2c2d8:	1007883a 	mov	r3,r2
   2c2dc:	10800804 	addi	r2,r2,32
   2c2e0:	283f6d26 	beq	r5,zero,2c098 <__divdf3+0x45c>
   2c2e4:	18fffe04 	addi	r3,r3,-8
   2c2e8:	a8e0983a 	sll	r16,r21,r3
   2c2ec:	000f883a 	mov	r7,zero
   2c2f0:	003f7006 	br	2c0b4 <__divdf3+0x478>
   2c2f4:	e539883a 	add	fp,fp,r20
   2c2f8:	88bfffc4 	addi	r2,r17,-1
   2c2fc:	e5003a36 	bltu	fp,r20,2c3e8 <__divdf3+0x7ac>
   2c300:	e480392e 	bgeu	fp,r18,2c3e8 <__divdf3+0x7ac>
   2c304:	8c7fff84 	addi	r17,r17,-2
   2c308:	e539883a 	add	fp,fp,r20
   2c30c:	003f3206 	br	2bfd8 <__divdf3+0x39c>
   2c310:	2509883a 	add	r4,r4,r20
   2c314:	38bfffc4 	addi	r2,r7,-1
   2c318:	25003136 	bltu	r4,r20,2c3e0 <__divdf3+0x7a4>
   2c31c:	20c0302e 	bgeu	r4,r3,2c3e0 <__divdf3+0x7a4>
   2c320:	39ffff84 	addi	r7,r7,-2
   2c324:	2509883a 	add	r4,r4,r20
   2c328:	003f1806 	br	2bf8c <__divdf3+0x350>
   2c32c:	a13f001e 	bne	r20,r4,2bf30 <__divdf3+0x2f4>
   2c330:	1dfeff36 	bltu	r3,r23,2bf30 <__divdf3+0x2f4>
   2c334:	003efc06 	br	2bf28 <__divdf3+0x2ec>
   2c338:	22bedb2e 	bgeu	r4,r10,2bea8 <__divdf3+0x26c>
   2c33c:	e73fff84 	addi	fp,fp,-2
   2c340:	2509883a 	add	r4,r4,r20
   2c344:	003ed906 	br	2beac <__divdf3+0x270>
   2c348:	217ec42e 	bgeu	r4,r5,2be5c <__divdf3+0x220>
   2c34c:	843fff84 	addi	r16,r16,-2
   2c350:	2509883a 	add	r4,r4,r20
   2c354:	003ec206 	br	2be60 <__divdf3+0x224>
   2c358:	013ff844 	movi	r4,-31
   2c35c:	2149c83a 	sub	r4,r4,r5
   2c360:	10800820 	cmpeqi	r2,r2,32
   2c364:	8108d83a 	srl	r4,r16,r4
   2c368:	1000031e 	bne	r2,zero,2c378 <__divdf3+0x73c>
   2c36c:	98c10f84 	addi	r3,r19,1086
   2c370:	80c6983a 	sll	r3,r16,r3
   2c374:	38ceb03a 	or	r7,r7,r3
   2c378:	3828c03a 	cmpne	r20,r7,zero
   2c37c:	a128b03a 	or	r20,r20,r4
   2c380:	a40001cc 	andi	r16,r20,7
   2c384:	8000291e 	bne	r16,zero,2c42c <__divdf3+0x7f0>
   2c388:	0009883a 	mov	r4,zero
   2c38c:	a028d0fa 	srli	r20,r20,3
   2c390:	000b883a 	mov	r5,zero
   2c394:	a428b03a 	or	r20,r20,r16
   2c398:	003e7d06 	br	2bd90 <__divdf3+0x154>
   2c39c:	200f883a 	mov	r7,r4
   2c3a0:	e0ff231e 	bne	fp,r3,2c030 <__divdf3+0x3f4>
   2c3a4:	15ff221e 	bne	r2,r23,2c030 <__divdf3+0x3f4>
   2c3a8:	003f2206 	br	2c034 <__divdf3+0x3f8>
   2c3ac:	98bf0088 	cmpgei	r2,r19,-1022
   2c3b0:	9940ffc4 	addi	r5,r19,1023
   2c3b4:	103f7c26 	beq	r2,zero,2c1a8 <__divdf3+0x56c>
   2c3b8:	00bfffc4 	movi	r2,-1
   2c3bc:	11c00104 	addi	r7,r2,4
   2c3c0:	3885803a 	cmpltu	r2,r7,r2
   2c3c4:	80a1883a 	add	r16,r16,r2
   2c3c8:	003f1e06 	br	2c044 <__divdf3+0x408>
   2c3cc:	388003cc 	andi	r2,r7,15
   2c3d0:	10800120 	cmpeqi	r2,r2,4
   2c3d4:	103f1b1e 	bne	r2,zero,2c044 <__divdf3+0x408>
   2c3d8:	3805883a 	mov	r2,r7
   2c3dc:	003ff706 	br	2c3bc <__divdf3+0x780>
   2c3e0:	100f883a 	mov	r7,r2
   2c3e4:	003ee906 	br	2bf8c <__divdf3+0x350>
   2c3e8:	1023883a 	mov	r17,r2
   2c3ec:	003efa06 	br	2bfd8 <__divdf3+0x39c>
   2c3f0:	1f3ecf2e 	bgeu	r3,fp,2bf30 <__divdf3+0x2f4>
   2c3f4:	1dc7883a 	add	r3,r3,r23
   2c3f8:	1dcb803a 	cmpltu	r5,r3,r23
   2c3fc:	2d0b883a 	add	r5,r5,r20
   2c400:	843fff84 	addi	r16,r16,-2
   2c404:	2149883a 	add	r4,r4,r5
   2c408:	003eca06 	br	2bf34 <__divdf3+0x2f8>
   2c40c:	bdc9883a 	add	r4,r23,r23
   2c410:	25ef803a 	cmpltu	r23,r4,r23
   2c414:	bd2f883a 	add	r23,r23,r20
   2c418:	e5f9883a 	add	fp,fp,r23
   2c41c:	39ffff84 	addi	r7,r7,-2
   2c420:	202f883a 	mov	r23,r4
   2c424:	e0ffdf26 	beq	fp,r3,2c3a4 <__divdf3+0x768>
   2c428:	003f0106 	br	2c030 <__divdf3+0x3f4>
   2c42c:	a08003cc 	andi	r2,r20,15
   2c430:	10800120 	cmpeqi	r2,r2,4
   2c434:	1000111e 	bne	r2,zero,2c47c <__divdf3+0x840>
   2c438:	a0800104 	addi	r2,r20,4
   2c43c:	1521803a 	cmpltu	r16,r2,r20
   2c440:	1029883a 	mov	r20,r2
   2c444:	8008927a 	slli	r4,r16,9
   2c448:	8020977a 	slli	r16,r16,29
   2c44c:	2008d33a 	srli	r4,r4,12
   2c450:	003fce06 	br	2c38c <__divdf3+0x750>
   2c454:	00800434 	movhi	r2,16
   2c458:	81000234 	orhi	r4,r16,8
   2c45c:	10bfffc4 	addi	r2,r2,-1
   2c460:	2088703a 	and	r4,r4,r2
   2c464:	3829883a 	mov	r20,r7
   2c468:	003f4d06 	br	2c1a0 <__divdf3+0x564>
   2c46c:	b8bfe736 	bltu	r23,r2,2c40c <__divdf3+0x7d0>
   2c470:	200f883a 	mov	r7,r4
   2c474:	15feee1e 	bne	r2,r23,2c030 <__divdf3+0x3f4>
   2c478:	003eee06 	br	2c034 <__divdf3+0x3f8>
   2c47c:	0021883a 	mov	r16,zero
   2c480:	003ff006 	br	2c444 <__divdf3+0x808>

0002c484 <__eqdf2>:
   2c484:	2810d53a 	srli	r8,r5,20
   2c488:	3804d53a 	srli	r2,r7,20
   2c48c:	00c00434 	movhi	r3,16
   2c490:	4201ffcc 	andi	r8,r8,2047
   2c494:	18ffffc4 	addi	r3,r3,-1
   2c498:	4241ffe0 	cmpeqi	r9,r8,2047
   2c49c:	2816d7fa 	srli	r11,r5,31
   2c4a0:	3814d7fa 	srli	r10,r7,31
   2c4a4:	28ca703a 	and	r5,r5,r3
   2c4a8:	38ce703a 	and	r7,r7,r3
   2c4ac:	1081ffcc 	andi	r2,r2,2047
   2c4b0:	4800061e 	bne	r9,zero,2c4cc <__eqdf2+0x48>
   2c4b4:	10c1ffe0 	cmpeqi	r3,r2,2047
   2c4b8:	1800061e 	bne	r3,zero,2c4d4 <__eqdf2+0x50>
   2c4bc:	4080051e 	bne	r8,r2,2c4d4 <__eqdf2+0x50>
   2c4c0:	00800044 	movi	r2,1
   2c4c4:	29c00b26 	beq	r5,r7,2c4f4 <__eqdf2+0x70>
   2c4c8:	f800283a 	ret
   2c4cc:	1081ffd8 	cmpnei	r2,r2,2047
   2c4d0:	10000226 	beq	r2,zero,2c4dc <__eqdf2+0x58>
   2c4d4:	00800044 	movi	r2,1
   2c4d8:	f800283a 	ret
   2c4dc:	29cab03a 	or	r5,r5,r7
   2c4e0:	2984b03a 	or	r2,r5,r6
   2c4e4:	1104b03a 	or	r2,r2,r4
   2c4e8:	103ffa1e 	bne	r2,zero,2c4d4 <__eqdf2+0x50>
   2c4ec:	5a84c03a 	cmpne	r2,r11,r10
   2c4f0:	f800283a 	ret
   2c4f4:	21800126 	beq	r4,r6,2c4fc <__eqdf2+0x78>
   2c4f8:	f800283a 	ret
   2c4fc:	5a800426 	beq	r11,r10,2c510 <__eqdf2+0x8c>
   2c500:	403ffd1e 	bne	r8,zero,2c4f8 <__eqdf2+0x74>
   2c504:	290ab03a 	or	r5,r5,r4
   2c508:	2804c03a 	cmpne	r2,r5,zero
   2c50c:	f800283a 	ret
   2c510:	0005883a 	mov	r2,zero
   2c514:	003ff806 	br	2c4f8 <__eqdf2+0x74>

0002c518 <__gedf2>:
   2c518:	2810d53a 	srli	r8,r5,20
   2c51c:	3812d53a 	srli	r9,r7,20
   2c520:	00c00434 	movhi	r3,16
   2c524:	4201ffcc 	andi	r8,r8,2047
   2c528:	18ffffc4 	addi	r3,r3,-1
   2c52c:	4281ffd8 	cmpnei	r10,r8,2047
   2c530:	2816d7fa 	srli	r11,r5,31
   2c534:	3804d7fa 	srli	r2,r7,31
   2c538:	28ca703a 	and	r5,r5,r3
   2c53c:	38ce703a 	and	r7,r7,r3
   2c540:	48c1ffcc 	andi	r3,r9,2047
   2c544:	50001426 	beq	r10,zero,2c598 <__gedf2+0x80>
   2c548:	1a41ffd8 	cmpnei	r9,r3,2047
   2c54c:	48000926 	beq	r9,zero,2c574 <__gedf2+0x5c>
   2c550:	40001b1e 	bne	r8,zero,2c5c0 <__gedf2+0xa8>
   2c554:	2910b03a 	or	r8,r5,r4
   2c558:	1800161e 	bne	r3,zero,2c5b4 <__gedf2+0x9c>
   2c55c:	3986b03a 	or	r3,r7,r6
   2c560:	18002126 	beq	r3,zero,2c5e8 <__gedf2+0xd0>
   2c564:	4000291e 	bne	r8,zero,2c60c <__gedf2+0xf4>
   2c568:	1000111e 	bne	r2,zero,2c5b0 <__gedf2+0x98>
   2c56c:	00bfffc4 	movi	r2,-1
   2c570:	f800283a 	ret
   2c574:	398eb03a 	or	r7,r7,r6
   2c578:	3800221e 	bne	r7,zero,2c604 <__gedf2+0xec>
   2c57c:	4000021e 	bne	r8,zero,2c588 <__gedf2+0x70>
   2c580:	2908b03a 	or	r4,r5,r4
   2c584:	203ff826 	beq	r4,zero,2c568 <__gedf2+0x50>
   2c588:	5880071e 	bne	r11,r2,2c5a8 <__gedf2+0x90>
   2c58c:	583ff726 	beq	r11,zero,2c56c <__gedf2+0x54>
   2c590:	5805883a 	mov	r2,r11
   2c594:	f800283a 	ret
   2c598:	290ab03a 	or	r5,r5,r4
   2c59c:	2800191e 	bne	r5,zero,2c604 <__gedf2+0xec>
   2c5a0:	1901ffe0 	cmpeqi	r4,r3,2047
   2c5a4:	2000131e 	bne	r4,zero,2c5f4 <__gedf2+0xdc>
   2c5a8:	00800044 	movi	r2,1
   2c5ac:	583fef1e 	bne	r11,zero,2c56c <__gedf2+0x54>
   2c5b0:	f800283a 	ret
   2c5b4:	403ff41e 	bne	r8,zero,2c588 <__gedf2+0x70>
   2c5b8:	103ffd1e 	bne	r2,zero,2c5b0 <__gedf2+0x98>
   2c5bc:	003feb06 	br	2c56c <__gedf2+0x54>
   2c5c0:	183ff926 	beq	r3,zero,2c5a8 <__gedf2+0x90>
   2c5c4:	58bff81e 	bne	r11,r2,2c5a8 <__gedf2+0x90>
   2c5c8:	1a3ff716 	blt	r3,r8,2c5a8 <__gedf2+0x90>
   2c5cc:	40ffef16 	blt	r8,r3,2c58c <__gedf2+0x74>
   2c5d0:	397ff536 	bltu	r7,r5,2c5a8 <__gedf2+0x90>
   2c5d4:	29ffed1e 	bne	r5,r7,2c58c <__gedf2+0x74>
   2c5d8:	313ff336 	bltu	r6,r4,2c5a8 <__gedf2+0x90>
   2c5dc:	21bfeb36 	bltu	r4,r6,2c58c <__gedf2+0x74>
   2c5e0:	0005883a 	mov	r2,zero
   2c5e4:	f800283a 	ret
   2c5e8:	0005883a 	mov	r2,zero
   2c5ec:	403fee1e 	bne	r8,zero,2c5a8 <__gedf2+0x90>
   2c5f0:	f800283a 	ret
   2c5f4:	398eb03a 	or	r7,r7,r6
   2c5f8:	3800021e 	bne	r7,zero,2c604 <__gedf2+0xec>
   2c5fc:	58bff826 	beq	r11,r2,2c5e0 <__gedf2+0xc8>
   2c600:	003fe906 	br	2c5a8 <__gedf2+0x90>
   2c604:	00bfff84 	movi	r2,-2
   2c608:	f800283a 	ret
   2c60c:	58bff026 	beq	r11,r2,2c5d0 <__gedf2+0xb8>
   2c610:	003fe506 	br	2c5a8 <__gedf2+0x90>

0002c614 <__ledf2>:
   2c614:	2810d53a 	srli	r8,r5,20
   2c618:	3812d53a 	srli	r9,r7,20
   2c61c:	00c00434 	movhi	r3,16
   2c620:	4201ffcc 	andi	r8,r8,2047
   2c624:	18ffffc4 	addi	r3,r3,-1
   2c628:	4281ffd8 	cmpnei	r10,r8,2047
   2c62c:	2816d7fa 	srli	r11,r5,31
   2c630:	3804d7fa 	srli	r2,r7,31
   2c634:	28ca703a 	and	r5,r5,r3
   2c638:	38ce703a 	and	r7,r7,r3
   2c63c:	48c1ffcc 	andi	r3,r9,2047
   2c640:	50001426 	beq	r10,zero,2c694 <__ledf2+0x80>
   2c644:	1a41ffd8 	cmpnei	r9,r3,2047
   2c648:	48000926 	beq	r9,zero,2c670 <__ledf2+0x5c>
   2c64c:	4000191e 	bne	r8,zero,2c6b4 <__ledf2+0xa0>
   2c650:	2910b03a 	or	r8,r5,r4
   2c654:	1800221e 	bne	r3,zero,2c6e0 <__ledf2+0xcc>
   2c658:	3986b03a 	or	r3,r7,r6
   2c65c:	18002326 	beq	r3,zero,2c6ec <__ledf2+0xd8>
   2c660:	4000281e 	bne	r8,zero,2c704 <__ledf2+0xf0>
   2c664:	10000a1e 	bne	r2,zero,2c690 <__ledf2+0x7c>
   2c668:	00bfffc4 	movi	r2,-1
   2c66c:	f800283a 	ret
   2c670:	398eb03a 	or	r7,r7,r6
   2c674:	38000d1e 	bne	r7,zero,2c6ac <__ledf2+0x98>
   2c678:	4000021e 	bne	r8,zero,2c684 <__ledf2+0x70>
   2c67c:	290ab03a 	or	r5,r5,r4
   2c680:	283ff826 	beq	r5,zero,2c664 <__ledf2+0x50>
   2c684:	58801326 	beq	r11,r2,2c6d4 <__ledf2+0xc0>
   2c688:	00800044 	movi	r2,1
   2c68c:	583ff61e 	bne	r11,zero,2c668 <__ledf2+0x54>
   2c690:	f800283a 	ret
   2c694:	290ab03a 	or	r5,r5,r4
   2c698:	2800041e 	bne	r5,zero,2c6ac <__ledf2+0x98>
   2c69c:	1901ffe0 	cmpeqi	r4,r3,2047
   2c6a0:	203ff926 	beq	r4,zero,2c688 <__ledf2+0x74>
   2c6a4:	398eb03a 	or	r7,r7,r6
   2c6a8:	38001326 	beq	r7,zero,2c6f8 <__ledf2+0xe4>
   2c6ac:	00800084 	movi	r2,2
   2c6b0:	f800283a 	ret
   2c6b4:	183ff426 	beq	r3,zero,2c688 <__ledf2+0x74>
   2c6b8:	58bff31e 	bne	r11,r2,2c688 <__ledf2+0x74>
   2c6bc:	1a3ff216 	blt	r3,r8,2c688 <__ledf2+0x74>
   2c6c0:	40c00416 	blt	r8,r3,2c6d4 <__ledf2+0xc0>
   2c6c4:	397ff036 	bltu	r7,r5,2c688 <__ledf2+0x74>
   2c6c8:	29c0021e 	bne	r5,r7,2c6d4 <__ledf2+0xc0>
   2c6cc:	313fee36 	bltu	r6,r4,2c688 <__ledf2+0x74>
   2c6d0:	21800a2e 	bgeu	r4,r6,2c6fc <__ledf2+0xe8>
   2c6d4:	583fe426 	beq	r11,zero,2c668 <__ledf2+0x54>
   2c6d8:	5805883a 	mov	r2,r11
   2c6dc:	f800283a 	ret
   2c6e0:	403fe81e 	bne	r8,zero,2c684 <__ledf2+0x70>
   2c6e4:	103fea1e 	bne	r2,zero,2c690 <__ledf2+0x7c>
   2c6e8:	003fdf06 	br	2c668 <__ledf2+0x54>
   2c6ec:	0005883a 	mov	r2,zero
   2c6f0:	403fe726 	beq	r8,zero,2c690 <__ledf2+0x7c>
   2c6f4:	003fe406 	br	2c688 <__ledf2+0x74>
   2c6f8:	58bfe31e 	bne	r11,r2,2c688 <__ledf2+0x74>
   2c6fc:	0005883a 	mov	r2,zero
   2c700:	f800283a 	ret
   2c704:	58bfef26 	beq	r11,r2,2c6c4 <__ledf2+0xb0>
   2c708:	003fdf06 	br	2c688 <__ledf2+0x74>

0002c70c <__muldf3>:
   2c70c:	defff304 	addi	sp,sp,-52
   2c710:	2804d53a 	srli	r2,r5,20
   2c714:	df000b15 	stw	fp,44(sp)
   2c718:	2838d7fa 	srli	fp,r5,31
   2c71c:	00c00434 	movhi	r3,16
   2c720:	ddc00a15 	stw	r23,40(sp)
   2c724:	dd400815 	stw	r21,32(sp)
   2c728:	dc400415 	stw	r17,16(sp)
   2c72c:	dc000315 	stw	r16,12(sp)
   2c730:	18ffffc4 	addi	r3,r3,-1
   2c734:	dfc00c15 	stw	ra,48(sp)
   2c738:	dd800915 	stw	r22,36(sp)
   2c73c:	dd000715 	stw	r20,28(sp)
   2c740:	dcc00615 	stw	r19,24(sp)
   2c744:	dc800515 	stw	r18,20(sp)
   2c748:	1081ffcc 	andi	r2,r2,2047
   2c74c:	2021883a 	mov	r16,r4
   2c750:	382f883a 	mov	r23,r7
   2c754:	28e2703a 	and	r17,r5,r3
   2c758:	e02b883a 	mov	r21,fp
   2c75c:	10009126 	beq	r2,zero,2c9a4 <__muldf3+0x298>
   2c760:	10c1ffe0 	cmpeqi	r3,r2,2047
   2c764:	1800a41e 	bne	r3,zero,2c9f8 <__muldf3+0x2ec>
   2c768:	882290fa 	slli	r17,r17,3
   2c76c:	2006d77a 	srli	r3,r4,29
   2c770:	202890fa 	slli	r20,r4,3
   2c774:	14ff0044 	addi	r19,r2,-1023
   2c778:	1c62b03a 	or	r17,r3,r17
   2c77c:	8c402034 	orhi	r17,r17,128
   2c780:	0025883a 	mov	r18,zero
   2c784:	000f883a 	mov	r7,zero
   2c788:	b804d53a 	srli	r2,r23,20
   2c78c:	04000434 	movhi	r16,16
   2c790:	843fffc4 	addi	r16,r16,-1
   2c794:	1081ffcc 	andi	r2,r2,2047
   2c798:	b80ad7fa 	srli	r5,r23,31
   2c79c:	302d883a 	mov	r22,r6
   2c7a0:	bc20703a 	and	r16,r23,r16
   2c7a4:	10006526 	beq	r2,zero,2c93c <__muldf3+0x230>
   2c7a8:	10c1ffe0 	cmpeqi	r3,r2,2047
   2c7ac:	1800291e 	bne	r3,zero,2c854 <__muldf3+0x148>
   2c7b0:	3006d77a 	srli	r3,r6,29
   2c7b4:	800890fa 	slli	r4,r16,3
   2c7b8:	10bf0044 	addi	r2,r2,-1023
   2c7bc:	14c5883a 	add	r2,r2,r19
   2c7c0:	1920b03a 	or	r16,r3,r4
   2c7c4:	90c002c8 	cmpgei	r3,r18,11
   2c7c8:	302c90fa 	slli	r22,r6,3
   2c7cc:	84002034 	orhi	r16,r16,128
   2c7d0:	0009883a 	mov	r4,zero
   2c7d4:	14c00044 	addi	r19,r2,1
   2c7d8:	18002c1e 	bne	r3,zero,2c88c <__muldf3+0x180>
   2c7dc:	2f2af03a 	xor	r21,r5,fp
   2c7e0:	90c000c8 	cmpgei	r3,r18,3
   2c7e4:	1800251e 	bne	r3,zero,2c87c <__muldf3+0x170>
   2c7e8:	94bfffc4 	addi	r18,r18,-1
   2c7ec:	948000a8 	cmpgeui	r18,r18,2
   2c7f0:	9000cb1e 	bne	r18,zero,2cb20 <__muldf3+0x414>
   2c7f4:	208000a0 	cmpeqi	r2,r4,2
   2c7f8:	1000861e 	bne	r2,zero,2ca14 <__muldf3+0x308>
   2c7fc:	21000060 	cmpeqi	r4,r4,1
   2c800:	20002b26 	beq	r4,zero,2c8b0 <__muldf3+0x1a4>
   2c804:	0009883a 	mov	r4,zero
   2c808:	0021883a 	mov	r16,zero
   2c80c:	0029883a 	mov	r20,zero
   2c810:	2006953a 	slli	r3,r4,20
   2c814:	a82a97fa 	slli	r21,r21,31
   2c818:	a005883a 	mov	r2,r20
   2c81c:	1c06b03a 	or	r3,r3,r16
   2c820:	1d46b03a 	or	r3,r3,r21
   2c824:	dfc00c17 	ldw	ra,48(sp)
   2c828:	df000b17 	ldw	fp,44(sp)
   2c82c:	ddc00a17 	ldw	r23,40(sp)
   2c830:	dd800917 	ldw	r22,36(sp)
   2c834:	dd400817 	ldw	r21,32(sp)
   2c838:	dd000717 	ldw	r20,28(sp)
   2c83c:	dcc00617 	ldw	r19,24(sp)
   2c840:	dc800517 	ldw	r18,20(sp)
   2c844:	dc400417 	ldw	r17,16(sp)
   2c848:	dc000317 	ldw	r16,12(sp)
   2c84c:	dec00d04 	addi	sp,sp,52
   2c850:	f800283a 	ret
   2c854:	8186b03a 	or	r3,r16,r6
   2c858:	9881ffc4 	addi	r2,r19,2047
   2c85c:	18007726 	beq	r3,zero,2ca3c <__muldf3+0x330>
   2c860:	948000d4 	ori	r18,r18,3
   2c864:	90c002c8 	cmpgei	r3,r18,11
   2c868:	2f38f03a 	xor	fp,r5,fp
   2c86c:	9cc20004 	addi	r19,r19,2048
   2c870:	1801501e 	bne	r3,zero,2cdb4 <__muldf3+0x6a8>
   2c874:	e02b883a 	mov	r21,fp
   2c878:	010000c4 	movi	r4,3
   2c87c:	00c00044 	movi	r3,1
   2c880:	1c86983a 	sll	r3,r3,r18
   2c884:	19814c0c 	andi	r6,r3,1328
   2c888:	30002326 	beq	r6,zero,2c918 <__muldf3+0x20c>
   2c88c:	388000a0 	cmpeqi	r2,r7,2
   2c890:	1000601e 	bne	r2,zero,2ca14 <__muldf3+0x308>
   2c894:	388000e0 	cmpeqi	r2,r7,3
   2c898:	10010b1e 	bne	r2,zero,2ccc8 <__muldf3+0x5bc>
   2c89c:	3809883a 	mov	r4,r7
   2c8a0:	21000060 	cmpeqi	r4,r4,1
   2c8a4:	8821883a 	mov	r16,r17
   2c8a8:	a02d883a 	mov	r22,r20
   2c8ac:	203fd51e 	bne	r4,zero,2c804 <__muldf3+0xf8>
   2c8b0:	98c0ffc4 	addi	r3,r19,1023
   2c8b4:	00c07d0e 	bge	zero,r3,2caac <__muldf3+0x3a0>
   2c8b8:	b08001cc 	andi	r2,r22,7
   2c8bc:	10000726 	beq	r2,zero,2c8dc <__muldf3+0x1d0>
   2c8c0:	b08003cc 	andi	r2,r22,15
   2c8c4:	10800120 	cmpeqi	r2,r2,4
   2c8c8:	1000041e 	bne	r2,zero,2c8dc <__muldf3+0x1d0>
   2c8cc:	b0800104 	addi	r2,r22,4
   2c8d0:	15ad803a 	cmpltu	r22,r2,r22
   2c8d4:	85a1883a 	add	r16,r16,r22
   2c8d8:	102d883a 	mov	r22,r2
   2c8dc:	8080402c 	andhi	r2,r16,256
   2c8e0:	10000426 	beq	r2,zero,2c8f4 <__muldf3+0x1e8>
   2c8e4:	00bfc034 	movhi	r2,65280
   2c8e8:	10bfffc4 	addi	r2,r2,-1
   2c8ec:	80a0703a 	and	r16,r16,r2
   2c8f0:	98c10004 	addi	r3,r19,1024
   2c8f4:	1881ffc8 	cmpgei	r2,r3,2047
   2c8f8:	1000461e 	bne	r2,zero,2ca14 <__muldf3+0x308>
   2c8fc:	8028977a 	slli	r20,r16,29
   2c900:	b02cd0fa 	srli	r22,r22,3
   2c904:	8020927a 	slli	r16,r16,9
   2c908:	1901ffcc 	andi	r4,r3,2047
   2c90c:	a5a8b03a 	or	r20,r20,r22
   2c910:	8020d33a 	srli	r16,r16,12
   2c914:	003fbe06 	br	2c810 <__muldf3+0x104>
   2c918:	1980900c 	andi	r6,r3,576
   2c91c:	3000411e 	bne	r6,zero,2ca24 <__muldf3+0x318>
   2c920:	18c0220c 	andi	r3,r3,136
   2c924:	18007e26 	beq	r3,zero,2cb20 <__muldf3+0x414>
   2c928:	282b883a 	mov	r21,r5
   2c92c:	8023883a 	mov	r17,r16
   2c930:	b029883a 	mov	r20,r22
   2c934:	200f883a 	mov	r7,r4
   2c938:	003fd406 	br	2c88c <__muldf3+0x180>
   2c93c:	8184b03a 	or	r2,r16,r6
   2c940:	10005126 	beq	r2,zero,2ca88 <__muldf3+0x37c>
   2c944:	d9800215 	stw	r6,8(sp)
   2c948:	d9400115 	stw	r5,4(sp)
   2c94c:	d9c00015 	stw	r7,0(sp)
   2c950:	8000ec26 	beq	r16,zero,2cd04 <__muldf3+0x5f8>
   2c954:	8009883a 	mov	r4,r16
   2c958:	002d99c0 	call	2d99c <__clzsi2>
   2c95c:	d9c00017 	ldw	r7,0(sp)
   2c960:	d9400117 	ldw	r5,4(sp)
   2c964:	d9800217 	ldw	r6,8(sp)
   2c968:	113ffd44 	addi	r4,r2,-11
   2c96c:	00c00744 	movi	r3,29
   2c970:	15bffe04 	addi	r22,r2,-8
   2c974:	1907c83a 	sub	r3,r3,r4
   2c978:	85a0983a 	sll	r16,r16,r22
   2c97c:	30c6d83a 	srl	r3,r6,r3
   2c980:	35ac983a 	sll	r22,r6,r22
   2c984:	1c20b03a 	or	r16,r3,r16
   2c988:	9885c83a 	sub	r2,r19,r2
   2c98c:	10bf0344 	addi	r2,r2,-1011
   2c990:	90c002c8 	cmpgei	r3,r18,11
   2c994:	0009883a 	mov	r4,zero
   2c998:	14c00044 	addi	r19,r2,1
   2c99c:	183f8f26 	beq	r3,zero,2c7dc <__muldf3+0xd0>
   2c9a0:	003fba06 	br	2c88c <__muldf3+0x180>
   2c9a4:	2468b03a 	or	r20,r4,r17
   2c9a8:	a0003226 	beq	r20,zero,2ca74 <__muldf3+0x368>
   2c9ac:	d9800015 	stw	r6,0(sp)
   2c9b0:	8800ca26 	beq	r17,zero,2ccdc <__muldf3+0x5d0>
   2c9b4:	8809883a 	mov	r4,r17
   2c9b8:	002d99c0 	call	2d99c <__clzsi2>
   2c9bc:	d9800017 	ldw	r6,0(sp)
   2c9c0:	1009883a 	mov	r4,r2
   2c9c4:	117ffd44 	addi	r5,r2,-11
   2c9c8:	00c00744 	movi	r3,29
   2c9cc:	253ffe04 	addi	r20,r4,-8
   2c9d0:	1947c83a 	sub	r3,r3,r5
   2c9d4:	8d22983a 	sll	r17,r17,r20
   2c9d8:	80c6d83a 	srl	r3,r16,r3
   2c9dc:	8528983a 	sll	r20,r16,r20
   2c9e0:	1c62b03a 	or	r17,r3,r17
   2c9e4:	00bf0344 	movi	r2,-1011
   2c9e8:	1127c83a 	sub	r19,r2,r4
   2c9ec:	0025883a 	mov	r18,zero
   2c9f0:	000f883a 	mov	r7,zero
   2c9f4:	003f6406 	br	2c788 <__muldf3+0x7c>
   2c9f8:	2468b03a 	or	r20,r4,r17
   2c9fc:	a000181e 	bne	r20,zero,2ca60 <__muldf3+0x354>
   2ca00:	0023883a 	mov	r17,zero
   2ca04:	04800204 	movi	r18,8
   2ca08:	04c1ffc4 	movi	r19,2047
   2ca0c:	01c00084 	movi	r7,2
   2ca10:	003f5d06 	br	2c788 <__muldf3+0x7c>
   2ca14:	0101ffc4 	movi	r4,2047
   2ca18:	0021883a 	mov	r16,zero
   2ca1c:	0029883a 	mov	r20,zero
   2ca20:	003f7b06 	br	2c810 <__muldf3+0x104>
   2ca24:	04000434 	movhi	r16,16
   2ca28:	002b883a 	mov	r21,zero
   2ca2c:	843fffc4 	addi	r16,r16,-1
   2ca30:	053fffc4 	movi	r20,-1
   2ca34:	0101ffc4 	movi	r4,2047
   2ca38:	003f7506 	br	2c810 <__muldf3+0x104>
   2ca3c:	94800094 	ori	r18,r18,2
   2ca40:	90c002c8 	cmpgei	r3,r18,11
   2ca44:	9cc20004 	addi	r19,r19,2048
   2ca48:	183f901e 	bne	r3,zero,2c88c <__muldf3+0x180>
   2ca4c:	2f2af03a 	xor	r21,r5,fp
   2ca50:	002d883a 	mov	r22,zero
   2ca54:	0021883a 	mov	r16,zero
   2ca58:	01000084 	movi	r4,2
   2ca5c:	003f6006 	br	2c7e0 <__muldf3+0xd4>
   2ca60:	2029883a 	mov	r20,r4
   2ca64:	04800304 	movi	r18,12
   2ca68:	04c1ffc4 	movi	r19,2047
   2ca6c:	01c000c4 	movi	r7,3
   2ca70:	003f4506 	br	2c788 <__muldf3+0x7c>
   2ca74:	0023883a 	mov	r17,zero
   2ca78:	04800104 	movi	r18,4
   2ca7c:	0027883a 	mov	r19,zero
   2ca80:	01c00044 	movi	r7,1
   2ca84:	003f4006 	br	2c788 <__muldf3+0x7c>
   2ca88:	94800054 	ori	r18,r18,1
   2ca8c:	9805883a 	mov	r2,r19
   2ca90:	90c002c8 	cmpgei	r3,r18,11
   2ca94:	0021883a 	mov	r16,zero
   2ca98:	002d883a 	mov	r22,zero
   2ca9c:	01000044 	movi	r4,1
   2caa0:	14c00044 	addi	r19,r2,1
   2caa4:	183f4d26 	beq	r3,zero,2c7dc <__muldf3+0xd0>
   2caa8:	003f7806 	br	2c88c <__muldf3+0x180>
   2caac:	01000044 	movi	r4,1
   2cab0:	20c9c83a 	sub	r4,r4,r3
   2cab4:	20800e48 	cmpgei	r2,r4,57
   2cab8:	103f521e 	bne	r2,zero,2c804 <__muldf3+0xf8>
   2cabc:	20800808 	cmpgei	r2,r4,32
   2cac0:	1000a11e 	bne	r2,zero,2cd48 <__muldf3+0x63c>
   2cac4:	9cc10784 	addi	r19,r19,1054
   2cac8:	b104d83a 	srl	r2,r22,r4
   2cacc:	84e8983a 	sll	r20,r16,r19
   2cad0:	b4e6983a 	sll	r19,r22,r19
   2cad4:	8108d83a 	srl	r4,r16,r4
   2cad8:	a0a8b03a 	or	r20,r20,r2
   2cadc:	9826c03a 	cmpne	r19,r19,zero
   2cae0:	a4e8b03a 	or	r20,r20,r19
   2cae4:	a08001cc 	andi	r2,r20,7
   2cae8:	10000726 	beq	r2,zero,2cb08 <__muldf3+0x3fc>
   2caec:	a08003cc 	andi	r2,r20,15
   2caf0:	10800120 	cmpeqi	r2,r2,4
   2caf4:	1000041e 	bne	r2,zero,2cb08 <__muldf3+0x3fc>
   2caf8:	a0800104 	addi	r2,r20,4
   2cafc:	1529803a 	cmpltu	r20,r2,r20
   2cb00:	2509883a 	add	r4,r4,r20
   2cb04:	1029883a 	mov	r20,r2
   2cb08:	2080202c 	andhi	r2,r4,128
   2cb0c:	1000a526 	beq	r2,zero,2cda4 <__muldf3+0x698>
   2cb10:	01000044 	movi	r4,1
   2cb14:	0021883a 	mov	r16,zero
   2cb18:	0029883a 	mov	r20,zero
   2cb1c:	003f3c06 	br	2c810 <__muldf3+0x104>
   2cb20:	a018d43a 	srli	r12,r20,16
   2cb24:	b010d43a 	srli	r8,r22,16
   2cb28:	a53fffcc 	andi	r20,r20,65535
   2cb2c:	b5bfffcc 	andi	r22,r22,65535
   2cb30:	b509383a 	mul	r4,r22,r20
   2cb34:	658d383a 	mul	r6,r12,r22
   2cb38:	450b383a 	mul	r5,r8,r20
   2cb3c:	2006d43a 	srli	r3,r4,16
   2cb40:	620f383a 	mul	r7,r12,r8
   2cb44:	298b883a 	add	r5,r5,r6
   2cb48:	1947883a 	add	r3,r3,r5
   2cb4c:	1980022e 	bgeu	r3,r6,2cb58 <__muldf3+0x44c>
   2cb50:	01400074 	movhi	r5,1
   2cb54:	394f883a 	add	r7,r7,r5
   2cb58:	8014d43a 	srli	r10,r16,16
   2cb5c:	843fffcc 	andi	r16,r16,65535
   2cb60:	8517383a 	mul	r11,r16,r20
   2cb64:	641b383a 	mul	r13,r12,r16
   2cb68:	5529383a 	mul	r20,r10,r20
   2cb6c:	580ad43a 	srli	r5,r11,16
   2cb70:	180c943a 	slli	r6,r3,16
   2cb74:	a369883a 	add	r20,r20,r13
   2cb78:	227fffcc 	andi	r9,r4,65535
   2cb7c:	2d0b883a 	add	r5,r5,r20
   2cb80:	1808d43a 	srli	r4,r3,16
   2cb84:	6299383a 	mul	r12,r12,r10
   2cb88:	324d883a 	add	r6,r6,r9
   2cb8c:	2b40022e 	bgeu	r5,r13,2cb98 <__muldf3+0x48c>
   2cb90:	00c00074 	movhi	r3,1
   2cb94:	60d9883a 	add	r12,r12,r3
   2cb98:	881ad43a 	srli	r13,r17,16
   2cb9c:	8c7fffcc 	andi	r17,r17,65535
   2cba0:	b45f383a 	mul	r15,r22,r17
   2cba4:	445d383a 	mul	r14,r8,r17
   2cba8:	6dad383a 	mul	r22,r13,r22
   2cbac:	2812943a 	slli	r9,r5,16
   2cbb0:	7806d43a 	srli	r3,r15,16
   2cbb4:	280ad43a 	srli	r5,r5,16
   2cbb8:	5affffcc 	andi	r11,r11,65535
   2cbbc:	759d883a 	add	r14,r14,r22
   2cbc0:	4ad3883a 	add	r9,r9,r11
   2cbc4:	1b87883a 	add	r3,r3,r14
   2cbc8:	4365383a 	mul	r18,r8,r13
   2cbcc:	2b17883a 	add	r11,r5,r12
   2cbd0:	2249883a 	add	r4,r4,r9
   2cbd4:	1d80022e 	bgeu	r3,r22,2cbe0 <__muldf3+0x4d4>
   2cbd8:	01400074 	movhi	r5,1
   2cbdc:	9165883a 	add	r18,r18,r5
   2cbe0:	8459383a 	mul	r12,r16,r17
   2cbe4:	5463383a 	mul	r17,r10,r17
   2cbe8:	6c21383a 	mul	r16,r13,r16
   2cbec:	6010d43a 	srli	r8,r12,16
   2cbf0:	181cd43a 	srli	r14,r3,16
   2cbf4:	180a943a 	slli	r5,r3,16
   2cbf8:	8c23883a 	add	r17,r17,r16
   2cbfc:	78ffffcc 	andi	r3,r15,65535
   2cc00:	4451883a 	add	r8,r8,r17
   2cc04:	5355383a 	mul	r10,r10,r13
   2cc08:	749d883a 	add	r14,r14,r18
   2cc0c:	28cb883a 	add	r5,r5,r3
   2cc10:	4400022e 	bgeu	r8,r16,2cc1c <__muldf3+0x510>
   2cc14:	00c00074 	movhi	r3,1
   2cc18:	50d5883a 	add	r10,r10,r3
   2cc1c:	4006943a 	slli	r3,r8,16
   2cc20:	633fffcc 	andi	r12,r12,65535
   2cc24:	21c9883a 	add	r4,r4,r7
   2cc28:	1b07883a 	add	r3,r3,r12
   2cc2c:	2253803a 	cmpltu	r9,r4,r9
   2cc30:	1ac7883a 	add	r3,r3,r11
   2cc34:	2149883a 	add	r4,r4,r5
   2cc38:	1a5b883a 	add	r13,r3,r9
   2cc3c:	214b803a 	cmpltu	r5,r4,r5
   2cc40:	6b8f883a 	add	r7,r13,r14
   2cc44:	4010d43a 	srli	r8,r8,16
   2cc48:	3959883a 	add	r12,r7,r5
   2cc4c:	1ae1803a 	cmpltu	r16,r3,r11
   2cc50:	6a5b803a 	cmpltu	r13,r13,r9
   2cc54:	614b803a 	cmpltu	r5,r12,r5
   2cc58:	8360b03a 	or	r16,r16,r13
   2cc5c:	3b8f803a 	cmpltu	r7,r7,r14
   2cc60:	394eb03a 	or	r7,r7,r5
   2cc64:	8221883a 	add	r16,r16,r8
   2cc68:	202c927a 	slli	r22,r4,9
   2cc6c:	81e1883a 	add	r16,r16,r7
   2cc70:	82a1883a 	add	r16,r16,r10
   2cc74:	8020927a 	slli	r16,r16,9
   2cc78:	2008d5fa 	srli	r4,r4,23
   2cc7c:	600ad5fa 	srli	r5,r12,23
   2cc80:	6006927a 	slli	r3,r12,9
   2cc84:	b1acb03a 	or	r22,r22,r6
   2cc88:	b02cc03a 	cmpne	r22,r22,zero
   2cc8c:	b12cb03a 	or	r22,r22,r4
   2cc90:	8100402c 	andhi	r4,r16,256
   2cc94:	b0ecb03a 	or	r22,r22,r3
   2cc98:	8160b03a 	or	r16,r16,r5
   2cc9c:	20002826 	beq	r4,zero,2cd40 <__muldf3+0x634>
   2cca0:	b006d07a 	srli	r3,r22,1
   2cca4:	800497fa 	slli	r2,r16,31
   2cca8:	b580004c 	andi	r22,r22,1
   2ccac:	1d86b03a 	or	r3,r3,r22
   2ccb0:	8020d07a 	srli	r16,r16,1
   2ccb4:	18acb03a 	or	r22,r3,r2
   2ccb8:	003efd06 	br	2c8b0 <__muldf3+0x1a4>
   2ccbc:	282b883a 	mov	r21,r5
   2ccc0:	8023883a 	mov	r17,r16
   2ccc4:	3029883a 	mov	r20,r6
   2ccc8:	00800434 	movhi	r2,16
   2cccc:	8c000234 	orhi	r16,r17,8
   2ccd0:	10bfffc4 	addi	r2,r2,-1
   2ccd4:	80a0703a 	and	r16,r16,r2
   2ccd8:	003f5606 	br	2ca34 <__muldf3+0x328>
   2ccdc:	002d99c0 	call	2d99c <__clzsi2>
   2cce0:	11400544 	addi	r5,r2,21
   2cce4:	28c00748 	cmpgei	r3,r5,29
   2cce8:	d9800017 	ldw	r6,0(sp)
   2ccec:	11000804 	addi	r4,r2,32
   2ccf0:	183f3526 	beq	r3,zero,2c9c8 <__muldf3+0x2bc>
   2ccf4:	10bffe04 	addi	r2,r2,-8
   2ccf8:	80a2983a 	sll	r17,r16,r2
   2ccfc:	0029883a 	mov	r20,zero
   2cd00:	003f3806 	br	2c9e4 <__muldf3+0x2d8>
   2cd04:	3009883a 	mov	r4,r6
   2cd08:	002d99c0 	call	2d99c <__clzsi2>
   2cd0c:	11000544 	addi	r4,r2,21
   2cd10:	22000748 	cmpgei	r8,r4,29
   2cd14:	1007883a 	mov	r3,r2
   2cd18:	d9c00017 	ldw	r7,0(sp)
   2cd1c:	d9400117 	ldw	r5,4(sp)
   2cd20:	d9800217 	ldw	r6,8(sp)
   2cd24:	10800804 	addi	r2,r2,32
   2cd28:	403f1026 	beq	r8,zero,2c96c <__muldf3+0x260>
   2cd2c:	18fffe04 	addi	r3,r3,-8
   2cd30:	b0c6983a 	sll	r3,r22,r3
   2cd34:	002d883a 	mov	r22,zero
   2cd38:	1821883a 	mov	r16,r3
   2cd3c:	003f1206 	br	2c988 <__muldf3+0x27c>
   2cd40:	1027883a 	mov	r19,r2
   2cd44:	003eda06 	br	2c8b0 <__muldf3+0x1a4>
   2cd48:	00bff844 	movi	r2,-31
   2cd4c:	10c7c83a 	sub	r3,r2,r3
   2cd50:	21000820 	cmpeqi	r4,r4,32
   2cd54:	80c6d83a 	srl	r3,r16,r3
   2cd58:	2000031e 	bne	r4,zero,2cd68 <__muldf3+0x65c>
   2cd5c:	9cc10f84 	addi	r19,r19,1086
   2cd60:	84e6983a 	sll	r19,r16,r19
   2cd64:	b4ecb03a 	or	r22,r22,r19
   2cd68:	b028c03a 	cmpne	r20,r22,zero
   2cd6c:	a0e8b03a 	or	r20,r20,r3
   2cd70:	a08001cc 	andi	r2,r20,7
   2cd74:	1000051e 	bne	r2,zero,2cd8c <__muldf3+0x680>
   2cd78:	0021883a 	mov	r16,zero
   2cd7c:	a028d0fa 	srli	r20,r20,3
   2cd80:	0009883a 	mov	r4,zero
   2cd84:	a0a8b03a 	or	r20,r20,r2
   2cd88:	003ea106 	br	2c810 <__muldf3+0x104>
   2cd8c:	a08003cc 	andi	r2,r20,15
   2cd90:	10800120 	cmpeqi	r2,r2,4
   2cd94:	1000111e 	bne	r2,zero,2cddc <__muldf3+0x6d0>
   2cd98:	a0800104 	addi	r2,r20,4
   2cd9c:	1509803a 	cmpltu	r4,r2,r20
   2cda0:	1029883a 	mov	r20,r2
   2cda4:	2020927a 	slli	r16,r4,9
   2cda8:	2004977a 	slli	r2,r4,29
   2cdac:	8020d33a 	srli	r16,r16,12
   2cdb0:	003ff206 	br	2cd7c <__muldf3+0x670>
   2cdb4:	948003e0 	cmpeqi	r18,r18,15
   2cdb8:	903fc026 	beq	r18,zero,2ccbc <__muldf3+0x5b0>
   2cdbc:	8880022c 	andhi	r2,r17,8
   2cdc0:	103fc126 	beq	r2,zero,2ccc8 <__muldf3+0x5bc>
   2cdc4:	b9c0022c 	andhi	r7,r23,8
   2cdc8:	383fbf1e 	bne	r7,zero,2ccc8 <__muldf3+0x5bc>
   2cdcc:	84000234 	orhi	r16,r16,8
   2cdd0:	282b883a 	mov	r21,r5
   2cdd4:	3029883a 	mov	r20,r6
   2cdd8:	003f1606 	br	2ca34 <__muldf3+0x328>
   2cddc:	0009883a 	mov	r4,zero
   2cde0:	003ff006 	br	2cda4 <__muldf3+0x698>

0002cde4 <__subdf3>:
   2cde4:	00800434 	movhi	r2,16
   2cde8:	3806d53a 	srli	r3,r7,20
   2cdec:	10bfffc4 	addi	r2,r2,-1
   2cdf0:	defffa04 	addi	sp,sp,-24
   2cdf4:	2890703a 	and	r8,r5,r2
   2cdf8:	3884703a 	and	r2,r7,r2
   2cdfc:	2812d7fa 	srli	r9,r5,31
   2ce00:	401090fa 	slli	r8,r8,3
   2ce04:	280ad53a 	srli	r5,r5,20
   2ce08:	100490fa 	slli	r2,r2,3
   2ce0c:	3016d77a 	srli	r11,r6,29
   2ce10:	dc400115 	stw	r17,4(sp)
   2ce14:	2022d77a 	srli	r17,r4,29
   2ce18:	18c1ffcc 	andi	r3,r3,2047
   2ce1c:	dd000415 	stw	r20,16(sp)
   2ce20:	dcc00315 	stw	r19,12(sp)
   2ce24:	dc000015 	stw	r16,0(sp)
   2ce28:	dfc00515 	stw	ra,20(sp)
   2ce2c:	dc800215 	stw	r18,8(sp)
   2ce30:	1a81ffd8 	cmpnei	r10,r3,2047
   2ce34:	2c01ffcc 	andi	r16,r5,2047
   2ce38:	380ed7fa 	srli	r7,r7,31
   2ce3c:	201890fa 	slli	r12,r4,3
   2ce40:	301a90fa 	slli	r13,r6,3
   2ce44:	4829883a 	mov	r20,r9
   2ce48:	4cc03fcc 	andi	r19,r9,255
   2ce4c:	8a22b03a 	or	r17,r17,r8
   2ce50:	588ab03a 	or	r5,r11,r2
   2ce54:	50007126 	beq	r10,zero,2d01c <__subdf3+0x238>
   2ce58:	39c0005c 	xori	r7,r7,1
   2ce5c:	3813883a 	mov	r9,r7
   2ce60:	3a803fcc 	andi	r10,r7,255
   2ce64:	80d1c83a 	sub	r8,r16,r3
   2ce68:	99c05526 	beq	r19,r7,2cfc0 <__subdf3+0x1dc>
   2ce6c:	0202320e 	bge	zero,r8,2d738 <__subdf3+0x954>
   2ce70:	18008426 	beq	r3,zero,2d084 <__subdf3+0x2a0>
   2ce74:	8081ffe0 	cmpeqi	r2,r16,2047
   2ce78:	10011b1e 	bne	r2,zero,2d2e8 <__subdf3+0x504>
   2ce7c:	40800e48 	cmpgei	r2,r8,57
   2ce80:	1000881e 	bne	r2,zero,2d0a4 <__subdf3+0x2c0>
   2ce84:	29402034 	orhi	r5,r5,128
   2ce88:	40800808 	cmpgei	r2,r8,32
   2ce8c:	1001451e 	bne	r2,zero,2d3a4 <__subdf3+0x5c0>
   2ce90:	00800804 	movi	r2,32
   2ce94:	1205c83a 	sub	r2,r2,r8
   2ce98:	28a4983a 	sll	r18,r5,r2
   2ce9c:	6a06d83a 	srl	r3,r13,r8
   2cea0:	6884983a 	sll	r2,r13,r2
   2cea4:	2a10d83a 	srl	r8,r5,r8
   2cea8:	90e4b03a 	or	r18,r18,r3
   2ceac:	1004c03a 	cmpne	r2,r2,zero
   2ceb0:	90a4b03a 	or	r18,r18,r2
   2ceb4:	8a23c83a 	sub	r17,r17,r8
   2ceb8:	64a5c83a 	sub	r18,r12,r18
   2cebc:	6485803a 	cmpltu	r2,r12,r18
   2cec0:	88a3c83a 	sub	r17,r17,r2
   2cec4:	8880202c 	andhi	r2,r17,128
   2cec8:	1000ae26 	beq	r2,zero,2d184 <__subdf3+0x3a0>
   2cecc:	00802034 	movhi	r2,128
   2ced0:	10bfffc4 	addi	r2,r2,-1
   2ced4:	88a2703a 	and	r17,r17,r2
   2ced8:	8800de26 	beq	r17,zero,2d254 <__subdf3+0x470>
   2cedc:	8809883a 	mov	r4,r17
   2cee0:	002d99c0 	call	2d99c <__clzsi2>
   2cee4:	10fffe04 	addi	r3,r2,-8
   2cee8:	01000804 	movi	r4,32
   2ceec:	20c5c83a 	sub	r2,r4,r3
   2cef0:	9084d83a 	srl	r2,r18,r2
   2cef4:	88e2983a 	sll	r17,r17,r3
   2cef8:	90e4983a 	sll	r18,r18,r3
   2cefc:	1444b03a 	or	r2,r2,r17
   2cf00:	1c010516 	blt	r3,r16,2d318 <__subdf3+0x534>
   2cf04:	1c07c83a 	sub	r3,r3,r16
   2cf08:	18c00044 	addi	r3,r3,1
   2cf0c:	20c9c83a 	sub	r4,r4,r3
   2cf10:	910a983a 	sll	r5,r18,r4
   2cf14:	90e2d83a 	srl	r17,r18,r3
   2cf18:	280ac03a 	cmpne	r5,r5,zero
   2cf1c:	1108983a 	sll	r4,r2,r4
   2cf20:	894ab03a 	or	r5,r17,r5
   2cf24:	10e2d83a 	srl	r17,r2,r3
   2cf28:	0021883a 	mov	r16,zero
   2cf2c:	2164b03a 	or	r18,r4,r5
   2cf30:	908001cc 	andi	r2,r18,7
   2cf34:	10000726 	beq	r2,zero,2cf54 <__subdf3+0x170>
   2cf38:	908003cc 	andi	r2,r18,15
   2cf3c:	10800120 	cmpeqi	r2,r2,4
   2cf40:	1000041e 	bne	r2,zero,2cf54 <__subdf3+0x170>
   2cf44:	90800104 	addi	r2,r18,4
   2cf48:	14a5803a 	cmpltu	r18,r2,r18
   2cf4c:	8ca3883a 	add	r17,r17,r18
   2cf50:	1025883a 	mov	r18,r2
   2cf54:	8880202c 	andhi	r2,r17,128
   2cf58:	1000d726 	beq	r2,zero,2d2b8 <__subdf3+0x4d4>
   2cf5c:	8081ffa0 	cmpeqi	r2,r16,2046
   2cf60:	84000044 	addi	r16,r16,1
   2cf64:	10007c1e 	bne	r2,zero,2d158 <__subdf3+0x374>
   2cf68:	013fe034 	movhi	r4,65408
   2cf6c:	213fffc4 	addi	r4,r4,-1
   2cf70:	8908703a 	and	r4,r17,r4
   2cf74:	2004977a 	slli	r2,r4,29
   2cf78:	2008927a 	slli	r4,r4,9
   2cf7c:	9024d0fa 	srli	r18,r18,3
   2cf80:	80c1ffcc 	andi	r3,r16,2047
   2cf84:	2008d33a 	srli	r4,r4,12
   2cf88:	1484b03a 	or	r2,r2,r18
   2cf8c:	9d00004c 	andi	r20,r19,1
   2cf90:	1806953a 	slli	r3,r3,20
   2cf94:	a02897fa 	slli	r20,r20,31
   2cf98:	1906b03a 	or	r3,r3,r4
   2cf9c:	1d06b03a 	or	r3,r3,r20
   2cfa0:	dfc00517 	ldw	ra,20(sp)
   2cfa4:	dd000417 	ldw	r20,16(sp)
   2cfa8:	dcc00317 	ldw	r19,12(sp)
   2cfac:	dc800217 	ldw	r18,8(sp)
   2cfb0:	dc400117 	ldw	r17,4(sp)
   2cfb4:	dc000017 	ldw	r16,0(sp)
   2cfb8:	dec00604 	addi	sp,sp,24
   2cfbc:	f800283a 	ret
   2cfc0:	0201e60e 	bge	zero,r8,2d75c <__subdf3+0x978>
   2cfc4:	18004d1e 	bne	r3,zero,2d0fc <__subdf3+0x318>
   2cfc8:	2b44b03a 	or	r2,r5,r13
   2cfcc:	1000d026 	beq	r2,zero,2d310 <__subdf3+0x52c>
   2cfd0:	823fffc4 	addi	r8,r16,-1
   2cfd4:	40006426 	beq	r8,zero,2d168 <__subdf3+0x384>
   2cfd8:	8081ffe0 	cmpeqi	r2,r16,2047
   2cfdc:	10018e1e 	bne	r2,zero,2d618 <__subdf3+0x834>
   2cfe0:	40800e48 	cmpgei	r2,r8,57
   2cfe4:	1000491e 	bne	r2,zero,2d10c <__subdf3+0x328>
   2cfe8:	40800808 	cmpgei	r2,r8,32
   2cfec:	1001431e 	bne	r2,zero,2d4fc <__subdf3+0x718>
   2cff0:	00800804 	movi	r2,32
   2cff4:	1205c83a 	sub	r2,r2,r8
   2cff8:	28a4983a 	sll	r18,r5,r2
   2cffc:	6a06d83a 	srl	r3,r13,r8
   2d000:	6884983a 	sll	r2,r13,r2
   2d004:	2a10d83a 	srl	r8,r5,r8
   2d008:	90e4b03a 	or	r18,r18,r3
   2d00c:	1004c03a 	cmpne	r2,r2,zero
   2d010:	90a4b03a 	or	r18,r18,r2
   2d014:	8a23883a 	add	r17,r17,r8
   2d018:	00003d06 	br	2d110 <__subdf3+0x32c>
   2d01c:	2b44b03a 	or	r2,r5,r13
   2d020:	823e0044 	addi	r8,r16,-2047
   2d024:	1000211e 	bne	r2,zero,2d0ac <__subdf3+0x2c8>
   2d028:	39c0005c 	xori	r7,r7,1
   2d02c:	3813883a 	mov	r9,r7
   2d030:	3a803fcc 	andi	r10,r7,255
   2d034:	99c06b26 	beq	r19,r7,2d1e4 <__subdf3+0x400>
   2d038:	40005526 	beq	r8,zero,2d190 <__subdf3+0x3ac>
   2d03c:	8000201e 	bne	r16,zero,2d0c0 <__subdf3+0x2dc>
   2d040:	0401ffc4 	movi	r16,2047
   2d044:	8b04b03a 	or	r2,r17,r12
   2d048:	1000ae26 	beq	r2,zero,2d304 <__subdf3+0x520>
   2d04c:	80bfffc4 	addi	r2,r16,-1
   2d050:	10015e26 	beq	r2,zero,2d5cc <__subdf3+0x7e8>
   2d054:	8401ffe0 	cmpeqi	r16,r16,2047
   2d058:	8001801e 	bne	r16,zero,2d65c <__subdf3+0x878>
   2d05c:	11000e48 	cmpgei	r4,r2,57
   2d060:	5027883a 	mov	r19,r10
   2d064:	4829883a 	mov	r20,r9
   2d068:	20011326 	beq	r4,zero,2d4b8 <__subdf3+0x6d4>
   2d06c:	04800044 	movi	r18,1
   2d070:	6ca5c83a 	sub	r18,r13,r18
   2d074:	6c9b803a 	cmpltu	r13,r13,r18
   2d078:	2b63c83a 	sub	r17,r5,r13
   2d07c:	1821883a 	mov	r16,r3
   2d080:	003f9006 	br	2cec4 <__subdf3+0xe0>
   2d084:	2b44b03a 	or	r2,r5,r13
   2d088:	1000a126 	beq	r2,zero,2d310 <__subdf3+0x52c>
   2d08c:	823fffc4 	addi	r8,r16,-1
   2d090:	4000fe26 	beq	r8,zero,2d48c <__subdf3+0x6a8>
   2d094:	8081ffe0 	cmpeqi	r2,r16,2047
   2d098:	1000931e 	bne	r2,zero,2d2e8 <__subdf3+0x504>
   2d09c:	40800e48 	cmpgei	r2,r8,57
   2d0a0:	103f7926 	beq	r2,zero,2ce88 <__subdf3+0xa4>
   2d0a4:	04800044 	movi	r18,1
   2d0a8:	003f8306 	br	2ceb8 <__subdf3+0xd4>
   2d0ac:	3a803fcc 	andi	r10,r7,255
   2d0b0:	99c04c26 	beq	r19,r7,2d1e4 <__subdf3+0x400>
   2d0b4:	40003626 	beq	r8,zero,2d190 <__subdf3+0x3ac>
   2d0b8:	3813883a 	mov	r9,r7
   2d0bc:	803fe026 	beq	r16,zero,2d040 <__subdf3+0x25c>
   2d0c0:	2804977a 	slli	r2,r5,29
   2d0c4:	00c80034 	movhi	r3,8192
   2d0c8:	18ffffc4 	addi	r3,r3,-1
   2d0cc:	280ad0fa 	srli	r5,r5,3
   2d0d0:	30c6703a 	and	r3,r6,r3
   2d0d4:	10c4b03a 	or	r2,r2,r3
   2d0d8:	4829883a 	mov	r20,r9
   2d0dc:	1146b03a 	or	r3,r2,r5
   2d0e0:	18019126 	beq	r3,zero,2d728 <__subdf3+0x944>
   2d0e4:	00c00434 	movhi	r3,16
   2d0e8:	18ffffc4 	addi	r3,r3,-1
   2d0ec:	29000234 	orhi	r4,r5,8
   2d0f0:	20c8703a 	and	r4,r4,r3
   2d0f4:	00c1ffc4 	movi	r3,2047
   2d0f8:	003fa506 	br	2cf90 <__subdf3+0x1ac>
   2d0fc:	8081ffe0 	cmpeqi	r2,r16,2047
   2d100:	1000791e 	bne	r2,zero,2d2e8 <__subdf3+0x504>
   2d104:	40800e48 	cmpgei	r2,r8,57
   2d108:	1000b126 	beq	r2,zero,2d3d0 <__subdf3+0x5ec>
   2d10c:	04800044 	movi	r18,1
   2d110:	9325883a 	add	r18,r18,r12
   2d114:	9305803a 	cmpltu	r2,r18,r12
   2d118:	88a3883a 	add	r17,r17,r2
   2d11c:	8880202c 	andhi	r2,r17,128
   2d120:	10001826 	beq	r2,zero,2d184 <__subdf3+0x3a0>
   2d124:	84000044 	addi	r16,r16,1
   2d128:	8081ffe0 	cmpeqi	r2,r16,2047
   2d12c:	10000a1e 	bne	r2,zero,2d158 <__subdf3+0x374>
   2d130:	00bfe034 	movhi	r2,65408
   2d134:	10bfffc4 	addi	r2,r2,-1
   2d138:	9006d07a 	srli	r3,r18,1
   2d13c:	8884703a 	and	r2,r17,r2
   2d140:	100897fa 	slli	r4,r2,31
   2d144:	9480004c 	andi	r18,r18,1
   2d148:	1c86b03a 	or	r3,r3,r18
   2d14c:	1022d07a 	srli	r17,r2,1
   2d150:	20e4b03a 	or	r18,r4,r3
   2d154:	003f7606 	br	2cf30 <__subdf3+0x14c>
   2d158:	00c1ffc4 	movi	r3,2047
   2d15c:	0009883a 	mov	r4,zero
   2d160:	0005883a 	mov	r2,zero
   2d164:	003f8a06 	br	2cf90 <__subdf3+0x1ac>
   2d168:	6365883a 	add	r18,r12,r13
   2d16c:	894b883a 	add	r5,r17,r5
   2d170:	9305803a 	cmpltu	r2,r18,r12
   2d174:	28a3883a 	add	r17,r5,r2
   2d178:	8880202c 	andhi	r2,r17,128
   2d17c:	1001241e 	bne	r2,zero,2d610 <__subdf3+0x82c>
   2d180:	04000044 	movi	r16,1
   2d184:	908001cc 	andi	r2,r18,7
   2d188:	103f6b1e 	bne	r2,zero,2cf38 <__subdf3+0x154>
   2d18c:	00007906 	br	2d374 <__subdf3+0x590>
   2d190:	80800044 	addi	r2,r16,1
   2d194:	1081ff8c 	andi	r2,r2,2046
   2d198:	1000781e 	bne	r2,zero,2d37c <__subdf3+0x598>
   2d19c:	2b44b03a 	or	r2,r5,r13
   2d1a0:	8b06b03a 	or	r3,r17,r12
   2d1a4:	8000af1e 	bne	r16,zero,2d464 <__subdf3+0x680>
   2d1a8:	18011026 	beq	r3,zero,2d5ec <__subdf3+0x808>
   2d1ac:	1000de26 	beq	r2,zero,2d528 <__subdf3+0x744>
   2d1b0:	6365c83a 	sub	r18,r12,r13
   2d1b4:	6485803a 	cmpltu	r2,r12,r18
   2d1b8:	8947c83a 	sub	r3,r17,r5
   2d1bc:	1887c83a 	sub	r3,r3,r2
   2d1c0:	1880202c 	andhi	r2,r3,128
   2d1c4:	10014426 	beq	r2,zero,2d6d8 <__subdf3+0x8f4>
   2d1c8:	6b25c83a 	sub	r18,r13,r12
   2d1cc:	2c4bc83a 	sub	r5,r5,r17
   2d1d0:	6c9b803a 	cmpltu	r13,r13,r18
   2d1d4:	2b63c83a 	sub	r17,r5,r13
   2d1d8:	5029883a 	mov	r20,r10
   2d1dc:	5027883a 	mov	r19,r10
   2d1e0:	003f5306 	br	2cf30 <__subdf3+0x14c>
   2d1e4:	40005126 	beq	r8,zero,2d32c <__subdf3+0x548>
   2d1e8:	80007b1e 	bne	r16,zero,2d3d8 <__subdf3+0x5f4>
   2d1ec:	0401ffc4 	movi	r16,2047
   2d1f0:	8b04b03a 	or	r2,r17,r12
   2d1f4:	10010f26 	beq	r2,zero,2d634 <__subdf3+0x850>
   2d1f8:	80bfffc4 	addi	r2,r16,-1
   2d1fc:	10012a26 	beq	r2,zero,2d6a8 <__subdf3+0x8c4>
   2d200:	8401ffe0 	cmpeqi	r16,r16,2047
   2d204:	80013d1e 	bne	r16,zero,2d6fc <__subdf3+0x918>
   2d208:	11000e48 	cmpgei	r4,r2,57
   2d20c:	2000cd1e 	bne	r4,zero,2d544 <__subdf3+0x760>
   2d210:	11000808 	cmpgei	r4,r2,32
   2d214:	2001191e 	bne	r4,zero,2d67c <__subdf3+0x898>
   2d218:	01000804 	movi	r4,32
   2d21c:	2089c83a 	sub	r4,r4,r2
   2d220:	8924983a 	sll	r18,r17,r4
   2d224:	608cd83a 	srl	r6,r12,r2
   2d228:	6108983a 	sll	r4,r12,r4
   2d22c:	8884d83a 	srl	r2,r17,r2
   2d230:	91a4b03a 	or	r18,r18,r6
   2d234:	2008c03a 	cmpne	r4,r4,zero
   2d238:	9124b03a 	or	r18,r18,r4
   2d23c:	288b883a 	add	r5,r5,r2
   2d240:	9365883a 	add	r18,r18,r13
   2d244:	935b803a 	cmpltu	r13,r18,r13
   2d248:	6963883a 	add	r17,r13,r5
   2d24c:	1821883a 	mov	r16,r3
   2d250:	003fb206 	br	2d11c <__subdf3+0x338>
   2d254:	9009883a 	mov	r4,r18
   2d258:	002d99c0 	call	2d99c <__clzsi2>
   2d25c:	10c00604 	addi	r3,r2,24
   2d260:	19000808 	cmpgei	r4,r3,32
   2d264:	203f2026 	beq	r4,zero,2cee8 <__subdf3+0x104>
   2d268:	10bffe04 	addi	r2,r2,-8
   2d26c:	9084983a 	sll	r2,r18,r2
   2d270:	1c006016 	blt	r3,r16,2d3f4 <__subdf3+0x610>
   2d274:	1c25c83a 	sub	r18,r3,r16
   2d278:	90c00044 	addi	r3,r18,1
   2d27c:	19000808 	cmpgei	r4,r3,32
   2d280:	20012526 	beq	r4,zero,2d718 <__subdf3+0x934>
   2d284:	94bff844 	addi	r18,r18,-31
   2d288:	19000820 	cmpeqi	r4,r3,32
   2d28c:	14a4d83a 	srl	r18,r2,r18
   2d290:	2000051e 	bne	r4,zero,2d2a8 <__subdf3+0x4c4>
   2d294:	01001004 	movi	r4,64
   2d298:	20c7c83a 	sub	r3,r4,r3
   2d29c:	10c4983a 	sll	r2,r2,r3
   2d2a0:	1004c03a 	cmpne	r2,r2,zero
   2d2a4:	90a4b03a 	or	r18,r18,r2
   2d2a8:	908001cc 	andi	r2,r18,7
   2d2ac:	0021883a 	mov	r16,zero
   2d2b0:	103f211e 	bne	r2,zero,2cf38 <__subdf3+0x154>
   2d2b4:	00002f06 	br	2d374 <__subdf3+0x590>
   2d2b8:	9004d0fa 	srli	r2,r18,3
   2d2bc:	8808977a 	slli	r4,r17,29
   2d2c0:	80c1ffe0 	cmpeqi	r3,r16,2047
   2d2c4:	880ad0fa 	srli	r5,r17,3
   2d2c8:	2084b03a 	or	r2,r4,r2
   2d2cc:	183f831e 	bne	r3,zero,2d0dc <__subdf3+0x2f8>
   2d2d0:	01000434 	movhi	r4,16
   2d2d4:	213fffc4 	addi	r4,r4,-1
   2d2d8:	2908703a 	and	r4,r5,r4
   2d2dc:	80c1ffcc 	andi	r3,r16,2047
   2d2e0:	003f2b06 	br	2cf90 <__subdf3+0x1ac>
   2d2e4:	1000a71e 	bne	r2,zero,2d584 <__subdf3+0x7a0>
   2d2e8:	8806977a 	slli	r3,r17,29
   2d2ec:	00880034 	movhi	r2,8192
   2d2f0:	10bfffc4 	addi	r2,r2,-1
   2d2f4:	2084703a 	and	r2,r4,r2
   2d2f8:	880ad0fa 	srli	r5,r17,3
   2d2fc:	10c4b03a 	or	r2,r2,r3
   2d300:	003f7606 	br	2d0dc <__subdf3+0x2f8>
   2d304:	6819883a 	mov	r12,r13
   2d308:	2823883a 	mov	r17,r5
   2d30c:	4829883a 	mov	r20,r9
   2d310:	6004d0fa 	srli	r2,r12,3
   2d314:	003fe906 	br	2d2bc <__subdf3+0x4d8>
   2d318:	047fe034 	movhi	r17,65408
   2d31c:	8c7fffc4 	addi	r17,r17,-1
   2d320:	80e1c83a 	sub	r16,r16,r3
   2d324:	1462703a 	and	r17,r2,r17
   2d328:	003f0106 	br	2cf30 <__subdf3+0x14c>
   2d32c:	80c00044 	addi	r3,r16,1
   2d330:	1881ff8c 	andi	r2,r3,2046
   2d334:	1000361e 	bne	r2,zero,2d410 <__subdf3+0x62c>
   2d338:	8b04b03a 	or	r2,r17,r12
   2d33c:	80008e1e 	bne	r16,zero,2d578 <__subdf3+0x794>
   2d340:	1000bf26 	beq	r2,zero,2d640 <__subdf3+0x85c>
   2d344:	2b44b03a 	or	r2,r5,r13
   2d348:	10007726 	beq	r2,zero,2d528 <__subdf3+0x744>
   2d34c:	6365883a 	add	r18,r12,r13
   2d350:	9305803a 	cmpltu	r2,r18,r12
   2d354:	894b883a 	add	r5,r17,r5
   2d358:	28a3883a 	add	r17,r5,r2
   2d35c:	8880202c 	andhi	r2,r17,128
   2d360:	10000426 	beq	r2,zero,2d374 <__subdf3+0x590>
   2d364:	00bfe034 	movhi	r2,65408
   2d368:	10bfffc4 	addi	r2,r2,-1
   2d36c:	88a2703a 	and	r17,r17,r2
   2d370:	04000044 	movi	r16,1
   2d374:	9019883a 	mov	r12,r18
   2d378:	003fe506 	br	2d310 <__subdf3+0x52c>
   2d37c:	6365c83a 	sub	r18,r12,r13
   2d380:	6485803a 	cmpltu	r2,r12,r18
   2d384:	8947c83a 	sub	r3,r17,r5
   2d388:	1887c83a 	sub	r3,r3,r2
   2d38c:	1880202c 	andhi	r2,r3,128
   2d390:	10002d1e 	bne	r2,zero,2d448 <__subdf3+0x664>
   2d394:	90c4b03a 	or	r2,r18,r3
   2d398:	10005426 	beq	r2,zero,2d4ec <__subdf3+0x708>
   2d39c:	1823883a 	mov	r17,r3
   2d3a0:	003ecd06 	br	2ced8 <__subdf3+0xf4>
   2d3a4:	40bff804 	addi	r2,r8,-32
   2d3a8:	40c00820 	cmpeqi	r3,r8,32
   2d3ac:	2884d83a 	srl	r2,r5,r2
   2d3b0:	1800041e 	bne	r3,zero,2d3c4 <__subdf3+0x5e0>
   2d3b4:	00c01004 	movi	r3,64
   2d3b8:	1a07c83a 	sub	r3,r3,r8
   2d3bc:	28c6983a 	sll	r3,r5,r3
   2d3c0:	68dab03a 	or	r13,r13,r3
   2d3c4:	6824c03a 	cmpne	r18,r13,zero
   2d3c8:	90a4b03a 	or	r18,r18,r2
   2d3cc:	003eba06 	br	2ceb8 <__subdf3+0xd4>
   2d3d0:	29402034 	orhi	r5,r5,128
   2d3d4:	003f0406 	br	2cfe8 <__subdf3+0x204>
   2d3d8:	2804977a 	slli	r2,r5,29
   2d3dc:	00c80034 	movhi	r3,8192
   2d3e0:	18ffffc4 	addi	r3,r3,-1
   2d3e4:	30c6703a 	and	r3,r6,r3
   2d3e8:	280ad0fa 	srli	r5,r5,3
   2d3ec:	10c4b03a 	or	r2,r2,r3
   2d3f0:	003f3a06 	br	2d0dc <__subdf3+0x2f8>
   2d3f4:	017fe034 	movhi	r5,65408
   2d3f8:	297fffc4 	addi	r5,r5,-1
   2d3fc:	114a703a 	and	r5,r2,r5
   2d400:	2804977a 	slli	r2,r5,29
   2d404:	80e1c83a 	sub	r16,r16,r3
   2d408:	280ad0fa 	srli	r5,r5,3
   2d40c:	003fb006 	br	2d2d0 <__subdf3+0x4ec>
   2d410:	1881ffe0 	cmpeqi	r2,r3,2047
   2d414:	103f501e 	bne	r2,zero,2d158 <__subdf3+0x374>
   2d418:	6349883a 	add	r4,r12,r13
   2d41c:	894b883a 	add	r5,r17,r5
   2d420:	2305803a 	cmpltu	r2,r4,r12
   2d424:	2885883a 	add	r2,r5,r2
   2d428:	2008d07a 	srli	r4,r4,1
   2d42c:	102497fa 	slli	r18,r2,31
   2d430:	1022d07a 	srli	r17,r2,1
   2d434:	208001cc 	andi	r2,r4,7
   2d438:	9124b03a 	or	r18,r18,r4
   2d43c:	1821883a 	mov	r16,r3
   2d440:	103ebd1e 	bne	r2,zero,2cf38 <__subdf3+0x154>
   2d444:	003fcb06 	br	2d374 <__subdf3+0x590>
   2d448:	6b25c83a 	sub	r18,r13,r12
   2d44c:	2c4bc83a 	sub	r5,r5,r17
   2d450:	6c9b803a 	cmpltu	r13,r13,r18
   2d454:	2b63c83a 	sub	r17,r5,r13
   2d458:	5029883a 	mov	r20,r10
   2d45c:	5027883a 	mov	r19,r10
   2d460:	003e9d06 	br	2ced8 <__subdf3+0xf4>
   2d464:	183f9f1e 	bne	r3,zero,2d2e4 <__subdf3+0x500>
   2d468:	10009f26 	beq	r2,zero,2d6e8 <__subdf3+0x904>
   2d46c:	2804977a 	slli	r2,r5,29
   2d470:	00c80034 	movhi	r3,8192
   2d474:	18ffffc4 	addi	r3,r3,-1
   2d478:	30c6703a 	and	r3,r6,r3
   2d47c:	280ad0fa 	srli	r5,r5,3
   2d480:	5029883a 	mov	r20,r10
   2d484:	10c4b03a 	or	r2,r2,r3
   2d488:	003f1406 	br	2d0dc <__subdf3+0x2f8>
   2d48c:	6365c83a 	sub	r18,r12,r13
   2d490:	894bc83a 	sub	r5,r17,r5
   2d494:	6485803a 	cmpltu	r2,r12,r18
   2d498:	28a3c83a 	sub	r17,r5,r2
   2d49c:	04000044 	movi	r16,1
   2d4a0:	003e8806 	br	2cec4 <__subdf3+0xe0>
   2d4a4:	11000e48 	cmpgei	r4,r2,57
   2d4a8:	2000a81e 	bne	r4,zero,2d74c <__subdf3+0x968>
   2d4ac:	8c402034 	orhi	r17,r17,128
   2d4b0:	5027883a 	mov	r19,r10
   2d4b4:	3829883a 	mov	r20,r7
   2d4b8:	11000808 	cmpgei	r4,r2,32
   2d4bc:	2000231e 	bne	r4,zero,2d54c <__subdf3+0x768>
   2d4c0:	01000804 	movi	r4,32
   2d4c4:	2089c83a 	sub	r4,r4,r2
   2d4c8:	8924983a 	sll	r18,r17,r4
   2d4cc:	608cd83a 	srl	r6,r12,r2
   2d4d0:	6108983a 	sll	r4,r12,r4
   2d4d4:	8884d83a 	srl	r2,r17,r2
   2d4d8:	91a4b03a 	or	r18,r18,r6
   2d4dc:	2008c03a 	cmpne	r4,r4,zero
   2d4e0:	9124b03a 	or	r18,r18,r4
   2d4e4:	288bc83a 	sub	r5,r5,r2
   2d4e8:	003ee106 	br	2d070 <__subdf3+0x28c>
   2d4ec:	0029883a 	mov	r20,zero
   2d4f0:	0007883a 	mov	r3,zero
   2d4f4:	0009883a 	mov	r4,zero
   2d4f8:	003ea506 	br	2cf90 <__subdf3+0x1ac>
   2d4fc:	40bff804 	addi	r2,r8,-32
   2d500:	40c00820 	cmpeqi	r3,r8,32
   2d504:	2884d83a 	srl	r2,r5,r2
   2d508:	1800041e 	bne	r3,zero,2d51c <__subdf3+0x738>
   2d50c:	00c01004 	movi	r3,64
   2d510:	1a07c83a 	sub	r3,r3,r8
   2d514:	28c6983a 	sll	r3,r5,r3
   2d518:	68dab03a 	or	r13,r13,r3
   2d51c:	6824c03a 	cmpne	r18,r13,zero
   2d520:	90a4b03a 	or	r18,r18,r2
   2d524:	003efa06 	br	2d110 <__subdf3+0x32c>
   2d528:	8806977a 	slli	r3,r17,29
   2d52c:	00880034 	movhi	r2,8192
   2d530:	10bfffc4 	addi	r2,r2,-1
   2d534:	2084703a 	and	r2,r4,r2
   2d538:	880ad0fa 	srli	r5,r17,3
   2d53c:	10c4b03a 	or	r2,r2,r3
   2d540:	003f6306 	br	2d2d0 <__subdf3+0x4ec>
   2d544:	04800044 	movi	r18,1
   2d548:	003f3d06 	br	2d240 <__subdf3+0x45c>
   2d54c:	113ff804 	addi	r4,r2,-32
   2d550:	11800820 	cmpeqi	r6,r2,32
   2d554:	8908d83a 	srl	r4,r17,r4
   2d558:	3000041e 	bne	r6,zero,2d56c <__subdf3+0x788>
   2d55c:	01801004 	movi	r6,64
   2d560:	3085c83a 	sub	r2,r6,r2
   2d564:	8884983a 	sll	r2,r17,r2
   2d568:	6098b03a 	or	r12,r12,r2
   2d56c:	6024c03a 	cmpne	r18,r12,zero
   2d570:	9124b03a 	or	r18,r18,r4
   2d574:	003ebe06 	br	2d070 <__subdf3+0x28c>
   2d578:	10005026 	beq	r2,zero,2d6bc <__subdf3+0x8d8>
   2d57c:	2b5ab03a 	or	r13,r5,r13
   2d580:	683f5926 	beq	r13,zero,2d2e8 <__subdf3+0x504>
   2d584:	880ed0fa 	srli	r7,r17,3
   2d588:	00c80034 	movhi	r3,8192
   2d58c:	8822977a 	slli	r17,r17,29
   2d590:	18ffffc4 	addi	r3,r3,-1
   2d594:	20c4703a 	and	r2,r4,r3
   2d598:	3900022c 	andhi	r4,r7,8
   2d59c:	1444b03a 	or	r2,r2,r17
   2d5a0:	20000826 	beq	r4,zero,2d5c4 <__subdf3+0x7e0>
   2d5a4:	2808d0fa 	srli	r4,r5,3
   2d5a8:	2200022c 	andhi	r8,r4,8
   2d5ac:	4000051e 	bne	r8,zero,2d5c4 <__subdf3+0x7e0>
   2d5b0:	2804977a 	slli	r2,r5,29
   2d5b4:	30c6703a 	and	r3,r6,r3
   2d5b8:	5029883a 	mov	r20,r10
   2d5bc:	1884b03a 	or	r2,r3,r2
   2d5c0:	200f883a 	mov	r7,r4
   2d5c4:	380b883a 	mov	r5,r7
   2d5c8:	003ec406 	br	2d0dc <__subdf3+0x2f8>
   2d5cc:	6b25c83a 	sub	r18,r13,r12
   2d5d0:	2c4bc83a 	sub	r5,r5,r17
   2d5d4:	6c9b803a 	cmpltu	r13,r13,r18
   2d5d8:	2b63c83a 	sub	r17,r5,r13
   2d5dc:	4829883a 	mov	r20,r9
   2d5e0:	5027883a 	mov	r19,r10
   2d5e4:	04000044 	movi	r16,1
   2d5e8:	003e3606 	br	2cec4 <__subdf3+0xe0>
   2d5ec:	103fbf26 	beq	r2,zero,2d4ec <__subdf3+0x708>
   2d5f0:	2806977a 	slli	r3,r5,29
   2d5f4:	00880034 	movhi	r2,8192
   2d5f8:	10bfffc4 	addi	r2,r2,-1
   2d5fc:	3084703a 	and	r2,r6,r2
   2d600:	280ad0fa 	srli	r5,r5,3
   2d604:	5029883a 	mov	r20,r10
   2d608:	10c4b03a 	or	r2,r2,r3
   2d60c:	003f3006 	br	2d2d0 <__subdf3+0x4ec>
   2d610:	04000084 	movi	r16,2
   2d614:	003ec606 	br	2d130 <__subdf3+0x34c>
   2d618:	8804977a 	slli	r2,r17,29
   2d61c:	00c80034 	movhi	r3,8192
   2d620:	18ffffc4 	addi	r3,r3,-1
   2d624:	20c8703a 	and	r4,r4,r3
   2d628:	880ad0fa 	srli	r5,r17,3
   2d62c:	1104b03a 	or	r2,r2,r4
   2d630:	003eaa06 	br	2d0dc <__subdf3+0x2f8>
   2d634:	6819883a 	mov	r12,r13
   2d638:	2823883a 	mov	r17,r5
   2d63c:	003f3406 	br	2d310 <__subdf3+0x52c>
   2d640:	2806977a 	slli	r3,r5,29
   2d644:	00880034 	movhi	r2,8192
   2d648:	10bfffc4 	addi	r2,r2,-1
   2d64c:	3084703a 	and	r2,r6,r2
   2d650:	280ad0fa 	srli	r5,r5,3
   2d654:	10c4b03a 	or	r2,r2,r3
   2d658:	003f1d06 	br	2d2d0 <__subdf3+0x4ec>
   2d65c:	2806977a 	slli	r3,r5,29
   2d660:	00880034 	movhi	r2,8192
   2d664:	10bfffc4 	addi	r2,r2,-1
   2d668:	3084703a 	and	r2,r6,r2
   2d66c:	280ad0fa 	srli	r5,r5,3
   2d670:	10c4b03a 	or	r2,r2,r3
   2d674:	4829883a 	mov	r20,r9
   2d678:	003e9806 	br	2d0dc <__subdf3+0x2f8>
   2d67c:	113ff804 	addi	r4,r2,-32
   2d680:	11800820 	cmpeqi	r6,r2,32
   2d684:	8908d83a 	srl	r4,r17,r4
   2d688:	3000041e 	bne	r6,zero,2d69c <__subdf3+0x8b8>
   2d68c:	01801004 	movi	r6,64
   2d690:	3085c83a 	sub	r2,r6,r2
   2d694:	8884983a 	sll	r2,r17,r2
   2d698:	6098b03a 	or	r12,r12,r2
   2d69c:	6024c03a 	cmpne	r18,r12,zero
   2d6a0:	9124b03a 	or	r18,r18,r4
   2d6a4:	003ee606 	br	2d240 <__subdf3+0x45c>
   2d6a8:	6365883a 	add	r18,r12,r13
   2d6ac:	894b883a 	add	r5,r17,r5
   2d6b0:	935b803a 	cmpltu	r13,r18,r13
   2d6b4:	2b63883a 	add	r17,r5,r13
   2d6b8:	003eaf06 	br	2d178 <__subdf3+0x394>
   2d6bc:	2804977a 	slli	r2,r5,29
   2d6c0:	00c80034 	movhi	r3,8192
   2d6c4:	18ffffc4 	addi	r3,r3,-1
   2d6c8:	30cc703a 	and	r6,r6,r3
   2d6cc:	280ad0fa 	srli	r5,r5,3
   2d6d0:	3084b03a 	or	r2,r6,r2
   2d6d4:	003e8106 	br	2d0dc <__subdf3+0x2f8>
   2d6d8:	90c4b03a 	or	r2,r18,r3
   2d6dc:	103f8326 	beq	r2,zero,2d4ec <__subdf3+0x708>
   2d6e0:	1823883a 	mov	r17,r3
   2d6e4:	003f2306 	br	2d374 <__subdf3+0x590>
   2d6e8:	01400434 	movhi	r5,16
   2d6ec:	297fffc4 	addi	r5,r5,-1
   2d6f0:	00bfffc4 	movi	r2,-1
   2d6f4:	0029883a 	mov	r20,zero
   2d6f8:	003e7a06 	br	2d0e4 <__subdf3+0x300>
   2d6fc:	2806977a 	slli	r3,r5,29
   2d700:	00880034 	movhi	r2,8192
   2d704:	10bfffc4 	addi	r2,r2,-1
   2d708:	3084703a 	and	r2,r6,r2
   2d70c:	280ad0fa 	srli	r5,r5,3
   2d710:	10c4b03a 	or	r2,r2,r3
   2d714:	003e7106 	br	2d0dc <__subdf3+0x2f8>
   2d718:	01000804 	movi	r4,32
   2d71c:	20c9c83a 	sub	r4,r4,r3
   2d720:	000b883a 	mov	r5,zero
   2d724:	003dfd06 	br	2cf1c <__subdf3+0x138>
   2d728:	0005883a 	mov	r2,zero
   2d72c:	00c1ffc4 	movi	r3,2047
   2d730:	0009883a 	mov	r4,zero
   2d734:	003e1606 	br	2cf90 <__subdf3+0x1ac>
   2d738:	403e9526 	beq	r8,zero,2d190 <__subdf3+0x3ac>
   2d73c:	1c05c83a 	sub	r2,r3,r16
   2d740:	803f581e 	bne	r16,zero,2d4a4 <__subdf3+0x6c0>
   2d744:	1021883a 	mov	r16,r2
   2d748:	003e3e06 	br	2d044 <__subdf3+0x260>
   2d74c:	5027883a 	mov	r19,r10
   2d750:	3829883a 	mov	r20,r7
   2d754:	04800044 	movi	r18,1
   2d758:	003e4506 	br	2d070 <__subdf3+0x28c>
   2d75c:	403ef326 	beq	r8,zero,2d32c <__subdf3+0x548>
   2d760:	1c05c83a 	sub	r2,r3,r16
   2d764:	8000021e 	bne	r16,zero,2d770 <__subdf3+0x98c>
   2d768:	1021883a 	mov	r16,r2
   2d76c:	003ea006 	br	2d1f0 <__subdf3+0x40c>
   2d770:	11000e48 	cmpgei	r4,r2,57
   2d774:	203f731e 	bne	r4,zero,2d544 <__subdf3+0x760>
   2d778:	8c402034 	orhi	r17,r17,128
   2d77c:	003ea406 	br	2d210 <__subdf3+0x42c>

0002d780 <__unorddf2>:
   2d780:	2804d53a 	srli	r2,r5,20
   2d784:	3806d53a 	srli	r3,r7,20
   2d788:	02000434 	movhi	r8,16
   2d78c:	1081ffcc 	andi	r2,r2,2047
   2d790:	423fffc4 	addi	r8,r8,-1
   2d794:	1081ffd8 	cmpnei	r2,r2,2047
   2d798:	2a0a703a 	and	r5,r5,r8
   2d79c:	3a0e703a 	and	r7,r7,r8
   2d7a0:	18c1ffcc 	andi	r3,r3,2047
   2d7a4:	10000426 	beq	r2,zero,2d7b8 <__unorddf2+0x38>
   2d7a8:	18c1ffd8 	cmpnei	r3,r3,2047
   2d7ac:	18000626 	beq	r3,zero,2d7c8 <__unorddf2+0x48>
   2d7b0:	0005883a 	mov	r2,zero
   2d7b4:	f800283a 	ret
   2d7b8:	290ab03a 	or	r5,r5,r4
   2d7bc:	283ffa26 	beq	r5,zero,2d7a8 <__unorddf2+0x28>
   2d7c0:	00800044 	movi	r2,1
   2d7c4:	f800283a 	ret
   2d7c8:	398eb03a 	or	r7,r7,r6
   2d7cc:	3804c03a 	cmpne	r2,r7,zero
   2d7d0:	f800283a 	ret

0002d7d4 <__fixdfsi>:
   2d7d4:	2804d53a 	srli	r2,r5,20
   2d7d8:	00c00434 	movhi	r3,16
   2d7dc:	18ffffc4 	addi	r3,r3,-1
   2d7e0:	1081ffcc 	andi	r2,r2,2047
   2d7e4:	1180ffd0 	cmplti	r6,r2,1023
   2d7e8:	280ed7fa 	srli	r7,r5,31
   2d7ec:	28ca703a 	and	r5,r5,r3
   2d7f0:	3000061e 	bne	r6,zero,2d80c <__fixdfsi+0x38>
   2d7f4:	10c10790 	cmplti	r3,r2,1054
   2d7f8:	1800061e 	bne	r3,zero,2d814 <__fixdfsi+0x40>
   2d7fc:	00a00034 	movhi	r2,32768
   2d800:	10bfffc4 	addi	r2,r2,-1
   2d804:	3885883a 	add	r2,r7,r2
   2d808:	f800283a 	ret
   2d80c:	0005883a 	mov	r2,zero
   2d810:	f800283a 	ret
   2d814:	00c10cc4 	movi	r3,1075
   2d818:	1887c83a 	sub	r3,r3,r2
   2d81c:	19800808 	cmpgei	r6,r3,32
   2d820:	29400434 	orhi	r5,r5,16
   2d824:	3000071e 	bne	r6,zero,2d844 <__fixdfsi+0x70>
   2d828:	10befb44 	addi	r2,r2,-1043
   2d82c:	2884983a 	sll	r2,r5,r2
   2d830:	20c8d83a 	srl	r4,r4,r3
   2d834:	1104b03a 	or	r2,r2,r4
   2d838:	383ff526 	beq	r7,zero,2d810 <__fixdfsi+0x3c>
   2d83c:	0085c83a 	sub	r2,zero,r2
   2d840:	f800283a 	ret
   2d844:	00c104c4 	movi	r3,1043
   2d848:	1885c83a 	sub	r2,r3,r2
   2d84c:	2884d83a 	srl	r2,r5,r2
   2d850:	003ff906 	br	2d838 <__fixdfsi+0x64>

0002d854 <__floatsidf>:
   2d854:	defffd04 	addi	sp,sp,-12
   2d858:	dfc00215 	stw	ra,8(sp)
   2d85c:	dc400115 	stw	r17,4(sp)
   2d860:	dc000015 	stw	r16,0(sp)
   2d864:	20001326 	beq	r4,zero,2d8b4 <__floatsidf+0x60>
   2d868:	2022d7fa 	srli	r17,r4,31
   2d86c:	2021883a 	mov	r16,r4
   2d870:	20002416 	blt	r4,zero,2d904 <__floatsidf+0xb0>
   2d874:	8009883a 	mov	r4,r16
   2d878:	002d99c0 	call	2d99c <__clzsi2>
   2d87c:	01010784 	movi	r4,1054
   2d880:	2089c83a 	sub	r4,r4,r2
   2d884:	10c002c8 	cmpgei	r3,r2,11
   2d888:	2101ffcc 	andi	r4,r4,2047
   2d88c:	1800161e 	bne	r3,zero,2d8e8 <__floatsidf+0x94>
   2d890:	014002c4 	movi	r5,11
   2d894:	288bc83a 	sub	r5,r5,r2
   2d898:	814ad83a 	srl	r5,r16,r5
   2d89c:	00c00434 	movhi	r3,16
   2d8a0:	10800544 	addi	r2,r2,21
   2d8a4:	18ffffc4 	addi	r3,r3,-1
   2d8a8:	8084983a 	sll	r2,r16,r2
   2d8ac:	28ca703a 	and	r5,r5,r3
   2d8b0:	00000406 	br	2d8c4 <__floatsidf+0x70>
   2d8b4:	0023883a 	mov	r17,zero
   2d8b8:	0009883a 	mov	r4,zero
   2d8bc:	000b883a 	mov	r5,zero
   2d8c0:	0005883a 	mov	r2,zero
   2d8c4:	2008953a 	slli	r4,r4,20
   2d8c8:	880697fa 	slli	r3,r17,31
   2d8cc:	2148b03a 	or	r4,r4,r5
   2d8d0:	20c6b03a 	or	r3,r4,r3
   2d8d4:	dfc00217 	ldw	ra,8(sp)
   2d8d8:	dc400117 	ldw	r17,4(sp)
   2d8dc:	dc000017 	ldw	r16,0(sp)
   2d8e0:	dec00304 	addi	sp,sp,12
   2d8e4:	f800283a 	ret
   2d8e8:	10bffd44 	addi	r2,r2,-11
   2d8ec:	808a983a 	sll	r5,r16,r2
   2d8f0:	00800434 	movhi	r2,16
   2d8f4:	10bfffc4 	addi	r2,r2,-1
   2d8f8:	288a703a 	and	r5,r5,r2
   2d8fc:	0005883a 	mov	r2,zero
   2d900:	003ff006 	br	2d8c4 <__floatsidf+0x70>
   2d904:	0121c83a 	sub	r16,zero,r4
   2d908:	003fda06 	br	2d874 <__floatsidf+0x20>

0002d90c <__floatunsidf>:
   2d90c:	defffe04 	addi	sp,sp,-8
   2d910:	dc000015 	stw	r16,0(sp)
   2d914:	dfc00115 	stw	ra,4(sp)
   2d918:	2021883a 	mov	r16,r4
   2d91c:	20000f26 	beq	r4,zero,2d95c <__floatunsidf+0x50>
   2d920:	002d99c0 	call	2d99c <__clzsi2>
   2d924:	00c10784 	movi	r3,1054
   2d928:	1887c83a 	sub	r3,r3,r2
   2d92c:	110002c8 	cmpgei	r4,r2,11
   2d930:	18c1ffcc 	andi	r3,r3,2047
   2d934:	2000121e 	bne	r4,zero,2d980 <__floatunsidf+0x74>
   2d938:	010002c4 	movi	r4,11
   2d93c:	2089c83a 	sub	r4,r4,r2
   2d940:	8108d83a 	srl	r4,r16,r4
   2d944:	01400434 	movhi	r5,16
   2d948:	10800544 	addi	r2,r2,21
   2d94c:	297fffc4 	addi	r5,r5,-1
   2d950:	80a0983a 	sll	r16,r16,r2
   2d954:	214a703a 	and	r5,r4,r5
   2d958:	00000206 	br	2d964 <__floatunsidf+0x58>
   2d95c:	0007883a 	mov	r3,zero
   2d960:	000b883a 	mov	r5,zero
   2d964:	1806953a 	slli	r3,r3,20
   2d968:	8005883a 	mov	r2,r16
   2d96c:	1946b03a 	or	r3,r3,r5
   2d970:	dfc00117 	ldw	ra,4(sp)
   2d974:	dc000017 	ldw	r16,0(sp)
   2d978:	dec00204 	addi	sp,sp,8
   2d97c:	f800283a 	ret
   2d980:	117ffd44 	addi	r5,r2,-11
   2d984:	814a983a 	sll	r5,r16,r5
   2d988:	00800434 	movhi	r2,16
   2d98c:	10bfffc4 	addi	r2,r2,-1
   2d990:	288a703a 	and	r5,r5,r2
   2d994:	0021883a 	mov	r16,zero
   2d998:	003ff206 	br	2d964 <__floatunsidf+0x58>

0002d99c <__clzsi2>:
   2d99c:	00bfffd4 	movui	r2,65535
   2d9a0:	11000a36 	bltu	r2,r4,2d9cc <__clzsi2+0x30>
   2d9a4:	20c04028 	cmpgeui	r3,r4,256
   2d9a8:	180690fa 	slli	r3,r3,3
   2d9ac:	00800804 	movi	r2,32
   2d9b0:	10c5c83a 	sub	r2,r2,r3
   2d9b4:	20c8d83a 	srl	r4,r4,r3
   2d9b8:	00c000f4 	movhi	r3,3
   2d9bc:	20c7883a 	add	r3,r4,r3
   2d9c0:	18c2ec03 	ldbu	r3,2992(r3)
   2d9c4:	10c5c83a 	sub	r2,r2,r3
   2d9c8:	f800283a 	ret
   2d9cc:	00804034 	movhi	r2,256
   2d9d0:	2080032e 	bgeu	r4,r2,2d9e0 <__clzsi2+0x44>
   2d9d4:	00800404 	movi	r2,16
   2d9d8:	00c00404 	movi	r3,16
   2d9dc:	003ff506 	br	2d9b4 <__clzsi2+0x18>
   2d9e0:	00800204 	movi	r2,8
   2d9e4:	00c00604 	movi	r3,24
   2d9e8:	003ff206 	br	2d9b4 <__clzsi2+0x18>

0002d9ec <alt_get_errno>:
#undef errno

extern int errno;

static ALT_INLINE int* alt_get_errno(void)
{
   2d9ec:	defffe04 	addi	sp,sp,-8
   2d9f0:	dfc00115 	stw	ra,4(sp)
   2d9f4:	df000015 	stw	fp,0(sp)
   2d9f8:	d839883a 	mov	fp,sp
  return ((alt_errno) ? alt_errno() : &errno);
   2d9fc:	d0a00917 	ldw	r2,-32732(gp)
   2da00:	10000326 	beq	r2,zero,2da10 <alt_get_errno+0x24>
   2da04:	d0a00917 	ldw	r2,-32732(gp)
   2da08:	103ee83a 	callr	r2
   2da0c:	00000106 	br	2da14 <alt_get_errno+0x28>
   2da10:	d0a72104 	addi	r2,gp,-25468
}
   2da14:	e037883a 	mov	sp,fp
   2da18:	dfc00117 	ldw	ra,4(sp)
   2da1c:	df000017 	ldw	fp,0(sp)
   2da20:	dec00204 	addi	sp,sp,8
   2da24:	f800283a 	ret

0002da28 <close>:
 *
 * ALT_CLOSE is mapped onto the close() system call in alt_syscall.h
 */
 
int ALT_CLOSE (int fildes)
{
   2da28:	defffb04 	addi	sp,sp,-20
   2da2c:	dfc00415 	stw	ra,16(sp)
   2da30:	df000315 	stw	fp,12(sp)
   2da34:	df000304 	addi	fp,sp,12
   2da38:	e13ffd15 	stw	r4,-12(fp)
   * A common error case is that when the file descriptor was created, the call
   * to open() failed resulting in a negative file descriptor. This is trapped
   * below so that we don't try and process an invalid file descriptor.
   */

  fd = (fildes < 0) ? NULL : &alt_fd_list[fildes];
   2da3c:	e0bffd17 	ldw	r2,-12(fp)
   2da40:	10000616 	blt	r2,zero,2da5c <close+0x34>
   2da44:	e0bffd17 	ldw	r2,-12(fp)
   2da48:	10c00324 	muli	r3,r2,12
   2da4c:	008000f4 	movhi	r2,3
   2da50:	1085b304 	addi	r2,r2,5836
   2da54:	1885883a 	add	r2,r3,r2
   2da58:	00000106 	br	2da60 <close+0x38>
   2da5c:	0005883a 	mov	r2,zero
   2da60:	e0bfff15 	stw	r2,-4(fp)

  if (fd)
   2da64:	e0bfff17 	ldw	r2,-4(fp)
   2da68:	10001926 	beq	r2,zero,2dad0 <close+0xa8>
    /*
     * If the associated file system/device has a close function, call it so 
     * that any necessary cleanup code can run.
     */

    rval = (fd->dev->close) ? fd->dev->close(fd) : 0;
   2da6c:	e0bfff17 	ldw	r2,-4(fp)
   2da70:	10800017 	ldw	r2,0(r2)
   2da74:	10800417 	ldw	r2,16(r2)
   2da78:	10000626 	beq	r2,zero,2da94 <close+0x6c>
   2da7c:	e0bfff17 	ldw	r2,-4(fp)
   2da80:	10800017 	ldw	r2,0(r2)
   2da84:	10800417 	ldw	r2,16(r2)
   2da88:	e13fff17 	ldw	r4,-4(fp)
   2da8c:	103ee83a 	callr	r2
   2da90:	00000106 	br	2da98 <close+0x70>
   2da94:	0005883a 	mov	r2,zero
   2da98:	e0bffe15 	stw	r2,-8(fp)

    /* Free the file descriptor structure and return. */

    alt_release_fd (fildes);
   2da9c:	e13ffd17 	ldw	r4,-12(fp)
   2daa0:	002e2700 	call	2e270 <alt_release_fd>
    if (rval < 0)
   2daa4:	e0bffe17 	ldw	r2,-8(fp)
   2daa8:	1000070e 	bge	r2,zero,2dac8 <close+0xa0>
    {
      ALT_ERRNO = -rval;
   2daac:	002d9ec0 	call	2d9ec <alt_get_errno>
   2dab0:	1007883a 	mov	r3,r2
   2dab4:	e0bffe17 	ldw	r2,-8(fp)
   2dab8:	0085c83a 	sub	r2,zero,r2
   2dabc:	18800015 	stw	r2,0(r3)
      return -1;
   2dac0:	00bfffc4 	movi	r2,-1
   2dac4:	00000706 	br	2dae4 <close+0xbc>
    }
    return 0;
   2dac8:	0005883a 	mov	r2,zero
   2dacc:	00000506 	br	2dae4 <close+0xbc>
  }
  else
  {
    ALT_ERRNO = EBADFD;
   2dad0:	002d9ec0 	call	2d9ec <alt_get_errno>
   2dad4:	1007883a 	mov	r3,r2
   2dad8:	00801444 	movi	r2,81
   2dadc:	18800015 	stw	r2,0(r3)
    return -1;
   2dae0:	00bfffc4 	movi	r2,-1
  }
}
   2dae4:	e037883a 	mov	sp,fp
   2dae8:	dfc00117 	ldw	ra,4(sp)
   2daec:	df000017 	ldw	fp,0(sp)
   2daf0:	dec00204 	addi	sp,sp,8
   2daf4:	f800283a 	ret

0002daf8 <alt_dev_null_write>:
 * by the alt_dev_null device. It simple discards all data passed to it, and
 * indicates that the data has been successfully transmitted.
 */

static int alt_dev_null_write (alt_fd* fd, const char* ptr, int len)
{
   2daf8:	defffc04 	addi	sp,sp,-16
   2dafc:	df000315 	stw	fp,12(sp)
   2db00:	df000304 	addi	fp,sp,12
   2db04:	e13fff15 	stw	r4,-4(fp)
   2db08:	e17ffe15 	stw	r5,-8(fp)
   2db0c:	e1bffd15 	stw	r6,-12(fp)
  return len;
   2db10:	e0bffd17 	ldw	r2,-12(fp)
}
   2db14:	e037883a 	mov	sp,fp
   2db18:	df000017 	ldw	fp,0(sp)
   2db1c:	dec00104 	addi	sp,sp,4
   2db20:	f800283a 	ret

0002db24 <_exit>:
 *
 * ALT_EXIT is mapped onto the _exit() system call in alt_syscall.h
 */

void ALT_EXIT (int exit_code)
{
   2db24:	defffd04 	addi	sp,sp,-12
   2db28:	df000215 	stw	fp,8(sp)
   2db2c:	df000204 	addi	fp,sp,8
   2db30:	e13ffe15 	stw	r4,-8(fp)
  ALT_LOG_PRINT_BOOT("[alt_exit.c] Entering _exit() function.\r\n");
  ALT_LOG_PRINT_BOOT("[alt_exit.c] Exit code from main was %d.\r\n",exit_code);
  /* Stop all other threads */

  ALT_LOG_PRINT_BOOT("[alt_exit.c] Calling ALT_OS_STOP().\r\n");
  ALT_OS_STOP();
   2db34:	0001883a 	nop
   2db38:	e0bffe17 	ldw	r2,-8(fp)
   2db3c:	e0bfff15 	stw	r2,-4(fp)
/*
 * Routine called on exit.
 */
static ALT_INLINE ALT_ALWAYS_INLINE void alt_sim_halt(int exit_code)
{
  register int r2 asm ("r2") = exit_code;
   2db40:	e0bfff17 	ldw	r2,-4(fp)
  __asm__ volatile ("\n0:\n\taddi %0,%0, -1\n\tbgt %0,zero,0b" : : "r" (ALT_CPU_FREQ/100) ); /* Delay for >30ms */

  __asm__ volatile ("break 2" : : "r"(r2), "r"(r3) ALT_GMON_DATA );

#else /* !DEBUG_STUB */
  if (r2) {
   2db44:	10000226 	beq	r2,zero,2db50 <_exit+0x2c>
    ALT_SIM_FAIL();
   2db48:	002af070 	cmpltui	zero,zero,43969
  } else {
    ALT_SIM_PASS();
  }
#endif /* DEBUG_STUB */
}
   2db4c:	00000106 	br	2db54 <_exit+0x30>
    ALT_SIM_PASS();
   2db50:	002af0b0 	cmpltui	zero,zero,43970
}
   2db54:	0001883a 	nop
  ALT_SIM_HALT(exit_code);

  /* spin forever, since there's no where to go back to */

  ALT_LOG_PRINT_BOOT("[alt_exit.c] Spinning forever.\r\n");
  while (1);
   2db58:	0001883a 	nop
   2db5c:	003ffe06 	br	2db58 <_exit+0x34>

0002db60 <alt_get_errno>:
{
   2db60:	defffe04 	addi	sp,sp,-8
   2db64:	dfc00115 	stw	ra,4(sp)
   2db68:	df000015 	stw	fp,0(sp)
   2db6c:	d839883a 	mov	fp,sp
  return ((alt_errno) ? alt_errno() : &errno);
   2db70:	d0a00917 	ldw	r2,-32732(gp)
   2db74:	10000326 	beq	r2,zero,2db84 <alt_get_errno+0x24>
   2db78:	d0a00917 	ldw	r2,-32732(gp)
   2db7c:	103ee83a 	callr	r2
   2db80:	00000106 	br	2db88 <alt_get_errno+0x28>
   2db84:	d0a72104 	addi	r2,gp,-25468
}
   2db88:	e037883a 	mov	sp,fp
   2db8c:	dfc00117 	ldw	ra,4(sp)
   2db90:	df000017 	ldw	fp,0(sp)
   2db94:	dec00204 	addi	sp,sp,8
   2db98:	f800283a 	ret

0002db9c <fstat>:
}

#else /* !ALT_USE_DIRECT_DRIVERS */

int ALT_FSTAT (int file, struct stat *st)
{
   2db9c:	defffb04 	addi	sp,sp,-20
   2dba0:	dfc00415 	stw	ra,16(sp)
   2dba4:	df000315 	stw	fp,12(sp)
   2dba8:	df000304 	addi	fp,sp,12
   2dbac:	e13ffe15 	stw	r4,-8(fp)
   2dbb0:	e17ffd15 	stw	r5,-12(fp)
   * A common error case is that when the file descriptor was created, the call
   * to open() failed resulting in a negative file descriptor. This is trapped
   * below so that we don't try and process an invalid file descriptor.
   */

  fd = (file < 0) ? NULL : &alt_fd_list[file];
   2dbb4:	e0bffe17 	ldw	r2,-8(fp)
   2dbb8:	10000616 	blt	r2,zero,2dbd4 <fstat+0x38>
   2dbbc:	e0bffe17 	ldw	r2,-8(fp)
   2dbc0:	10c00324 	muli	r3,r2,12
   2dbc4:	008000f4 	movhi	r2,3
   2dbc8:	1085b304 	addi	r2,r2,5836
   2dbcc:	1885883a 	add	r2,r3,r2
   2dbd0:	00000106 	br	2dbd8 <fstat+0x3c>
   2dbd4:	0005883a 	mov	r2,zero
   2dbd8:	e0bfff15 	stw	r2,-4(fp)
  
  if (fd)
   2dbdc:	e0bfff17 	ldw	r2,-4(fp)
   2dbe0:	10001026 	beq	r2,zero,2dc24 <fstat+0x88>
  {
    /* Call the drivers fstat() function to fill out the "st" structure. */

    if (fd->dev->fstat)
   2dbe4:	e0bfff17 	ldw	r2,-4(fp)
   2dbe8:	10800017 	ldw	r2,0(r2)
   2dbec:	10800817 	ldw	r2,32(r2)
   2dbf0:	10000726 	beq	r2,zero,2dc10 <fstat+0x74>
    {
      return fd->dev->fstat(fd, st);
   2dbf4:	e0bfff17 	ldw	r2,-4(fp)
   2dbf8:	10800017 	ldw	r2,0(r2)
   2dbfc:	10800817 	ldw	r2,32(r2)
   2dc00:	e17ffd17 	ldw	r5,-12(fp)
   2dc04:	e13fff17 	ldw	r4,-4(fp)
   2dc08:	103ee83a 	callr	r2
   2dc0c:	00000a06 	br	2dc38 <fstat+0x9c>
     * device.
     */
 
    else
    {
      st->st_mode = _IFCHR;
   2dc10:	e0bffd17 	ldw	r2,-12(fp)
   2dc14:	00c80004 	movi	r3,8192
   2dc18:	10c00115 	stw	r3,4(r2)
      return 0;
   2dc1c:	0005883a 	mov	r2,zero
   2dc20:	00000506 	br	2dc38 <fstat+0x9c>
    }
  }
  else
  {
    ALT_ERRNO = EBADFD;
   2dc24:	002db600 	call	2db60 <alt_get_errno>
   2dc28:	1007883a 	mov	r3,r2
   2dc2c:	00801444 	movi	r2,81
   2dc30:	18800015 	stw	r2,0(r3)
    return -1;
   2dc34:	00bfffc4 	movi	r2,-1
  }
}
   2dc38:	e037883a 	mov	sp,fp
   2dc3c:	dfc00117 	ldw	ra,4(sp)
   2dc40:	df000017 	ldw	fp,0(sp)
   2dc44:	dec00204 	addi	sp,sp,8
   2dc48:	f800283a 	ret

0002dc4c <getpid>:
 *
 * ALT_GETPID is mapped onto the getpid() system call in alt_syscall.h
 */
 
int ALT_GETPID (void)
{
   2dc4c:	deffff04 	addi	sp,sp,-4
   2dc50:	df000015 	stw	fp,0(sp)
   2dc54:	d839883a 	mov	fp,sp
  return 0;
   2dc58:	0005883a 	mov	r2,zero
}
   2dc5c:	e037883a 	mov	sp,fp
   2dc60:	df000017 	ldw	fp,0(sp)
   2dc64:	dec00104 	addi	sp,sp,4
   2dc68:	f800283a 	ret

0002dc6c <alt_get_errno>:
{
   2dc6c:	defffe04 	addi	sp,sp,-8
   2dc70:	dfc00115 	stw	ra,4(sp)
   2dc74:	df000015 	stw	fp,0(sp)
   2dc78:	d839883a 	mov	fp,sp
  return ((alt_errno) ? alt_errno() : &errno);
   2dc7c:	d0a00917 	ldw	r2,-32732(gp)
   2dc80:	10000326 	beq	r2,zero,2dc90 <alt_get_errno+0x24>
   2dc84:	d0a00917 	ldw	r2,-32732(gp)
   2dc88:	103ee83a 	callr	r2
   2dc8c:	00000106 	br	2dc94 <alt_get_errno+0x28>
   2dc90:	d0a72104 	addi	r2,gp,-25468
}
   2dc94:	e037883a 	mov	sp,fp
   2dc98:	dfc00117 	ldw	ra,4(sp)
   2dc9c:	df000017 	ldw	fp,0(sp)
   2dca0:	dec00204 	addi	sp,sp,8
   2dca4:	f800283a 	ret

0002dca8 <isatty>:
 *
 * ALT_ISATTY is mapped onto the isatty() system call in alt_syscall.h
 */
 
int ALT_ISATTY (int file)
{
   2dca8:	deffea04 	addi	sp,sp,-88
   2dcac:	dfc01515 	stw	ra,84(sp)
   2dcb0:	df001415 	stw	fp,80(sp)
   2dcb4:	df001404 	addi	fp,sp,80
   2dcb8:	e13fec15 	stw	r4,-80(fp)
   * A common error case is that when the file descriptor was created, the call
   * to open() failed resulting in a negative file descriptor. This is trapped
   * below so that we don't try and process an invalid file descriptor.
   */

  fd = (file < 0) ? NULL : &alt_fd_list[file];
   2dcbc:	e0bfec17 	ldw	r2,-80(fp)
   2dcc0:	10000616 	blt	r2,zero,2dcdc <isatty+0x34>
   2dcc4:	e0bfec17 	ldw	r2,-80(fp)
   2dcc8:	10c00324 	muli	r3,r2,12
   2dccc:	008000f4 	movhi	r2,3
   2dcd0:	1085b304 	addi	r2,r2,5836
   2dcd4:	1885883a 	add	r2,r3,r2
   2dcd8:	00000106 	br	2dce0 <isatty+0x38>
   2dcdc:	0005883a 	mov	r2,zero
   2dce0:	e0bfff15 	stw	r2,-4(fp)
  
  if (fd)
   2dce4:	e0bfff17 	ldw	r2,-4(fp)
   2dce8:	10000e26 	beq	r2,zero,2dd24 <isatty+0x7c>
    /*
     * If a device driver does not provide an fstat() function, then it is 
     * treated as a terminal device by default.
     */

    if (!fd->dev->fstat)
   2dcec:	e0bfff17 	ldw	r2,-4(fp)
   2dcf0:	10800017 	ldw	r2,0(r2)
   2dcf4:	10800817 	ldw	r2,32(r2)
   2dcf8:	1000021e 	bne	r2,zero,2dd04 <isatty+0x5c>
    {
      return 1;
   2dcfc:	00800044 	movi	r2,1
   2dd00:	00000d06 	br	2dd38 <isatty+0x90>
     * this is called so that the device can identify itself.
     */ 

    else
    {
      fstat (file, &stat);
   2dd04:	e0bfed04 	addi	r2,fp,-76
   2dd08:	100b883a 	mov	r5,r2
   2dd0c:	e13fec17 	ldw	r4,-80(fp)
   2dd10:	002db9c0 	call	2db9c <fstat>
      return (stat.st_mode == _IFCHR) ? 1 : 0;
   2dd14:	e0bfee17 	ldw	r2,-72(fp)
   2dd18:	10880020 	cmpeqi	r2,r2,8192
   2dd1c:	10803fcc 	andi	r2,r2,255
   2dd20:	00000506 	br	2dd38 <isatty+0x90>
    }
  }
  else
  {
    ALT_ERRNO = EBADFD;
   2dd24:	002dc6c0 	call	2dc6c <alt_get_errno>
   2dd28:	1007883a 	mov	r3,r2
   2dd2c:	00801444 	movi	r2,81
   2dd30:	18800015 	stw	r2,0(r3)
    return 0;
   2dd34:	0005883a 	mov	r2,zero
  }
}
   2dd38:	e037883a 	mov	sp,fp
   2dd3c:	dfc00117 	ldw	ra,4(sp)
   2dd40:	df000017 	ldw	fp,0(sp)
   2dd44:	dec00204 	addi	sp,sp,8
   2dd48:	f800283a 	ret

0002dd4c <alt_get_errno>:
{
   2dd4c:	defffe04 	addi	sp,sp,-8
   2dd50:	dfc00115 	stw	ra,4(sp)
   2dd54:	df000015 	stw	fp,0(sp)
   2dd58:	d839883a 	mov	fp,sp
  return ((alt_errno) ? alt_errno() : &errno);
   2dd5c:	d0a00917 	ldw	r2,-32732(gp)
   2dd60:	10000326 	beq	r2,zero,2dd70 <alt_get_errno+0x24>
   2dd64:	d0a00917 	ldw	r2,-32732(gp)
   2dd68:	103ee83a 	callr	r2
   2dd6c:	00000106 	br	2dd74 <alt_get_errno+0x28>
   2dd70:	d0a72104 	addi	r2,gp,-25468
}
   2dd74:	e037883a 	mov	sp,fp
   2dd78:	dfc00117 	ldw	ra,4(sp)
   2dd7c:	df000017 	ldw	fp,0(sp)
   2dd80:	dec00204 	addi	sp,sp,8
   2dd84:	f800283a 	ret

0002dd88 <kill>:
 *
 * ALT_KILL is mapped onto the kill() system call in alt_syscall.h
 */

int ALT_KILL (int pid, int sig)
{
   2dd88:	defffb04 	addi	sp,sp,-20
   2dd8c:	dfc00415 	stw	ra,16(sp)
   2dd90:	df000315 	stw	fp,12(sp)
   2dd94:	df000304 	addi	fp,sp,12
   2dd98:	e13ffe15 	stw	r4,-8(fp)
   2dd9c:	e17ffd15 	stw	r5,-12(fp)
  int status = 0;
   2dda0:	e03fff15 	stw	zero,-4(fp)

  if (pid <= 0)
   2dda4:	e0bffe17 	ldw	r2,-8(fp)
   2dda8:	00801d16 	blt	zero,r2,2de20 <kill+0x98>
  {
    switch (sig)
   2ddac:	e0bffd17 	ldw	r2,-12(fp)
   2ddb0:	10002026 	beq	r2,zero,2de34 <kill+0xac>
   2ddb4:	e0bffd17 	ldw	r2,-12(fp)
   2ddb8:	10001616 	blt	r2,zero,2de14 <kill+0x8c>
   2ddbc:	e0bffd17 	ldw	r2,-12(fp)
   2ddc0:	10800808 	cmpgei	r2,r2,32
   2ddc4:	1000131e 	bne	r2,zero,2de14 <kill+0x8c>
   2ddc8:	e0bffd17 	ldw	r2,-12(fp)
   2ddcc:	108000d0 	cmplti	r2,r2,3
   2ddd0:	1000101e 	bne	r2,zero,2de14 <kill+0x8c>
   2ddd4:	e0bffd17 	ldw	r2,-12(fp)
   2ddd8:	00c00044 	movi	r3,1
   2dddc:	1886983a 	sll	r3,r3,r2
   2dde0:	00b3e074 	movhi	r2,53121
   2dde4:	10bfde04 	addi	r2,r2,-136
   2dde8:	1884703a 	and	r2,r3,r2
   2ddec:	1004c03a 	cmpne	r2,r2,zero
   2ddf0:	10803fcc 	andi	r2,r2,255
   2ddf4:	1000051e 	bne	r2,zero,2de0c <kill+0x84>
   2ddf8:	1880046c 	andhi	r2,r3,17
   2ddfc:	1004c03a 	cmpne	r2,r2,zero
   2de00:	10803fcc 	andi	r2,r2,255
   2de04:	10000d1e 	bne	r2,zero,2de3c <kill+0xb4>
   2de08:	00000206 	br	2de14 <kill+0x8c>
       * The Posix standard defines the default behaviour for all these signals 
       * as being eqivalent to a call to _exit(). No mechanism is provided to 
       * change this behaviour.
       */

      _exit(0);
   2de0c:	0009883a 	mov	r4,zero
   2de10:	002db240 	call	2db24 <_exit>
      break;
    default:

      /* Tried to send an unsupported signal */

      status = EINVAL;
   2de14:	00800584 	movi	r2,22
   2de18:	e0bfff15 	stw	r2,-4(fp)
   2de1c:	00000806 	br	2de40 <kill+0xb8>
    }
  }

  else if (pid > 0)
   2de20:	e0bffe17 	ldw	r2,-8(fp)
   2de24:	0080060e 	bge	zero,r2,2de40 <kill+0xb8>
  {
    /* Attempted to signal a non-existant process */

    status = ESRCH;
   2de28:	008000c4 	movi	r2,3
   2de2c:	e0bfff15 	stw	r2,-4(fp)
   2de30:	00000306 	br	2de40 <kill+0xb8>
      break;
   2de34:	0001883a 	nop
   2de38:	00000106 	br	2de40 <kill+0xb8>
      break;
   2de3c:	0001883a 	nop
  }

  if (status)
   2de40:	e0bfff17 	ldw	r2,-4(fp)
   2de44:	10000626 	beq	r2,zero,2de60 <kill+0xd8>
  {
    ALT_ERRNO = status;
   2de48:	002dd4c0 	call	2dd4c <alt_get_errno>
   2de4c:	1007883a 	mov	r3,r2
   2de50:	e0bfff17 	ldw	r2,-4(fp)
   2de54:	18800015 	stw	r2,0(r3)
    return -1;
   2de58:	00bfffc4 	movi	r2,-1
   2de5c:	00000106 	br	2de64 <kill+0xdc>
  }

  return 0;
   2de60:	0005883a 	mov	r2,zero
}
   2de64:	e037883a 	mov	sp,fp
   2de68:	dfc00117 	ldw	ra,4(sp)
   2de6c:	df000017 	ldw	fp,0(sp)
   2de70:	dec00204 	addi	sp,sp,8
   2de74:	f800283a 	ret

0002de78 <alt_load_section>:
 */

static void ALT_INLINE alt_load_section (alt_u32* from, 
                                         alt_u32* to, 
                                         alt_u32* end)
{
   2de78:	defffc04 	addi	sp,sp,-16
   2de7c:	df000315 	stw	fp,12(sp)
   2de80:	df000304 	addi	fp,sp,12
   2de84:	e13fff15 	stw	r4,-4(fp)
   2de88:	e17ffe15 	stw	r5,-8(fp)
   2de8c:	e1bffd15 	stw	r6,-12(fp)
  if (to != from)
   2de90:	e0fffe17 	ldw	r3,-8(fp)
   2de94:	e0bfff17 	ldw	r2,-4(fp)
   2de98:	18800c26 	beq	r3,r2,2decc <alt_load_section+0x54>
  {
    while( to != end )
   2de9c:	00000806 	br	2dec0 <alt_load_section+0x48>
    {
      *to++ = *from++;
   2dea0:	e0ffff17 	ldw	r3,-4(fp)
   2dea4:	18800104 	addi	r2,r3,4
   2dea8:	e0bfff15 	stw	r2,-4(fp)
   2deac:	e0bffe17 	ldw	r2,-8(fp)
   2deb0:	11000104 	addi	r4,r2,4
   2deb4:	e13ffe15 	stw	r4,-8(fp)
   2deb8:	18c00017 	ldw	r3,0(r3)
   2debc:	10c00015 	stw	r3,0(r2)
    while( to != end )
   2dec0:	e0fffe17 	ldw	r3,-8(fp)
   2dec4:	e0bffd17 	ldw	r2,-12(fp)
   2dec8:	18bff51e 	bne	r3,r2,2dea0 <alt_load_section+0x28>
    }
  }
}
   2decc:	0001883a 	nop
   2ded0:	e037883a 	mov	sp,fp
   2ded4:	df000017 	ldw	fp,0(sp)
   2ded8:	dec00104 	addi	sp,sp,4
   2dedc:	f800283a 	ret

0002dee0 <alt_load>:
 * there is no bootloader, so this application is responsible for loading to
 * RAM any sections that are required.
 */  

void alt_load (void)
{
   2dee0:	defffe04 	addi	sp,sp,-8
   2dee4:	dfc00115 	stw	ra,4(sp)
   2dee8:	df000015 	stw	fp,0(sp)
   2deec:	d839883a 	mov	fp,sp
  /* 
   * Copy the .rwdata section. 
   */

  alt_load_section (&__flash_rwdata_start, 
   2def0:	018000f4 	movhi	r6,3
   2def4:	318a4f04 	addi	r6,r6,10556
   2def8:	014000f4 	movhi	r5,3
   2defc:	29434304 	addi	r5,r5,3340
   2df00:	010000f4 	movhi	r4,3
   2df04:	210a4f04 	addi	r4,r4,10556
   2df08:	002de780 	call	2de78 <alt_load_section>

  /*
   * Copy the exception handler.
   */

  alt_load_section (&__flash_exceptions_start, 
   2df0c:	018000b4 	movhi	r6,2
   2df10:	31808f04 	addi	r6,r6,572
   2df14:	014000b4 	movhi	r5,2
   2df18:	29400804 	addi	r5,r5,32
   2df1c:	010000b4 	movhi	r4,2
   2df20:	21000804 	addi	r4,r4,32
   2df24:	002de780 	call	2de78 <alt_load_section>

  /*
   * Copy the .rodata section.
   */

  alt_load_section (&__flash_rodata_start, 
   2df28:	018000f4 	movhi	r6,3
   2df2c:	31834304 	addi	r6,r6,3340
   2df30:	014000f4 	movhi	r5,3
   2df34:	29417e04 	addi	r5,r5,1528
   2df38:	010000f4 	movhi	r4,3
   2df3c:	21017e04 	addi	r4,r4,1528
   2df40:	002de780 	call	2de78 <alt_load_section>
  
  /*
   * Now ensure that the caches are in synch.
   */
  
  alt_dcache_flush_all();
   2df44:	002f8080 	call	2f808 <alt_dcache_flush_all>
  alt_icache_flush_all();
   2df48:	002fa640 	call	2fa64 <alt_icache_flush_all>
}
   2df4c:	0001883a 	nop
   2df50:	e037883a 	mov	sp,fp
   2df54:	dfc00117 	ldw	ra,4(sp)
   2df58:	df000017 	ldw	fp,0(sp)
   2df5c:	dec00204 	addi	sp,sp,8
   2df60:	f800283a 	ret

0002df64 <alt_get_errno>:
{
   2df64:	defffe04 	addi	sp,sp,-8
   2df68:	dfc00115 	stw	ra,4(sp)
   2df6c:	df000015 	stw	fp,0(sp)
   2df70:	d839883a 	mov	fp,sp
  return ((alt_errno) ? alt_errno() : &errno);
   2df74:	d0a00917 	ldw	r2,-32732(gp)
   2df78:	10000326 	beq	r2,zero,2df88 <alt_get_errno+0x24>
   2df7c:	d0a00917 	ldw	r2,-32732(gp)
   2df80:	103ee83a 	callr	r2
   2df84:	00000106 	br	2df8c <alt_get_errno+0x28>
   2df88:	d0a72104 	addi	r2,gp,-25468
}
   2df8c:	e037883a 	mov	sp,fp
   2df90:	dfc00117 	ldw	ra,4(sp)
   2df94:	df000017 	ldw	fp,0(sp)
   2df98:	dec00204 	addi	sp,sp,8
   2df9c:	f800283a 	ret

0002dfa0 <lseek>:
 * ALT_LSEEK is mapped onto the lseek() system call in alt_syscall.h
 *
 */

off_t ALT_LSEEK (int file, off_t ptr, int dir)
{
   2dfa0:	defff904 	addi	sp,sp,-28
   2dfa4:	dfc00615 	stw	ra,24(sp)
   2dfa8:	df000515 	stw	fp,20(sp)
   2dfac:	df000504 	addi	fp,sp,20
   2dfb0:	e13ffd15 	stw	r4,-12(fp)
   2dfb4:	e17ffc15 	stw	r5,-16(fp)
   2dfb8:	e1bffb15 	stw	r6,-20(fp)
  alt_fd* fd;
  off_t   rc = 0; 
   2dfbc:	e03fff15 	stw	zero,-4(fp)
   * A common error case is that when the file descriptor was created, the call
   * to open() failed resulting in a negative file descriptor. This is trapped
   * below so that we don't try and process an invalid file descriptor.
   */

  fd = (file < 0) ? NULL : &alt_fd_list[file];
   2dfc0:	e0bffd17 	ldw	r2,-12(fp)
   2dfc4:	10000616 	blt	r2,zero,2dfe0 <lseek+0x40>
   2dfc8:	e0bffd17 	ldw	r2,-12(fp)
   2dfcc:	10c00324 	muli	r3,r2,12
   2dfd0:	008000f4 	movhi	r2,3
   2dfd4:	1085b304 	addi	r2,r2,5836
   2dfd8:	1885883a 	add	r2,r3,r2
   2dfdc:	00000106 	br	2dfe4 <lseek+0x44>
   2dfe0:	0005883a 	mov	r2,zero
   2dfe4:	e0bffe15 	stw	r2,-8(fp)
  
  if (fd) 
   2dfe8:	e0bffe17 	ldw	r2,-8(fp)
   2dfec:	10001026 	beq	r2,zero,2e030 <lseek+0x90>
    /*
     * If the device driver provides an implementation of the lseek() function,
     * then call that to process the request.
     */
 
    if (fd->dev->lseek)
   2dff0:	e0bffe17 	ldw	r2,-8(fp)
   2dff4:	10800017 	ldw	r2,0(r2)
   2dff8:	10800717 	ldw	r2,28(r2)
   2dffc:	10000926 	beq	r2,zero,2e024 <lseek+0x84>
    {
      rc = fd->dev->lseek(fd, ptr, dir);
   2e000:	e0bffe17 	ldw	r2,-8(fp)
   2e004:	10800017 	ldw	r2,0(r2)
   2e008:	10800717 	ldw	r2,28(r2)
   2e00c:	e1bffb17 	ldw	r6,-20(fp)
   2e010:	e17ffc17 	ldw	r5,-16(fp)
   2e014:	e13ffe17 	ldw	r4,-8(fp)
   2e018:	103ee83a 	callr	r2
   2e01c:	e0bfff15 	stw	r2,-4(fp)
   2e020:	00000506 	br	2e038 <lseek+0x98>
     * Otherwise return an error.
     */

    else
    {
      rc = -ENOTSUP;
   2e024:	00bfde84 	movi	r2,-134
   2e028:	e0bfff15 	stw	r2,-4(fp)
   2e02c:	00000206 	br	2e038 <lseek+0x98>
    }
  }
  else  
  {
    rc = -EBADFD;
   2e030:	00bfebc4 	movi	r2,-81
   2e034:	e0bfff15 	stw	r2,-4(fp)
  }

  if (rc < 0)
   2e038:	e0bfff17 	ldw	r2,-4(fp)
   2e03c:	1000070e 	bge	r2,zero,2e05c <lseek+0xbc>
  {
    ALT_ERRNO = -rc;
   2e040:	002df640 	call	2df64 <alt_get_errno>
   2e044:	1007883a 	mov	r3,r2
   2e048:	e0bfff17 	ldw	r2,-4(fp)
   2e04c:	0085c83a 	sub	r2,zero,r2
   2e050:	18800015 	stw	r2,0(r3)
    rc = -1;
   2e054:	00bfffc4 	movi	r2,-1
   2e058:	e0bfff15 	stw	r2,-4(fp)
  }

  return rc;
   2e05c:	e0bfff17 	ldw	r2,-4(fp)
}
   2e060:	e037883a 	mov	sp,fp
   2e064:	dfc00117 	ldw	ra,4(sp)
   2e068:	df000017 	ldw	fp,0(sp)
   2e06c:	dec00204 	addi	sp,sp,8
   2e070:	f800283a 	ret

0002e074 <alt_main>:
 * devices/filesystems/components in the system; and call the entry point for
 * the users application, i.e. main().
 */

void alt_main (void)
{
   2e074:	defffd04 	addi	sp,sp,-12
   2e078:	dfc00215 	stw	ra,8(sp)
   2e07c:	df000115 	stw	fp,4(sp)
   2e080:	df000104 	addi	fp,sp,4
#endif

  /* ALT LOG - please see HAL/sys/alt_log_printf.h for details */
  ALT_LOG_PRINT_BOOT("[alt_main.c] Entering alt_main, calling alt_irq_init.\r\n");
  /* Initialize the interrupt controller. */
  alt_irq_init (NULL);
   2e084:	0009883a 	mov	r4,zero
   2e088:	002e5180 	call	2e518 <alt_irq_init>

  /* Initialize the operating system */
  ALT_LOG_PRINT_BOOT("[alt_main.c] Done alt_irq_init, calling alt_os_init.\r\n");
  ALT_OS_INIT();
   2e08c:	0001883a 	nop
  ALT_LOG_PRINT_BOOT("[alt_main.c] Done OS Init, calling alt_sem_create.\r\n");
  ALT_SEM_CREATE (&alt_fd_list_lock, 1);

  /* Initialize the device drivers/software components. */
  ALT_LOG_PRINT_BOOT("[alt_main.c] Calling alt_sys_init.\r\n");
  alt_sys_init();
   2e090:	002e5540 	call	2e554 <alt_sys_init>
   * devices be present (not equal to /dev/null) and if direct drivers
   * aren't being used.
   */

    ALT_LOG_PRINT_BOOT("[alt_main.c] Redirecting IO.\r\n");
    alt_io_redirect(ALT_STDOUT, ALT_STDIN, ALT_STDERR);
   2e094:	018000f4 	movhi	r6,3
   2e098:	31832f04 	addi	r6,r6,3260
   2e09c:	014000f4 	movhi	r5,3
   2e0a0:	29432f04 	addi	r5,r5,3260
   2e0a4:	010000f4 	movhi	r4,3
   2e0a8:	21032f04 	addi	r4,r4,3260
   2e0ac:	002fb340 	call	2fb34 <alt_io_redirect>
  /* 
   * Call the C++ constructors 
   */

  ALT_LOG_PRINT_BOOT("[alt_main.c] Calling C++ constructors.\r\n");
  _do_ctors ();
   2e0b0:	002f90c0 	call	2f90c <_do_ctors>
   * redefined as _exit()). This is in the interest of reducing code footprint,
   * in that the atexit() overhead is removed when it's not needed.
   */

  ALT_LOG_PRINT_BOOT("[alt_main.c] Calling atexit.\r\n");
  atexit (_do_dtors);
   2e0b4:	010000f4 	movhi	r4,3
   2e0b8:	213e5c04 	addi	r4,r4,-1680
   2e0bc:	00303880 	call	30388 <atexit>
  ALT_LOG_PRINT_BOOT("[alt_main.c] Calling main.\r\n");

#ifdef ALT_NO_EXIT
  main (alt_argc, alt_argv, alt_envp);
#else
  result = main (alt_argc, alt_argv, alt_envp);
   2e0c0:	d0a72317 	ldw	r2,-25460(gp)
   2e0c4:	d0e72417 	ldw	r3,-25456(gp)
   2e0c8:	d1272517 	ldw	r4,-25452(gp)
   2e0cc:	200d883a 	mov	r6,r4
   2e0d0:	180b883a 	mov	r5,r3
   2e0d4:	1009883a 	mov	r4,r2
   2e0d8:	002057c0 	call	2057c <main>
   2e0dc:	e0bfff15 	stw	r2,-4(fp)
  close(STDOUT_FILENO);
   2e0e0:	01000044 	movi	r4,1
   2e0e4:	002da280 	call	2da28 <close>
  exit (result);
   2e0e8:	e13fff17 	ldw	r4,-4(fp)
   2e0ec:	003039c0 	call	3039c <exit>

0002e0f0 <__malloc_lock>:
 * configuration is single threaded, so there is nothing to do here. Note that 
 * this requires that malloc is never called by an interrupt service routine.
 */

void __malloc_lock ( struct _reent *_r )
{
   2e0f0:	defffe04 	addi	sp,sp,-8
   2e0f4:	df000115 	stw	fp,4(sp)
   2e0f8:	df000104 	addi	fp,sp,4
   2e0fc:	e13fff15 	stw	r4,-4(fp)
}
   2e100:	0001883a 	nop
   2e104:	e037883a 	mov	sp,fp
   2e108:	df000017 	ldw	fp,0(sp)
   2e10c:	dec00104 	addi	sp,sp,4
   2e110:	f800283a 	ret

0002e114 <__malloc_unlock>:
/*
 *
 */

void __malloc_unlock ( struct _reent *_r )
{
   2e114:	defffe04 	addi	sp,sp,-8
   2e118:	df000115 	stw	fp,4(sp)
   2e11c:	df000104 	addi	fp,sp,4
   2e120:	e13fff15 	stw	r4,-4(fp)
}
   2e124:	0001883a 	nop
   2e128:	e037883a 	mov	sp,fp
   2e12c:	df000017 	ldw	fp,0(sp)
   2e130:	dec00104 	addi	sp,sp,4
   2e134:	f800283a 	ret

0002e138 <alt_get_errno>:
{
   2e138:	defffe04 	addi	sp,sp,-8
   2e13c:	dfc00115 	stw	ra,4(sp)
   2e140:	df000015 	stw	fp,0(sp)
   2e144:	d839883a 	mov	fp,sp
  return ((alt_errno) ? alt_errno() : &errno);
   2e148:	d0a00917 	ldw	r2,-32732(gp)
   2e14c:	10000326 	beq	r2,zero,2e15c <alt_get_errno+0x24>
   2e150:	d0a00917 	ldw	r2,-32732(gp)
   2e154:	103ee83a 	callr	r2
   2e158:	00000106 	br	2e160 <alt_get_errno+0x28>
   2e15c:	d0a72104 	addi	r2,gp,-25468
}
   2e160:	e037883a 	mov	sp,fp
   2e164:	dfc00117 	ldw	ra,4(sp)
   2e168:	df000017 	ldw	fp,0(sp)
   2e16c:	dec00204 	addi	sp,sp,8
   2e170:	f800283a 	ret

0002e174 <read>:
}

#else /* !ALT_USE_DIRECT_DRIVERS */

int ALT_READ (int file, void *ptr, size_t len)
{
   2e174:	defff904 	addi	sp,sp,-28
   2e178:	dfc00615 	stw	ra,24(sp)
   2e17c:	df000515 	stw	fp,20(sp)
   2e180:	df000504 	addi	fp,sp,20
   2e184:	e13ffd15 	stw	r4,-12(fp)
   2e188:	e17ffc15 	stw	r5,-16(fp)
   2e18c:	e1bffb15 	stw	r6,-20(fp)
   * A common error case is that when the file descriptor was created, the call
   * to open() failed resulting in a negative file descriptor. This is trapped
   * below so that we don't try and process an invalid file descriptor.
   */

  fd = (file < 0) ? NULL : &alt_fd_list[file];
   2e190:	e0bffd17 	ldw	r2,-12(fp)
   2e194:	10000616 	blt	r2,zero,2e1b0 <read+0x3c>
   2e198:	e0bffd17 	ldw	r2,-12(fp)
   2e19c:	10c00324 	muli	r3,r2,12
   2e1a0:	008000f4 	movhi	r2,3
   2e1a4:	1085b304 	addi	r2,r2,5836
   2e1a8:	1885883a 	add	r2,r3,r2
   2e1ac:	00000106 	br	2e1b4 <read+0x40>
   2e1b0:	0005883a 	mov	r2,zero
   2e1b4:	e0bfff15 	stw	r2,-4(fp)
  
  if (fd)
   2e1b8:	e0bfff17 	ldw	r2,-4(fp)
   2e1bc:	10002226 	beq	r2,zero,2e248 <read+0xd4>
     * If the file has not been opened with read access, or if the driver does
     * not provide an implementation of read(), generate an error. Otherwise
     * call the drivers read() function to process the request.
     */

    if (((fd->fd_flags & O_ACCMODE) != O_WRONLY) && 
   2e1c0:	e0bfff17 	ldw	r2,-4(fp)
   2e1c4:	10800217 	ldw	r2,8(r2)
   2e1c8:	108000cc 	andi	r2,r2,3
   2e1cc:	10800060 	cmpeqi	r2,r2,1
   2e1d0:	1000181e 	bne	r2,zero,2e234 <read+0xc0>
        (fd->dev->read))
   2e1d4:	e0bfff17 	ldw	r2,-4(fp)
   2e1d8:	10800017 	ldw	r2,0(r2)
   2e1dc:	10800517 	ldw	r2,20(r2)
    if (((fd->fd_flags & O_ACCMODE) != O_WRONLY) && 
   2e1e0:	10001426 	beq	r2,zero,2e234 <read+0xc0>
      {
        if ((rval = fd->dev->read(fd, ptr, len)) < 0)
   2e1e4:	e0bfff17 	ldw	r2,-4(fp)
   2e1e8:	10800017 	ldw	r2,0(r2)
   2e1ec:	10800517 	ldw	r2,20(r2)
   2e1f0:	e0fffb17 	ldw	r3,-20(fp)
   2e1f4:	180d883a 	mov	r6,r3
   2e1f8:	e17ffc17 	ldw	r5,-16(fp)
   2e1fc:	e13fff17 	ldw	r4,-4(fp)
   2e200:	103ee83a 	callr	r2
   2e204:	e0bffe15 	stw	r2,-8(fp)
   2e208:	e0bffe17 	ldw	r2,-8(fp)
   2e20c:	1000070e 	bge	r2,zero,2e22c <read+0xb8>
        {
          ALT_ERRNO = -rval;
   2e210:	002e1380 	call	2e138 <alt_get_errno>
   2e214:	1007883a 	mov	r3,r2
   2e218:	e0bffe17 	ldw	r2,-8(fp)
   2e21c:	0085c83a 	sub	r2,zero,r2
   2e220:	18800015 	stw	r2,0(r3)
          return -1;
   2e224:	00bfffc4 	movi	r2,-1
   2e228:	00000c06 	br	2e25c <read+0xe8>
        }
        return rval;
   2e22c:	e0bffe17 	ldw	r2,-8(fp)
   2e230:	00000a06 	br	2e25c <read+0xe8>
      }
      else
      {
        ALT_ERRNO = EACCES;
   2e234:	002e1380 	call	2e138 <alt_get_errno>
   2e238:	1007883a 	mov	r3,r2
   2e23c:	00800344 	movi	r2,13
   2e240:	18800015 	stw	r2,0(r3)
   2e244:	00000406 	br	2e258 <read+0xe4>
      }
    }
  else
  {
    ALT_ERRNO = EBADFD;
   2e248:	002e1380 	call	2e138 <alt_get_errno>
   2e24c:	1007883a 	mov	r3,r2
   2e250:	00801444 	movi	r2,81
   2e254:	18800015 	stw	r2,0(r3)
  }
  return -1;
   2e258:	00bfffc4 	movi	r2,-1
}
   2e25c:	e037883a 	mov	sp,fp
   2e260:	dfc00117 	ldw	ra,4(sp)
   2e264:	df000017 	ldw	fp,0(sp)
   2e268:	dec00204 	addi	sp,sp,8
   2e26c:	f800283a 	ret

0002e270 <alt_release_fd>:
 * File descriptors correcponding to standard in, standard out and standard 
 * error cannont be released backed to the pool. They are always reserved.
 */

void alt_release_fd (int fd)
{
   2e270:	defffe04 	addi	sp,sp,-8
   2e274:	df000115 	stw	fp,4(sp)
   2e278:	df000104 	addi	fp,sp,4
   2e27c:	e13fff15 	stw	r4,-4(fp)
  if (fd > 2)
   2e280:	e0bfff17 	ldw	r2,-4(fp)
   2e284:	108000d0 	cmplti	r2,r2,3
   2e288:	10000a1e 	bne	r2,zero,2e2b4 <alt_release_fd+0x44>
  {
    alt_fd_list[fd].fd_flags = 0;
   2e28c:	e0bfff17 	ldw	r2,-4(fp)
   2e290:	10c00324 	muli	r3,r2,12
   2e294:	008000f4 	movhi	r2,3
   2e298:	1885883a 	add	r2,r3,r2
   2e29c:	1005b515 	stw	zero,5844(r2)
    alt_fd_list[fd].dev      = 0;
   2e2a0:	e0bfff17 	ldw	r2,-4(fp)
   2e2a4:	10c00324 	muli	r3,r2,12
   2e2a8:	008000f4 	movhi	r2,3
   2e2ac:	1885883a 	add	r2,r3,r2
   2e2b0:	1005b315 	stw	zero,5836(r2)
  }
}
   2e2b4:	0001883a 	nop
   2e2b8:	e037883a 	mov	sp,fp
   2e2bc:	df000017 	ldw	fp,0(sp)
   2e2c0:	dec00104 	addi	sp,sp,4
   2e2c4:	f800283a 	ret

0002e2c8 <sbrk>:
#endif
 
caddr_t ALT_SBRK (int incr) __attribute__ ((no_instrument_function ));

caddr_t ALT_SBRK (int incr)
{ 
   2e2c8:	defff904 	addi	sp,sp,-28
   2e2cc:	df000615 	stw	fp,24(sp)
   2e2d0:	df000604 	addi	fp,sp,24
   2e2d4:	e13ffa15 	stw	r4,-24(fp)
  NIOS2_READ_STATUS (context);
   2e2d8:	0005303a 	rdctl	r2,status
   2e2dc:	e0bffd15 	stw	r2,-12(fp)
  NIOS2_WRITE_STATUS (context & ~NIOS2_STATUS_PIE_MSK);
   2e2e0:	e0fffd17 	ldw	r3,-12(fp)
   2e2e4:	00bfff84 	movi	r2,-2
   2e2e8:	1884703a 	and	r2,r3,r2
   2e2ec:	1001703a 	wrctl	status,r2
  return context;
   2e2f0:	e0bffd17 	ldw	r2,-12(fp)
  alt_irq_context context;
  char *prev_heap_end; 

  context = alt_irq_disable_all();
   2e2f4:	e0bfff15 	stw	r2,-4(fp)

  /* Always return data aligned on a word boundary */
  heap_end = (char *)(((unsigned int)heap_end + 3) & ~3);
   2e2f8:	d0a00a17 	ldw	r2,-32728(gp)
   2e2fc:	10c000c4 	addi	r3,r2,3
   2e300:	00bfff04 	movi	r2,-4
   2e304:	1884703a 	and	r2,r3,r2
   2e308:	d0a00a15 	stw	r2,-32728(gp)
  if (((heap_end + incr) - __alt_heap_start) > ALT_MAX_HEAP_BYTES) {
    alt_irq_enable_all(context);
    return (caddr_t)-1;
  }
#else
  if ((heap_end + incr) > __alt_heap_limit) {
   2e30c:	d0e00a17 	ldw	r3,-32728(gp)
   2e310:	e0bffa17 	ldw	r2,-24(fp)
   2e314:	1887883a 	add	r3,r3,r2
   2e318:	00800134 	movhi	r2,4
   2e31c:	10800004 	addi	r2,r2,0
   2e320:	10c0072e 	bgeu	r2,r3,2e340 <sbrk+0x78>
   2e324:	e0bfff17 	ldw	r2,-4(fp)
   2e328:	e0bffc15 	stw	r2,-16(fp)
  NIOS2_WRITE_STATUS (context);
   2e32c:	e0bffc17 	ldw	r2,-16(fp)
   2e330:	1001703a 	wrctl	status,r2
}
   2e334:	0001883a 	nop
    alt_irq_enable_all(context);
    return (caddr_t)-1;
   2e338:	00bfffc4 	movi	r2,-1
   2e33c:	00000c06 	br	2e370 <sbrk+0xa8>
  }
#endif

  prev_heap_end = heap_end; 
   2e340:	d0a00a17 	ldw	r2,-32728(gp)
   2e344:	e0bffe15 	stw	r2,-8(fp)
  heap_end += incr; 
   2e348:	d0e00a17 	ldw	r3,-32728(gp)
   2e34c:	e0bffa17 	ldw	r2,-24(fp)
   2e350:	1885883a 	add	r2,r3,r2
   2e354:	d0a00a15 	stw	r2,-32728(gp)
   2e358:	e0bfff17 	ldw	r2,-4(fp)
   2e35c:	e0bffb15 	stw	r2,-20(fp)
  NIOS2_WRITE_STATUS (context);
   2e360:	e0bffb17 	ldw	r2,-20(fp)
   2e364:	1001703a 	wrctl	status,r2
}
   2e368:	0001883a 	nop

#endif

  alt_irq_enable_all(context);

  return (caddr_t) prev_heap_end; 
   2e36c:	e0bffe17 	ldw	r2,-8(fp)
} 
   2e370:	e037883a 	mov	sp,fp
   2e374:	df000017 	ldw	fp,0(sp)
   2e378:	dec00104 	addi	sp,sp,4
   2e37c:	f800283a 	ret

0002e380 <usleep>:
#if defined (__GNUC__) && __GNUC__ >= 4
int ALT_USLEEP (useconds_t us)
#else
unsigned int ALT_USLEEP (unsigned int us)
#endif
{
   2e380:	defffd04 	addi	sp,sp,-12
   2e384:	dfc00215 	stw	ra,8(sp)
   2e388:	df000115 	stw	fp,4(sp)
   2e38c:	df000104 	addi	fp,sp,4
   2e390:	e13fff15 	stw	r4,-4(fp)
  return alt_busy_sleep(us);
   2e394:	e13fff17 	ldw	r4,-4(fp)
   2e398:	002f6b00 	call	2f6b0 <alt_busy_sleep>
}
   2e39c:	e037883a 	mov	sp,fp
   2e3a0:	dfc00117 	ldw	ra,4(sp)
   2e3a4:	df000017 	ldw	fp,0(sp)
   2e3a8:	dec00204 	addi	sp,sp,8
   2e3ac:	f800283a 	ret

0002e3b0 <alt_get_errno>:
{
   2e3b0:	defffe04 	addi	sp,sp,-8
   2e3b4:	dfc00115 	stw	ra,4(sp)
   2e3b8:	df000015 	stw	fp,0(sp)
   2e3bc:	d839883a 	mov	fp,sp
  return ((alt_errno) ? alt_errno() : &errno);
   2e3c0:	d0a00917 	ldw	r2,-32732(gp)
   2e3c4:	10000326 	beq	r2,zero,2e3d4 <alt_get_errno+0x24>
   2e3c8:	d0a00917 	ldw	r2,-32732(gp)
   2e3cc:	103ee83a 	callr	r2
   2e3d0:	00000106 	br	2e3d8 <alt_get_errno+0x28>
   2e3d4:	d0a72104 	addi	r2,gp,-25468
}
   2e3d8:	e037883a 	mov	sp,fp
   2e3dc:	dfc00117 	ldw	ra,4(sp)
   2e3e0:	df000017 	ldw	fp,0(sp)
   2e3e4:	dec00204 	addi	sp,sp,8
   2e3e8:	f800283a 	ret

0002e3ec <write>:
}

#else /* !ALT_USE_DIRECT_DRIVERS */

int ALT_WRITE (int file, const void *ptr, size_t len)
{
   2e3ec:	defff904 	addi	sp,sp,-28
   2e3f0:	dfc00615 	stw	ra,24(sp)
   2e3f4:	df000515 	stw	fp,20(sp)
   2e3f8:	df000504 	addi	fp,sp,20
   2e3fc:	e13ffd15 	stw	r4,-12(fp)
   2e400:	e17ffc15 	stw	r5,-16(fp)
   2e404:	e1bffb15 	stw	r6,-20(fp)
   * A common error case is that when the file descriptor was created, the call
   * to open() failed resulting in a negative file descriptor. This is trapped
   * below so that we don't try and process an invalid file descriptor.
   */

  fd = (file < 0) ? NULL : &alt_fd_list[file];
   2e408:	e0bffd17 	ldw	r2,-12(fp)
   2e40c:	10000616 	blt	r2,zero,2e428 <write+0x3c>
   2e410:	e0bffd17 	ldw	r2,-12(fp)
   2e414:	10c00324 	muli	r3,r2,12
   2e418:	008000f4 	movhi	r2,3
   2e41c:	1085b304 	addi	r2,r2,5836
   2e420:	1885883a 	add	r2,r3,r2
   2e424:	00000106 	br	2e42c <write+0x40>
   2e428:	0005883a 	mov	r2,zero
   2e42c:	e0bfff15 	stw	r2,-4(fp)
  
  if (fd)
   2e430:	e0bfff17 	ldw	r2,-4(fp)
   2e434:	10002126 	beq	r2,zero,2e4bc <write+0xd0>
     * If the file has not been opened with write access, or if the driver does
     * not provide an implementation of write(), generate an error. Otherwise
     * call the drivers write() function to process the request.
     */

    if (((fd->fd_flags & O_ACCMODE) != O_RDONLY) && fd->dev->write)
   2e438:	e0bfff17 	ldw	r2,-4(fp)
   2e43c:	10800217 	ldw	r2,8(r2)
   2e440:	108000cc 	andi	r2,r2,3
   2e444:	10001826 	beq	r2,zero,2e4a8 <write+0xbc>
   2e448:	e0bfff17 	ldw	r2,-4(fp)
   2e44c:	10800017 	ldw	r2,0(r2)
   2e450:	10800617 	ldw	r2,24(r2)
   2e454:	10001426 	beq	r2,zero,2e4a8 <write+0xbc>
    {
      
      /* ALT_LOG - see altera_hal/HAL/inc/sys/alt_log_printf.h */
      ALT_LOG_WRITE_FUNCTION(ptr,len);

      if ((rval = fd->dev->write(fd, ptr, len)) < 0)
   2e458:	e0bfff17 	ldw	r2,-4(fp)
   2e45c:	10800017 	ldw	r2,0(r2)
   2e460:	10800617 	ldw	r2,24(r2)
   2e464:	e0fffb17 	ldw	r3,-20(fp)
   2e468:	180d883a 	mov	r6,r3
   2e46c:	e17ffc17 	ldw	r5,-16(fp)
   2e470:	e13fff17 	ldw	r4,-4(fp)
   2e474:	103ee83a 	callr	r2
   2e478:	e0bffe15 	stw	r2,-8(fp)
   2e47c:	e0bffe17 	ldw	r2,-8(fp)
   2e480:	1000070e 	bge	r2,zero,2e4a0 <write+0xb4>
      {
        ALT_ERRNO = -rval;
   2e484:	002e3b00 	call	2e3b0 <alt_get_errno>
   2e488:	1007883a 	mov	r3,r2
   2e48c:	e0bffe17 	ldw	r2,-8(fp)
   2e490:	0085c83a 	sub	r2,zero,r2
   2e494:	18800015 	stw	r2,0(r3)
        return -1;
   2e498:	00bfffc4 	movi	r2,-1
   2e49c:	00000c06 	br	2e4d0 <write+0xe4>
      }
      return rval;
   2e4a0:	e0bffe17 	ldw	r2,-8(fp)
   2e4a4:	00000a06 	br	2e4d0 <write+0xe4>
    }
    else
    {
      ALT_ERRNO = EACCES;
   2e4a8:	002e3b00 	call	2e3b0 <alt_get_errno>
   2e4ac:	1007883a 	mov	r3,r2
   2e4b0:	00800344 	movi	r2,13
   2e4b4:	18800015 	stw	r2,0(r3)
   2e4b8:	00000406 	br	2e4cc <write+0xe0>
    }
  }
  else  
  {
    ALT_ERRNO = EBADFD;
   2e4bc:	002e3b00 	call	2e3b0 <alt_get_errno>
   2e4c0:	1007883a 	mov	r3,r2
   2e4c4:	00801444 	movi	r2,81
   2e4c8:	18800015 	stw	r2,0(r3)
  }
  return -1;
   2e4cc:	00bfffc4 	movi	r2,-1
}
   2e4d0:	e037883a 	mov	sp,fp
   2e4d4:	dfc00117 	ldw	ra,4(sp)
   2e4d8:	df000017 	ldw	fp,0(sp)
   2e4dc:	dec00204 	addi	sp,sp,8
   2e4e0:	f800283a 	ret

0002e4e4 <alt_dev_reg>:
 */

extern int alt_fs_reg  (alt_dev* dev); 

static ALT_INLINE int alt_dev_reg (alt_dev* dev)
{
   2e4e4:	defffd04 	addi	sp,sp,-12
   2e4e8:	dfc00215 	stw	ra,8(sp)
   2e4ec:	df000115 	stw	fp,4(sp)
   2e4f0:	df000104 	addi	fp,sp,4
   2e4f4:	e13fff15 	stw	r4,-4(fp)
  extern alt_llist alt_dev_list;

  return alt_dev_llist_insert ((alt_dev_llist*) dev, &alt_dev_list);
   2e4f8:	d1600604 	addi	r5,gp,-32744
   2e4fc:	e13fff17 	ldw	r4,-4(fp)
   2e500:	002f8640 	call	2f864 <alt_dev_llist_insert>
}
   2e504:	e037883a 	mov	sp,fp
   2e508:	dfc00117 	ldw	ra,4(sp)
   2e50c:	df000017 	ldw	fp,0(sp)
   2e510:	dec00204 	addi	sp,sp,8
   2e514:	f800283a 	ret

0002e518 <alt_irq_init>:
 * The "base" parameter is ignored and only
 * present for backwards-compatibility.
 */

void alt_irq_init ( const void* base )
{
   2e518:	defffd04 	addi	sp,sp,-12
   2e51c:	dfc00215 	stw	ra,8(sp)
   2e520:	df000115 	stw	fp,4(sp)
   2e524:	df000104 	addi	fp,sp,4
   2e528:	e13fff15 	stw	r4,-4(fp)
    ALTERA_NIOS2_GEN2_IRQ_INIT ( NIOS2_GEN2_0, nios2_gen2_0);
   2e52c:	00301480 	call	30148 <altera_nios2_gen2_irq_init>
    NIOS2_WRITE_STATUS(NIOS2_STATUS_PIE_MSK
   2e530:	00800044 	movi	r2,1
   2e534:	1001703a 	wrctl	status,r2
}
   2e538:	0001883a 	nop
    alt_irq_cpu_enable_interrupts();
}
   2e53c:	0001883a 	nop
   2e540:	e037883a 	mov	sp,fp
   2e544:	dfc00117 	ldw	ra,4(sp)
   2e548:	df000017 	ldw	fp,0(sp)
   2e54c:	dec00204 	addi	sp,sp,8
   2e550:	f800283a 	ret

0002e554 <alt_sys_init>:
 * Initialize the non-interrupt controller devices.
 * Called after alt_irq_init().
 */

void alt_sys_init( void )
{
   2e554:	defffe04 	addi	sp,sp,-8
   2e558:	dfc00115 	stw	ra,4(sp)
   2e55c:	df000015 	stw	fp,0(sp)
   2e560:	d839883a 	mov	fp,sp
    ALTERA_AVALON_JTAG_UART_INIT ( JTAG_UART_0, jtag_uart_0);
   2e564:	000d883a 	mov	r6,zero
   2e568:	000b883a 	mov	r5,zero
   2e56c:	010000f4 	movhi	r4,3
   2e570:	21061d04 	addi	r4,r4,6260
   2e574:	002e71c0 	call	2e71c <altera_avalon_jtag_uart_init>
   2e578:	010000f4 	movhi	r4,3
   2e57c:	21061304 	addi	r4,r4,6220
   2e580:	002e4e40 	call	2e4e4 <alt_dev_reg>
    ALTERA_AVALON_SYSID_QSYS_INIT ( SYSID_QSYS_0, sysid_qsys_0);
   2e584:	0001883a 	nop
    ALTERA_UP_AVALON_ACCELEROMETER_SPI_INIT ( ACCELEROMETER_SPI_0, accelerometer_spi_0);
   2e588:	010000f4 	movhi	r4,3
   2e58c:	210a2b04 	addi	r4,r4,10412
   2e590:	002e4e40 	call	2e4e4 <alt_dev_reg>
    ALTERA_UP_AVALON_ADC_INIT ( ADC_0, adc_0);
   2e594:	010000f4 	movhi	r4,3
   2e598:	210a3604 	addi	r4,r4,10456
   2e59c:	002e4e40 	call	2e4e4 <alt_dev_reg>
}
   2e5a0:	0001883a 	nop
   2e5a4:	e037883a 	mov	sp,fp
   2e5a8:	dfc00117 	ldw	ra,4(sp)
   2e5ac:	df000017 	ldw	fp,0(sp)
   2e5b0:	dec00204 	addi	sp,sp,8
   2e5b4:	f800283a 	ret

0002e5b8 <altera_avalon_jtag_uart_read_fd>:
 *
 */

int 
altera_avalon_jtag_uart_read_fd(alt_fd* fd, char* buffer, int space)
{
   2e5b8:	defffa04 	addi	sp,sp,-24
   2e5bc:	dfc00515 	stw	ra,20(sp)
   2e5c0:	df000415 	stw	fp,16(sp)
   2e5c4:	df000404 	addi	fp,sp,16
   2e5c8:	e13ffe15 	stw	r4,-8(fp)
   2e5cc:	e17ffd15 	stw	r5,-12(fp)
   2e5d0:	e1bffc15 	stw	r6,-16(fp)
    altera_avalon_jtag_uart_dev* dev = (altera_avalon_jtag_uart_dev*) fd->dev; 
   2e5d4:	e0bffe17 	ldw	r2,-8(fp)
   2e5d8:	10800017 	ldw	r2,0(r2)
   2e5dc:	e0bfff15 	stw	r2,-4(fp)

    return altera_avalon_jtag_uart_read(&dev->state, buffer, space,
   2e5e0:	e0bfff17 	ldw	r2,-4(fp)
   2e5e4:	10c00a04 	addi	r3,r2,40
   2e5e8:	e0bffe17 	ldw	r2,-8(fp)
   2e5ec:	10800217 	ldw	r2,8(r2)
   2e5f0:	100f883a 	mov	r7,r2
   2e5f4:	e1bffc17 	ldw	r6,-16(fp)
   2e5f8:	e17ffd17 	ldw	r5,-12(fp)
   2e5fc:	1809883a 	mov	r4,r3
   2e600:	002ebec0 	call	2ebec <altera_avalon_jtag_uart_read>
      fd->fd_flags);
}
   2e604:	e037883a 	mov	sp,fp
   2e608:	dfc00117 	ldw	ra,4(sp)
   2e60c:	df000017 	ldw	fp,0(sp)
   2e610:	dec00204 	addi	sp,sp,8
   2e614:	f800283a 	ret

0002e618 <altera_avalon_jtag_uart_write_fd>:

int 
altera_avalon_jtag_uart_write_fd(alt_fd* fd, const char* buffer, int space)
{
   2e618:	defffa04 	addi	sp,sp,-24
   2e61c:	dfc00515 	stw	ra,20(sp)
   2e620:	df000415 	stw	fp,16(sp)
   2e624:	df000404 	addi	fp,sp,16
   2e628:	e13ffe15 	stw	r4,-8(fp)
   2e62c:	e17ffd15 	stw	r5,-12(fp)
   2e630:	e1bffc15 	stw	r6,-16(fp)
    altera_avalon_jtag_uart_dev* dev = (altera_avalon_jtag_uart_dev*) fd->dev; 
   2e634:	e0bffe17 	ldw	r2,-8(fp)
   2e638:	10800017 	ldw	r2,0(r2)
   2e63c:	e0bfff15 	stw	r2,-4(fp)

    return altera_avalon_jtag_uart_write(&dev->state, buffer, space,
   2e640:	e0bfff17 	ldw	r2,-4(fp)
   2e644:	10c00a04 	addi	r3,r2,40
   2e648:	e0bffe17 	ldw	r2,-8(fp)
   2e64c:	10800217 	ldw	r2,8(r2)
   2e650:	100f883a 	mov	r7,r2
   2e654:	e1bffc17 	ldw	r6,-16(fp)
   2e658:	e17ffd17 	ldw	r5,-12(fp)
   2e65c:	1809883a 	mov	r4,r3
   2e660:	002ee0c0 	call	2ee0c <altera_avalon_jtag_uart_write>
      fd->fd_flags);
}
   2e664:	e037883a 	mov	sp,fp
   2e668:	dfc00117 	ldw	ra,4(sp)
   2e66c:	df000017 	ldw	fp,0(sp)
   2e670:	dec00204 	addi	sp,sp,8
   2e674:	f800283a 	ret

0002e678 <altera_avalon_jtag_uart_close_fd>:

#ifndef ALTERA_AVALON_JTAG_UART_SMALL

int 
altera_avalon_jtag_uart_close_fd(alt_fd* fd)
{
   2e678:	defffc04 	addi	sp,sp,-16
   2e67c:	dfc00315 	stw	ra,12(sp)
   2e680:	df000215 	stw	fp,8(sp)
   2e684:	df000204 	addi	fp,sp,8
   2e688:	e13ffe15 	stw	r4,-8(fp)
    altera_avalon_jtag_uart_dev* dev = (altera_avalon_jtag_uart_dev*) fd->dev; 
   2e68c:	e0bffe17 	ldw	r2,-8(fp)
   2e690:	10800017 	ldw	r2,0(r2)
   2e694:	e0bfff15 	stw	r2,-4(fp)

    return altera_avalon_jtag_uart_close(&dev->state, fd->fd_flags);
   2e698:	e0bfff17 	ldw	r2,-4(fp)
   2e69c:	10c00a04 	addi	r3,r2,40
   2e6a0:	e0bffe17 	ldw	r2,-8(fp)
   2e6a4:	10800217 	ldw	r2,8(r2)
   2e6a8:	100b883a 	mov	r5,r2
   2e6ac:	1809883a 	mov	r4,r3
   2e6b0:	002ea900 	call	2ea90 <altera_avalon_jtag_uart_close>
}
   2e6b4:	e037883a 	mov	sp,fp
   2e6b8:	dfc00117 	ldw	ra,4(sp)
   2e6bc:	df000017 	ldw	fp,0(sp)
   2e6c0:	dec00204 	addi	sp,sp,8
   2e6c4:	f800283a 	ret

0002e6c8 <altera_avalon_jtag_uart_ioctl_fd>:

int 
altera_avalon_jtag_uart_ioctl_fd(alt_fd* fd, int req, void* arg)
{
   2e6c8:	defffa04 	addi	sp,sp,-24
   2e6cc:	dfc00515 	stw	ra,20(sp)
   2e6d0:	df000415 	stw	fp,16(sp)
   2e6d4:	df000404 	addi	fp,sp,16
   2e6d8:	e13ffe15 	stw	r4,-8(fp)
   2e6dc:	e17ffd15 	stw	r5,-12(fp)
   2e6e0:	e1bffc15 	stw	r6,-16(fp)
    altera_avalon_jtag_uart_dev* dev = (altera_avalon_jtag_uart_dev*) fd->dev;
   2e6e4:	e0bffe17 	ldw	r2,-8(fp)
   2e6e8:	10800017 	ldw	r2,0(r2)
   2e6ec:	e0bfff15 	stw	r2,-4(fp)

    return altera_avalon_jtag_uart_ioctl(&dev->state, req, arg);
   2e6f0:	e0bfff17 	ldw	r2,-4(fp)
   2e6f4:	10800a04 	addi	r2,r2,40
   2e6f8:	e1bffc17 	ldw	r6,-16(fp)
   2e6fc:	e17ffd17 	ldw	r5,-12(fp)
   2e700:	1009883a 	mov	r4,r2
   2e704:	002eaf80 	call	2eaf8 <altera_avalon_jtag_uart_ioctl>
}
   2e708:	e037883a 	mov	sp,fp
   2e70c:	dfc00117 	ldw	ra,4(sp)
   2e710:	df000017 	ldw	fp,0(sp)
   2e714:	dec00204 	addi	sp,sp,8
   2e718:	f800283a 	ret

0002e71c <altera_avalon_jtag_uart_init>:
 * Return 1 on sucessful IRQ register and 0 on failure.
 */

void altera_avalon_jtag_uart_init(altera_avalon_jtag_uart_state* sp, 
                                  int irq_controller_id, int irq)
{
   2e71c:	defffb04 	addi	sp,sp,-20
   2e720:	dfc00415 	stw	ra,16(sp)
   2e724:	df000315 	stw	fp,12(sp)
   2e728:	df000304 	addi	fp,sp,12
   2e72c:	e13fff15 	stw	r4,-4(fp)
   2e730:	e17ffe15 	stw	r5,-8(fp)
   2e734:	e1bffd15 	stw	r6,-12(fp)
  ALT_FLAG_CREATE(&sp->events, 0);
  ALT_SEM_CREATE(&sp->read_lock, 1);
  ALT_SEM_CREATE(&sp->write_lock, 1);

  /* enable read interrupts at the device */
  sp->irq_enable = ALTERA_AVALON_JTAG_UART_CONTROL_RE_MSK;
   2e738:	e0bfff17 	ldw	r2,-4(fp)
   2e73c:	00c00044 	movi	r3,1
   2e740:	10c00815 	stw	r3,32(r2)

  IOWR_ALTERA_AVALON_JTAG_UART_CONTROL(sp->base, sp->irq_enable); 
   2e744:	e0bfff17 	ldw	r2,-4(fp)
   2e748:	10800017 	ldw	r2,0(r2)
   2e74c:	10800104 	addi	r2,r2,4
   2e750:	1007883a 	mov	r3,r2
   2e754:	e0bfff17 	ldw	r2,-4(fp)
   2e758:	10800817 	ldw	r2,32(r2)
   2e75c:	18800035 	stwio	r2,0(r3)
  /* register the interrupt handler */
#ifdef ALT_ENHANCED_INTERRUPT_API_PRESENT
  alt_ic_isr_register(irq_controller_id, irq, altera_avalon_jtag_uart_irq, 
                      sp, NULL);
#else
  alt_irq_register(irq, sp, altera_avalon_jtag_uart_irq);
   2e760:	e0bffd17 	ldw	r2,-12(fp)
   2e764:	018000f4 	movhi	r6,3
   2e768:	31b9f404 	addi	r6,r6,-6192
   2e76c:	e17fff17 	ldw	r5,-4(fp)
   2e770:	1009883a 	mov	r4,r2
   2e774:	002fbb00 	call	2fbb0 <alt_irq_register>
#endif  

  /* Register an alarm to go off every second to check for presence of host */
  sp->host_inactive = 0;
   2e778:	e0bfff17 	ldw	r2,-4(fp)
   2e77c:	10000915 	stw	zero,36(r2)

  if (alt_alarm_start(&sp->alarm, alt_ticks_per_second(), 
   2e780:	e0bfff17 	ldw	r2,-4(fp)
   2e784:	10800204 	addi	r2,r2,8
 * Obtain the system clock rate in ticks/s. 
 */

static ALT_INLINE alt_u32 ALT_ALWAYS_INLINE alt_ticks_per_second (void)
{
  return _alt_tick_rate;
   2e788:	d0e72717 	ldw	r3,-25444(gp)
   2e78c:	e1ffff17 	ldw	r7,-4(fp)
   2e790:	018000f4 	movhi	r6,3
   2e794:	31ba7a04 	addi	r6,r6,-5656
   2e798:	180b883a 	mov	r5,r3
   2e79c:	1009883a 	mov	r4,r2
   2e7a0:	002f5500 	call	2f550 <alt_alarm_start>
   2e7a4:	1000040e 	bge	r2,zero,2e7b8 <altera_avalon_jtag_uart_init+0x9c>
    &altera_avalon_jtag_uart_timeout, sp) < 0)
  {
    /* If we can't set the alarm then record "don't know if host present" 
     * and behave as though the host is present.
     */
    sp->timeout = INT_MAX;
   2e7a8:	e0ffff17 	ldw	r3,-4(fp)
   2e7ac:	00a00034 	movhi	r2,32768
   2e7b0:	10bfffc4 	addi	r2,r2,-1
   2e7b4:	18800115 	stw	r2,4(r3)
  }

  /* ALT_LOG - see altera_hal/HAL/inc/sys/alt_log_printf.h */ 
  ALT_LOG_JTAG_UART_ALARM_REGISTER(sp, sp->base);
}
   2e7b8:	0001883a 	nop
   2e7bc:	e037883a 	mov	sp,fp
   2e7c0:	dfc00117 	ldw	ra,4(sp)
   2e7c4:	df000017 	ldw	fp,0(sp)
   2e7c8:	dec00204 	addi	sp,sp,8
   2e7cc:	f800283a 	ret

0002e7d0 <altera_avalon_jtag_uart_irq>:
#ifdef ALT_ENHANCED_INTERRUPT_API_PRESENT
static void altera_avalon_jtag_uart_irq(void* context)
#else
static void altera_avalon_jtag_uart_irq(void* context, alt_u32 id)
#endif
{
   2e7d0:	defff604 	addi	sp,sp,-40
   2e7d4:	df000915 	stw	fp,36(sp)
   2e7d8:	df000904 	addi	fp,sp,36
   2e7dc:	e13ff815 	stw	r4,-32(fp)
   2e7e0:	e17ff715 	stw	r5,-36(fp)
  altera_avalon_jtag_uart_state* sp = (altera_avalon_jtag_uart_state*) context;
   2e7e4:	e0bff817 	ldw	r2,-32(fp)
   2e7e8:	e0bffc15 	stw	r2,-16(fp)
  unsigned int base = sp->base;
   2e7ec:	e0bffc17 	ldw	r2,-16(fp)
   2e7f0:	10800017 	ldw	r2,0(r2)
   2e7f4:	e0bffb15 	stw	r2,-20(fp)
  unsigned int postflag=0;
   2e7f8:	e03fff15 	stw	zero,-4(fp)
  /* ALT_LOG - see altera_hal/HAL/inc/sys/alt_log_printf.h */ 
  ALT_LOG_JTAG_UART_ISR_FUNCTION(base, sp);

  for ( ; ; )
  {
    unsigned int control = IORD_ALTERA_AVALON_JTAG_UART_CONTROL(base);
   2e7fc:	e0bffb17 	ldw	r2,-20(fp)
   2e800:	10800104 	addi	r2,r2,4
   2e804:	10800037 	ldwio	r2,0(r2)
   2e808:	e0bffa15 	stw	r2,-24(fp)

    /* Return once nothing more to do */
    if ((control & (ALTERA_AVALON_JTAG_UART_CONTROL_RI_MSK | ALTERA_AVALON_JTAG_UART_CONTROL_WI_MSK)) == 0)
   2e80c:	e0bffa17 	ldw	r2,-24(fp)
   2e810:	1080c00c 	andi	r2,r2,768
   2e814:	10006e26 	beq	r2,zero,2e9d0 <altera_avalon_jtag_uart_irq+0x200>
      break;

    if (control & ALTERA_AVALON_JTAG_UART_CONTROL_RI_MSK)
   2e818:	e0bffa17 	ldw	r2,-24(fp)
   2e81c:	1080400c 	andi	r2,r2,256
   2e820:	10003526 	beq	r2,zero,2e8f8 <altera_avalon_jtag_uart_irq+0x128>
    {
      /* process a read irq.  Start by assuming that there is data in the
       * receive FIFO (otherwise why would we have been interrupted?)
       */
      unsigned int data = 1 << ALTERA_AVALON_JTAG_UART_DATA_RAVAIL_OFST;
   2e824:	00800074 	movhi	r2,1
   2e828:	e0bffe15 	stw	r2,-8(fp)
      for ( ; ; )
      {
        /* Check whether there is space in the buffer.  If not then we must not
         * read any characters from the buffer as they will be lost.
         */
        unsigned int next = (sp->rx_in + 1) % ALTERA_AVALON_JTAG_UART_BUF_LEN;
   2e82c:	e0bffc17 	ldw	r2,-16(fp)
   2e830:	10800a17 	ldw	r2,40(r2)
   2e834:	10800044 	addi	r2,r2,1
   2e838:	1081ffcc 	andi	r2,r2,2047
   2e83c:	e0bff915 	stw	r2,-28(fp)
        if (next == sp->rx_out)
   2e840:	e0bffc17 	ldw	r2,-16(fp)
   2e844:	10800b17 	ldw	r2,44(r2)
   2e848:	e0fff917 	ldw	r3,-28(fp)
   2e84c:	18801526 	beq	r3,r2,2e8a4 <altera_avalon_jtag_uart_irq+0xd4>
          break;

        /* Try to remove a character from the FIFO and find out whether there
         * are any more characters remaining.
         */
        data = IORD_ALTERA_AVALON_JTAG_UART_DATA(base);
   2e850:	e0bffb17 	ldw	r2,-20(fp)
   2e854:	10800037 	ldwio	r2,0(r2)
   2e858:	e0bffe15 	stw	r2,-8(fp)
        
        if ((data & ALTERA_AVALON_JTAG_UART_DATA_RVALID_MSK) == 0)
   2e85c:	e0bffe17 	ldw	r2,-8(fp)
   2e860:	10a0000c 	andi	r2,r2,32768
   2e864:	10001126 	beq	r2,zero,2e8ac <altera_avalon_jtag_uart_irq+0xdc>
          break;

        sp->rx_buf[sp->rx_in] = (data & ALTERA_AVALON_JTAG_UART_DATA_DATA_MSK) >> ALTERA_AVALON_JTAG_UART_DATA_DATA_OFST;
   2e868:	e0bffc17 	ldw	r2,-16(fp)
   2e86c:	10800a17 	ldw	r2,40(r2)
   2e870:	e0fffe17 	ldw	r3,-8(fp)
   2e874:	1809883a 	mov	r4,r3
   2e878:	e0fffc17 	ldw	r3,-16(fp)
   2e87c:	1885883a 	add	r2,r3,r2
   2e880:	11000e05 	stb	r4,56(r2)
        sp->rx_in = (sp->rx_in + 1) % ALTERA_AVALON_JTAG_UART_BUF_LEN;
   2e884:	e0bffc17 	ldw	r2,-16(fp)
   2e888:	10800a17 	ldw	r2,40(r2)
   2e88c:	10800044 	addi	r2,r2,1
   2e890:	10c1ffcc 	andi	r3,r2,2047
   2e894:	e0bffc17 	ldw	r2,-16(fp)
   2e898:	10c00a15 	stw	r3,40(r2)
 * HAL.
 */

static ALT_INLINE int ALT_ALWAYS_INLINE alt_no_error (void)
{
  return 0;
   2e89c:	0001883a 	nop
      {
   2e8a0:	003fe206 	br	2e82c <altera_avalon_jtag_uart_irq+0x5c>
          break;
   2e8a4:	0001883a 	nop
   2e8a8:	00000106 	br	2e8b0 <altera_avalon_jtag_uart_irq+0xe0>
          break;
   2e8ac:	0001883a 	nop

        /* Post an event to notify jtag_uart_read that a character has been read */
        ALT_FLAG_POST (sp->events, ALT_JTAG_UART_READ_RDY, ALT_FLAG_SET);
      }

      if (data & ALTERA_AVALON_JTAG_UART_DATA_RAVAIL_MSK)
   2e8b0:	e0bffe17 	ldw	r2,-8(fp)
   2e8b4:	00ffffd4 	movui	r3,65535
   2e8b8:	18800f2e 	bgeu	r3,r2,2e8f8 <altera_avalon_jtag_uart_irq+0x128>
      {
        /* If there is still data available here then the buffer is full 
         * so turn off receive interrupts until some space becomes available.
         */
        sp->irq_enable &= ~ALTERA_AVALON_JTAG_UART_CONTROL_RE_MSK;
   2e8bc:	e0bffc17 	ldw	r2,-16(fp)
   2e8c0:	10c00817 	ldw	r3,32(r2)
   2e8c4:	00bfff84 	movi	r2,-2
   2e8c8:	1886703a 	and	r3,r3,r2
   2e8cc:	e0bffc17 	ldw	r2,-16(fp)
   2e8d0:	10c00815 	stw	r3,32(r2)
        IOWR_ALTERA_AVALON_JTAG_UART_CONTROL(base, sp->irq_enable);
   2e8d4:	e0bffb17 	ldw	r2,-20(fp)
   2e8d8:	10800104 	addi	r2,r2,4
   2e8dc:	1007883a 	mov	r3,r2
   2e8e0:	e0bffc17 	ldw	r2,-16(fp)
   2e8e4:	10800817 	ldw	r2,32(r2)
   2e8e8:	18800035 	stwio	r2,0(r3)
        
        /* Dummy read to ensure IRQ is cleared prior to ISR completion */
        IORD_ALTERA_AVALON_JTAG_UART_CONTROL(base);
   2e8ec:	e0bffb17 	ldw	r2,-20(fp)
   2e8f0:	10800104 	addi	r2,r2,4
   2e8f4:	10800037 	ldwio	r2,0(r2)
      }
    }

    if (control & ALTERA_AVALON_JTAG_UART_CONTROL_WI_MSK)
   2e8f8:	e0bffa17 	ldw	r2,-24(fp)
   2e8fc:	1080800c 	andi	r2,r2,512
   2e900:	103fbe26 	beq	r2,zero,2e7fc <altera_avalon_jtag_uart_irq+0x2c>
    {
      /* process a write irq */
      unsigned int space = (control & ALTERA_AVALON_JTAG_UART_CONTROL_WSPACE_MSK) >> ALTERA_AVALON_JTAG_UART_CONTROL_WSPACE_OFST;
   2e904:	e0bffa17 	ldw	r2,-24(fp)
   2e908:	1004d43a 	srli	r2,r2,16
   2e90c:	e0bffd15 	stw	r2,-12(fp)

      while (space > 0 && sp->tx_out != sp->tx_in)
   2e910:	00001506 	br	2e968 <altera_avalon_jtag_uart_irq+0x198>
      {
        IOWR_ALTERA_AVALON_JTAG_UART_DATA(base, sp->tx_buf[sp->tx_out]);
   2e914:	e0bffb17 	ldw	r2,-20(fp)
   2e918:	e0fffc17 	ldw	r3,-16(fp)
   2e91c:	18c00d17 	ldw	r3,52(r3)
   2e920:	e13ffc17 	ldw	r4,-16(fp)
   2e924:	20c7883a 	add	r3,r4,r3
   2e928:	18c20e03 	ldbu	r3,2104(r3)
   2e92c:	18c03fcc 	andi	r3,r3,255
   2e930:	18c0201c 	xori	r3,r3,128
   2e934:	18ffe004 	addi	r3,r3,-128
   2e938:	10c00035 	stwio	r3,0(r2)

        sp->tx_out = (sp->tx_out + 1) % ALTERA_AVALON_JTAG_UART_BUF_LEN;
   2e93c:	e0bffc17 	ldw	r2,-16(fp)
   2e940:	10800d17 	ldw	r2,52(r2)
   2e944:	10800044 	addi	r2,r2,1
   2e948:	10c1ffcc 	andi	r3,r2,2047
   2e94c:	e0bffc17 	ldw	r2,-16(fp)
   2e950:	10c00d15 	stw	r3,52(r2)
        
        /* indicate that the ALT_FLAG_POST routine must be called */
        postflag=1;
   2e954:	00800044 	movi	r2,1
   2e958:	e0bfff15 	stw	r2,-4(fp)

        space--;
   2e95c:	e0bffd17 	ldw	r2,-12(fp)
   2e960:	10bfffc4 	addi	r2,r2,-1
   2e964:	e0bffd15 	stw	r2,-12(fp)
      while (space > 0 && sp->tx_out != sp->tx_in)
   2e968:	e0bffd17 	ldw	r2,-12(fp)
   2e96c:	10000526 	beq	r2,zero,2e984 <altera_avalon_jtag_uart_irq+0x1b4>
   2e970:	e0bffc17 	ldw	r2,-16(fp)
   2e974:	10c00d17 	ldw	r3,52(r2)
   2e978:	e0bffc17 	ldw	r2,-16(fp)
   2e97c:	10800c17 	ldw	r2,48(r2)
   2e980:	18bfe41e 	bne	r3,r2,2e914 <altera_avalon_jtag_uart_irq+0x144>
      {
        /* Post an event to notify jtag_uart_write that a character has been written */
        ALT_FLAG_POST (sp->events, ALT_JTAG_UART_WRITE_RDY, ALT_FLAG_SET);
      }

      if (space > 0)
   2e984:	e0bffd17 	ldw	r2,-12(fp)
   2e988:	103f9c26 	beq	r2,zero,2e7fc <altera_avalon_jtag_uart_irq+0x2c>
      {
        /* If we don't have any more data available then turn off the TX interrupt */
        sp->irq_enable &= ~ALTERA_AVALON_JTAG_UART_CONTROL_WE_MSK;
   2e98c:	e0bffc17 	ldw	r2,-16(fp)
   2e990:	10c00817 	ldw	r3,32(r2)
   2e994:	00bfff44 	movi	r2,-3
   2e998:	1886703a 	and	r3,r3,r2
   2e99c:	e0bffc17 	ldw	r2,-16(fp)
   2e9a0:	10c00815 	stw	r3,32(r2)
        IOWR_ALTERA_AVALON_JTAG_UART_CONTROL(sp->base, sp->irq_enable);
   2e9a4:	e0bffc17 	ldw	r2,-16(fp)
   2e9a8:	10800017 	ldw	r2,0(r2)
   2e9ac:	10800104 	addi	r2,r2,4
   2e9b0:	1007883a 	mov	r3,r2
   2e9b4:	e0bffc17 	ldw	r2,-16(fp)
   2e9b8:	10800817 	ldw	r2,32(r2)
   2e9bc:	18800035 	stwio	r2,0(r3)
        
        /* Dummy read to ensure IRQ is cleared prior to ISR completion */
        IORD_ALTERA_AVALON_JTAG_UART_CONTROL(base);
   2e9c0:	e0bffb17 	ldw	r2,-20(fp)
   2e9c4:	10800104 	addi	r2,r2,4
   2e9c8:	10800037 	ldwio	r2,0(r2)
  {
   2e9cc:	003f8b06 	br	2e7fc <altera_avalon_jtag_uart_irq+0x2c>
      break;
   2e9d0:	0001883a 	nop
      }
    }
  }
}
   2e9d4:	0001883a 	nop
   2e9d8:	e037883a 	mov	sp,fp
   2e9dc:	df000017 	ldw	fp,0(sp)
   2e9e0:	dec00104 	addi	sp,sp,4
   2e9e4:	f800283a 	ret

0002e9e8 <altera_avalon_jtag_uart_timeout>:
 * Timeout routine is called every second
 */

static alt_u32 
altera_avalon_jtag_uart_timeout(void* context) 
{
   2e9e8:	defffc04 	addi	sp,sp,-16
   2e9ec:	df000315 	stw	fp,12(sp)
   2e9f0:	df000304 	addi	fp,sp,12
   2e9f4:	e13ffd15 	stw	r4,-12(fp)
  altera_avalon_jtag_uart_state* sp = (altera_avalon_jtag_uart_state *) context;
   2e9f8:	e0bffd17 	ldw	r2,-12(fp)
   2e9fc:	e0bfff15 	stw	r2,-4(fp)

  unsigned int control = IORD_ALTERA_AVALON_JTAG_UART_CONTROL(sp->base);
   2ea00:	e0bfff17 	ldw	r2,-4(fp)
   2ea04:	10800017 	ldw	r2,0(r2)
   2ea08:	10800104 	addi	r2,r2,4
   2ea0c:	10800037 	ldwio	r2,0(r2)
   2ea10:	e0bffe15 	stw	r2,-8(fp)

  if (control & ALTERA_AVALON_JTAG_UART_CONTROL_AC_MSK)
   2ea14:	e0bffe17 	ldw	r2,-8(fp)
   2ea18:	1081000c 	andi	r2,r2,1024
   2ea1c:	10000b26 	beq	r2,zero,2ea4c <altera_avalon_jtag_uart_timeout+0x64>
  {
    IOWR_ALTERA_AVALON_JTAG_UART_CONTROL(sp->base, sp->irq_enable | ALTERA_AVALON_JTAG_UART_CONTROL_AC_MSK);
   2ea20:	e0bfff17 	ldw	r2,-4(fp)
   2ea24:	10800017 	ldw	r2,0(r2)
   2ea28:	10800104 	addi	r2,r2,4
   2ea2c:	1007883a 	mov	r3,r2
   2ea30:	e0bfff17 	ldw	r2,-4(fp)
   2ea34:	10800817 	ldw	r2,32(r2)
   2ea38:	10810014 	ori	r2,r2,1024
   2ea3c:	18800035 	stwio	r2,0(r3)
    sp->host_inactive = 0;
   2ea40:	e0bfff17 	ldw	r2,-4(fp)
   2ea44:	10000915 	stw	zero,36(r2)
   2ea48:	00000c06 	br	2ea7c <altera_avalon_jtag_uart_timeout+0x94>
  }
  else if (sp->host_inactive < INT_MAX - 2) {
   2ea4c:	e0bfff17 	ldw	r2,-4(fp)
   2ea50:	10c00917 	ldw	r3,36(r2)
   2ea54:	00a00034 	movhi	r2,32768
   2ea58:	10bfff04 	addi	r2,r2,-4
   2ea5c:	10c00736 	bltu	r2,r3,2ea7c <altera_avalon_jtag_uart_timeout+0x94>
    sp->host_inactive++;
   2ea60:	e0bfff17 	ldw	r2,-4(fp)
   2ea64:	10800917 	ldw	r2,36(r2)
   2ea68:	10c00044 	addi	r3,r2,1
   2ea6c:	e0bfff17 	ldw	r2,-4(fp)
   2ea70:	10c00915 	stw	r3,36(r2)
    
    if (sp->host_inactive >= sp->timeout) {
   2ea74:	e0bfff17 	ldw	r2,-4(fp)
   2ea78:	10800917 	ldw	r2,36(r2)
   2ea7c:	d0a72717 	ldw	r2,-25444(gp)
      ALT_FLAG_POST (sp->events, ALT_JTAG_UART_TIMEOUT, ALT_FLAG_SET);
    }
  }

  return alt_ticks_per_second();
}
   2ea80:	e037883a 	mov	sp,fp
   2ea84:	df000017 	ldw	fp,0(sp)
   2ea88:	dec00104 	addi	sp,sp,4
   2ea8c:	f800283a 	ret

0002ea90 <altera_avalon_jtag_uart_close>:
 * The close routine is not implemented for the small driver; instead it will
 * map to null. This is because the small driver simply waits while characters
 * are transmitted; there is no interrupt-serviced buffer to empty 
 */
int altera_avalon_jtag_uart_close(altera_avalon_jtag_uart_state* sp, int flags)
{
   2ea90:	defffd04 	addi	sp,sp,-12
   2ea94:	df000215 	stw	fp,8(sp)
   2ea98:	df000204 	addi	fp,sp,8
   2ea9c:	e13fff15 	stw	r4,-4(fp)
   2eaa0:	e17ffe15 	stw	r5,-8(fp)
  /* 
   * Wait for all transmit data to be emptied by the JTAG UART ISR, or
   * for a host-inactivity timeout, in which case transmit data will be lost
   */
  while ( (sp->tx_out != sp->tx_in) && (sp->host_inactive < sp->timeout) ) {
   2eaa4:	00000506 	br	2eabc <altera_avalon_jtag_uart_close+0x2c>
    if (flags & O_NONBLOCK) {
   2eaa8:	e0bffe17 	ldw	r2,-8(fp)
   2eaac:	1090000c 	andi	r2,r2,16384
   2eab0:	10000226 	beq	r2,zero,2eabc <altera_avalon_jtag_uart_close+0x2c>
      return -EWOULDBLOCK; 
   2eab4:	00bffd44 	movi	r2,-11
   2eab8:	00000b06 	br	2eae8 <altera_avalon_jtag_uart_close+0x58>
  while ( (sp->tx_out != sp->tx_in) && (sp->host_inactive < sp->timeout) ) {
   2eabc:	e0bfff17 	ldw	r2,-4(fp)
   2eac0:	10c00d17 	ldw	r3,52(r2)
   2eac4:	e0bfff17 	ldw	r2,-4(fp)
   2eac8:	10800c17 	ldw	r2,48(r2)
   2eacc:	18800526 	beq	r3,r2,2eae4 <altera_avalon_jtag_uart_close+0x54>
   2ead0:	e0bfff17 	ldw	r2,-4(fp)
   2ead4:	10c00917 	ldw	r3,36(r2)
   2ead8:	e0bfff17 	ldw	r2,-4(fp)
   2eadc:	10800117 	ldw	r2,4(r2)
   2eae0:	18bff136 	bltu	r3,r2,2eaa8 <altera_avalon_jtag_uart_close+0x18>
    }
  }

  return 0;
   2eae4:	0005883a 	mov	r2,zero
}
   2eae8:	e037883a 	mov	sp,fp
   2eaec:	df000017 	ldw	fp,0(sp)
   2eaf0:	dec00104 	addi	sp,sp,4
   2eaf4:	f800283a 	ret

0002eaf8 <altera_avalon_jtag_uart_ioctl>:
/* ----------------------------------------------------------- */

int 
altera_avalon_jtag_uart_ioctl(altera_avalon_jtag_uart_state* sp, int req,
  void* arg)
{
   2eaf8:	defffa04 	addi	sp,sp,-24
   2eafc:	df000515 	stw	fp,20(sp)
   2eb00:	df000504 	addi	fp,sp,20
   2eb04:	e13ffd15 	stw	r4,-12(fp)
   2eb08:	e17ffc15 	stw	r5,-16(fp)
   2eb0c:	e1bffb15 	stw	r6,-20(fp)
  int rc = -ENOTTY;
   2eb10:	00bff9c4 	movi	r2,-25
   2eb14:	e0bfff15 	stw	r2,-4(fp)

  switch (req)
   2eb18:	e0bffc17 	ldw	r2,-16(fp)
   2eb1c:	109a8060 	cmpeqi	r2,r2,27137
   2eb20:	1000041e 	bne	r2,zero,2eb34 <altera_avalon_jtag_uart_ioctl+0x3c>
   2eb24:	e0bffc17 	ldw	r2,-16(fp)
   2eb28:	109a80a0 	cmpeqi	r2,r2,27138
   2eb2c:	1000181e 	bne	r2,zero,2eb90 <altera_avalon_jtag_uart_ioctl+0x98>
      rc = 0;
    }
    break;

  default:
    break;
   2eb30:	00002906 	br	2ebd8 <altera_avalon_jtag_uart_ioctl+0xe0>
    if (sp->timeout != INT_MAX)
   2eb34:	e0bffd17 	ldw	r2,-12(fp)
   2eb38:	10c00117 	ldw	r3,4(r2)
   2eb3c:	00a00034 	movhi	r2,32768
   2eb40:	10bfffc4 	addi	r2,r2,-1
   2eb44:	18802126 	beq	r3,r2,2ebcc <altera_avalon_jtag_uart_ioctl+0xd4>
      int timeout = *((int *)arg);
   2eb48:	e0bffb17 	ldw	r2,-20(fp)
   2eb4c:	10800017 	ldw	r2,0(r2)
   2eb50:	e0bffe15 	stw	r2,-8(fp)
      sp->timeout = (timeout >= 2 && timeout < INT_MAX) ? timeout : INT_MAX - 1;
   2eb54:	e0bffe17 	ldw	r2,-8(fp)
   2eb58:	10800090 	cmplti	r2,r2,2
   2eb5c:	1000061e 	bne	r2,zero,2eb78 <altera_avalon_jtag_uart_ioctl+0x80>
   2eb60:	e0fffe17 	ldw	r3,-8(fp)
   2eb64:	00a00034 	movhi	r2,32768
   2eb68:	10bfffc4 	addi	r2,r2,-1
   2eb6c:	18800226 	beq	r3,r2,2eb78 <altera_avalon_jtag_uart_ioctl+0x80>
   2eb70:	e0bffe17 	ldw	r2,-8(fp)
   2eb74:	00000206 	br	2eb80 <altera_avalon_jtag_uart_ioctl+0x88>
   2eb78:	00a00034 	movhi	r2,32768
   2eb7c:	10bfff84 	addi	r2,r2,-2
   2eb80:	e0fffd17 	ldw	r3,-12(fp)
   2eb84:	18800115 	stw	r2,4(r3)
      rc = 0;
   2eb88:	e03fff15 	stw	zero,-4(fp)
    break;
   2eb8c:	00000f06 	br	2ebcc <altera_avalon_jtag_uart_ioctl+0xd4>
    if (sp->timeout != INT_MAX)
   2eb90:	e0bffd17 	ldw	r2,-12(fp)
   2eb94:	10c00117 	ldw	r3,4(r2)
   2eb98:	00a00034 	movhi	r2,32768
   2eb9c:	10bfffc4 	addi	r2,r2,-1
   2eba0:	18800c26 	beq	r3,r2,2ebd4 <altera_avalon_jtag_uart_ioctl+0xdc>
      *((int *)arg) = (sp->host_inactive < sp->timeout) ? 1 : 0;
   2eba4:	e0bffd17 	ldw	r2,-12(fp)
   2eba8:	10c00917 	ldw	r3,36(r2)
   2ebac:	e0bffd17 	ldw	r2,-12(fp)
   2ebb0:	10800117 	ldw	r2,4(r2)
   2ebb4:	1885803a 	cmpltu	r2,r3,r2
   2ebb8:	10c03fcc 	andi	r3,r2,255
   2ebbc:	e0bffb17 	ldw	r2,-20(fp)
   2ebc0:	10c00015 	stw	r3,0(r2)
      rc = 0;
   2ebc4:	e03fff15 	stw	zero,-4(fp)
    break;
   2ebc8:	00000206 	br	2ebd4 <altera_avalon_jtag_uart_ioctl+0xdc>
    break;
   2ebcc:	0001883a 	nop
   2ebd0:	00000106 	br	2ebd8 <altera_avalon_jtag_uart_ioctl+0xe0>
    break;
   2ebd4:	0001883a 	nop
  }

  return rc;
   2ebd8:	e0bfff17 	ldw	r2,-4(fp)
}
   2ebdc:	e037883a 	mov	sp,fp
   2ebe0:	df000017 	ldw	fp,0(sp)
   2ebe4:	dec00104 	addi	sp,sp,4
   2ebe8:	f800283a 	ret

0002ebec <altera_avalon_jtag_uart_read>:
/* ----------------------------------------------------------- */

int 
altera_avalon_jtag_uart_read(altera_avalon_jtag_uart_state* sp, 
  char * buffer, int space, int flags)
{
   2ebec:	defff304 	addi	sp,sp,-52
   2ebf0:	dfc00c15 	stw	ra,48(sp)
   2ebf4:	df000b15 	stw	fp,44(sp)
   2ebf8:	df000b04 	addi	fp,sp,44
   2ebfc:	e13ff815 	stw	r4,-32(fp)
   2ec00:	e17ff715 	stw	r5,-36(fp)
   2ec04:	e1bff615 	stw	r6,-40(fp)
   2ec08:	e1fff515 	stw	r7,-44(fp)
  char * ptr = buffer;
   2ec0c:	e0bff717 	ldw	r2,-36(fp)
   2ec10:	e0bfff15 	stw	r2,-4(fp)
   * When running in a multi threaded environment, obtain the "read_lock"
   * semaphore. This ensures that reading from the device is thread-safe.
   */
  ALT_SEM_PEND (sp->read_lock, 0);

  while (space > 0)
   2ec14:	00004706 	br	2ed34 <altera_avalon_jtag_uart_read+0x148>
    unsigned int in, out;

    /* Read as much data as possible */
    do
    {
      in  = sp->rx_in;
   2ec18:	e0bff817 	ldw	r2,-32(fp)
   2ec1c:	10800a17 	ldw	r2,40(r2)
   2ec20:	e0bffd15 	stw	r2,-12(fp)
      out = sp->rx_out;
   2ec24:	e0bff817 	ldw	r2,-32(fp)
   2ec28:	10800b17 	ldw	r2,44(r2)
   2ec2c:	e0bffc15 	stw	r2,-16(fp)

      if (in >= out)
   2ec30:	e0fffd17 	ldw	r3,-12(fp)
   2ec34:	e0bffc17 	ldw	r2,-16(fp)
   2ec38:	18800536 	bltu	r3,r2,2ec50 <altera_avalon_jtag_uart_read+0x64>
        n = in - out;
   2ec3c:	e0fffd17 	ldw	r3,-12(fp)
   2ec40:	e0bffc17 	ldw	r2,-16(fp)
   2ec44:	1885c83a 	sub	r2,r3,r2
   2ec48:	e0bffe15 	stw	r2,-8(fp)
   2ec4c:	00000406 	br	2ec60 <altera_avalon_jtag_uart_read+0x74>
      else
        n = ALTERA_AVALON_JTAG_UART_BUF_LEN - out;
   2ec50:	00c20004 	movi	r3,2048
   2ec54:	e0bffc17 	ldw	r2,-16(fp)
   2ec58:	1885c83a 	sub	r2,r3,r2
   2ec5c:	e0bffe15 	stw	r2,-8(fp)

      if (n == 0)
   2ec60:	e0bffe17 	ldw	r2,-8(fp)
   2ec64:	10001e26 	beq	r2,zero,2ece0 <altera_avalon_jtag_uart_read+0xf4>
        break; /* No more data available */

      if (n > space)
   2ec68:	e0fff617 	ldw	r3,-40(fp)
   2ec6c:	e0bffe17 	ldw	r2,-8(fp)
   2ec70:	1880022e 	bgeu	r3,r2,2ec7c <altera_avalon_jtag_uart_read+0x90>
        n = space;
   2ec74:	e0bff617 	ldw	r2,-40(fp)
   2ec78:	e0bffe15 	stw	r2,-8(fp)

      memcpy(ptr, sp->rx_buf + out, n);
   2ec7c:	e0bff817 	ldw	r2,-32(fp)
   2ec80:	10c00e04 	addi	r3,r2,56
   2ec84:	e0bffc17 	ldw	r2,-16(fp)
   2ec88:	1885883a 	add	r2,r3,r2
   2ec8c:	e1bffe17 	ldw	r6,-8(fp)
   2ec90:	100b883a 	mov	r5,r2
   2ec94:	e13fff17 	ldw	r4,-4(fp)
   2ec98:	002674c0 	call	2674c <memcpy>
      ptr   += n;
   2ec9c:	e0ffff17 	ldw	r3,-4(fp)
   2eca0:	e0bffe17 	ldw	r2,-8(fp)
   2eca4:	1885883a 	add	r2,r3,r2
   2eca8:	e0bfff15 	stw	r2,-4(fp)
      space -= n;
   2ecac:	e0fff617 	ldw	r3,-40(fp)
   2ecb0:	e0bffe17 	ldw	r2,-8(fp)
   2ecb4:	1885c83a 	sub	r2,r3,r2
   2ecb8:	e0bff615 	stw	r2,-40(fp)

      sp->rx_out = (out + n) % ALTERA_AVALON_JTAG_UART_BUF_LEN;
   2ecbc:	e0fffc17 	ldw	r3,-16(fp)
   2ecc0:	e0bffe17 	ldw	r2,-8(fp)
   2ecc4:	1885883a 	add	r2,r3,r2
   2ecc8:	10c1ffcc 	andi	r3,r2,2047
   2eccc:	e0bff817 	ldw	r2,-32(fp)
   2ecd0:	10c00b15 	stw	r3,44(r2)
    }
    while (space > 0);
   2ecd4:	e0bff617 	ldw	r2,-40(fp)
   2ecd8:	00bfcf16 	blt	zero,r2,2ec18 <altera_avalon_jtag_uart_read+0x2c>
   2ecdc:	00000106 	br	2ece4 <altera_avalon_jtag_uart_read+0xf8>
        break; /* No more data available */
   2ece0:	0001883a 	nop

    /* If we read any data then return it */
    if (ptr != buffer)
   2ece4:	e0ffff17 	ldw	r3,-4(fp)
   2ece8:	e0bff717 	ldw	r2,-36(fp)
   2ecec:	1880141e 	bne	r3,r2,2ed40 <altera_avalon_jtag_uart_read+0x154>
      break;

    /* If in non-blocking mode then return error */
    if (flags & O_NONBLOCK)
   2ecf0:	e0bff517 	ldw	r2,-44(fp)
   2ecf4:	1090000c 	andi	r2,r2,16384
   2ecf8:	1000131e 	bne	r2,zero,2ed48 <altera_avalon_jtag_uart_read+0x15c>
      while (in == sp->rx_in && sp->host_inactive < sp->timeout)
        ;
    }
#else
    /* No OS: Always spin */
    while (in == sp->rx_in && sp->host_inactive < sp->timeout)
   2ecfc:	0001883a 	nop
   2ed00:	e0bff817 	ldw	r2,-32(fp)
   2ed04:	10800a17 	ldw	r2,40(r2)
   2ed08:	e0fffd17 	ldw	r3,-12(fp)
   2ed0c:	1880051e 	bne	r3,r2,2ed24 <altera_avalon_jtag_uart_read+0x138>
   2ed10:	e0bff817 	ldw	r2,-32(fp)
   2ed14:	10c00917 	ldw	r3,36(r2)
   2ed18:	e0bff817 	ldw	r2,-32(fp)
   2ed1c:	10800117 	ldw	r2,4(r2)
   2ed20:	18bff736 	bltu	r3,r2,2ed00 <altera_avalon_jtag_uart_read+0x114>
      ;
#endif /* __ucosii__ */

    if (in == sp->rx_in)
   2ed24:	e0bff817 	ldw	r2,-32(fp)
   2ed28:	10800a17 	ldw	r2,40(r2)
   2ed2c:	e0fffd17 	ldw	r3,-12(fp)
   2ed30:	18800726 	beq	r3,r2,2ed50 <altera_avalon_jtag_uart_read+0x164>
  while (space > 0)
   2ed34:	e0bff617 	ldw	r2,-40(fp)
   2ed38:	00bfb716 	blt	zero,r2,2ec18 <altera_avalon_jtag_uart_read+0x2c>
   2ed3c:	00000506 	br	2ed54 <altera_avalon_jtag_uart_read+0x168>
      break;
   2ed40:	0001883a 	nop
   2ed44:	00000306 	br	2ed54 <altera_avalon_jtag_uart_read+0x168>
      break;
   2ed48:	0001883a 	nop
   2ed4c:	00000106 	br	2ed54 <altera_avalon_jtag_uart_read+0x168>
      break;
   2ed50:	0001883a 	nop
   * semaphore so that other threads can access the buffer.
   */

  ALT_SEM_POST (sp->read_lock);

  if (ptr != buffer)
   2ed54:	e0ffff17 	ldw	r3,-4(fp)
   2ed58:	e0bff717 	ldw	r2,-36(fp)
   2ed5c:	18801926 	beq	r3,r2,2edc4 <altera_avalon_jtag_uart_read+0x1d8>
  NIOS2_READ_STATUS (context);
   2ed60:	0005303a 	rdctl	r2,status
   2ed64:	e0bff915 	stw	r2,-28(fp)
  NIOS2_WRITE_STATUS (context & ~NIOS2_STATUS_PIE_MSK);
   2ed68:	e0fff917 	ldw	r3,-28(fp)
   2ed6c:	00bfff84 	movi	r2,-2
   2ed70:	1884703a 	and	r2,r3,r2
   2ed74:	1001703a 	wrctl	status,r2
  return context;
   2ed78:	e0bff917 	ldw	r2,-28(fp)
  {
    /* If we read any data then there is space in the buffer so enable interrupts */
    context = alt_irq_disable_all();
   2ed7c:	e0bffb15 	stw	r2,-20(fp)
    sp->irq_enable |= ALTERA_AVALON_JTAG_UART_CONTROL_RE_MSK;
   2ed80:	e0bff817 	ldw	r2,-32(fp)
   2ed84:	10800817 	ldw	r2,32(r2)
   2ed88:	10c00054 	ori	r3,r2,1
   2ed8c:	e0bff817 	ldw	r2,-32(fp)
   2ed90:	10c00815 	stw	r3,32(r2)
    IOWR_ALTERA_AVALON_JTAG_UART_CONTROL(sp->base, sp->irq_enable);
   2ed94:	e0bff817 	ldw	r2,-32(fp)
   2ed98:	10800017 	ldw	r2,0(r2)
   2ed9c:	10800104 	addi	r2,r2,4
   2eda0:	1007883a 	mov	r3,r2
   2eda4:	e0bff817 	ldw	r2,-32(fp)
   2eda8:	10800817 	ldw	r2,32(r2)
   2edac:	18800035 	stwio	r2,0(r3)
   2edb0:	e0bffb17 	ldw	r2,-20(fp)
   2edb4:	e0bffa15 	stw	r2,-24(fp)
  NIOS2_WRITE_STATUS (context);
   2edb8:	e0bffa17 	ldw	r2,-24(fp)
   2edbc:	1001703a 	wrctl	status,r2
}
   2edc0:	0001883a 	nop
    alt_irq_enable_all(context);
  }

  if (ptr != buffer)
   2edc4:	e0ffff17 	ldw	r3,-4(fp)
   2edc8:	e0bff717 	ldw	r2,-36(fp)
   2edcc:	18800426 	beq	r3,r2,2ede0 <altera_avalon_jtag_uart_read+0x1f4>
    return ptr - buffer;
   2edd0:	e0ffff17 	ldw	r3,-4(fp)
   2edd4:	e0bff717 	ldw	r2,-36(fp)
   2edd8:	1885c83a 	sub	r2,r3,r2
   2eddc:	00000606 	br	2edf8 <altera_avalon_jtag_uart_read+0x20c>
  else if (flags & O_NONBLOCK)
   2ede0:	e0bff517 	ldw	r2,-44(fp)
   2ede4:	1090000c 	andi	r2,r2,16384
   2ede8:	10000226 	beq	r2,zero,2edf4 <altera_avalon_jtag_uart_read+0x208>
    return -EWOULDBLOCK;
   2edec:	00bffd44 	movi	r2,-11
   2edf0:	00000106 	br	2edf8 <altera_avalon_jtag_uart_read+0x20c>
  else
    return -EIO;
   2edf4:	00bffec4 	movi	r2,-5
}
   2edf8:	e037883a 	mov	sp,fp
   2edfc:	dfc00117 	ldw	ra,4(sp)
   2ee00:	df000017 	ldw	fp,0(sp)
   2ee04:	dec00204 	addi	sp,sp,8
   2ee08:	f800283a 	ret

0002ee0c <altera_avalon_jtag_uart_write>:
/* ----------------------------------------------------------- */

int 
altera_avalon_jtag_uart_write(altera_avalon_jtag_uart_state* sp, 
  const char * ptr, int count, int flags)
{
   2ee0c:	defff304 	addi	sp,sp,-52
   2ee10:	dfc00c15 	stw	ra,48(sp)
   2ee14:	df000b15 	stw	fp,44(sp)
   2ee18:	df000b04 	addi	fp,sp,44
   2ee1c:	e13ff815 	stw	r4,-32(fp)
   2ee20:	e17ff715 	stw	r5,-36(fp)
   2ee24:	e1bff615 	stw	r6,-40(fp)
   2ee28:	e1fff515 	stw	r7,-44(fp)
  /* Remove warning at optimisation level 03 by seting out to 0 */
  unsigned int in, out=0;
   2ee2c:	e03fff15 	stw	zero,-4(fp)
  unsigned int n;
  alt_irq_context context;

  const char * start = ptr;
   2ee30:	e0bff717 	ldw	r2,-36(fp)
   2ee34:	e0bffd15 	stw	r2,-12(fp)
  ALT_SEM_PEND (sp->write_lock, 0);

  do
  {
    /* Copy as much as we can into the transmit buffer */
    while (count > 0)
   2ee38:	00003706 	br	2ef18 <altera_avalon_jtag_uart_write+0x10c>
    {
      /* We need a stable value of the out pointer to calculate the space available */
      in  = sp->tx_in;
   2ee3c:	e0bff817 	ldw	r2,-32(fp)
   2ee40:	10800c17 	ldw	r2,48(r2)
   2ee44:	e0bffc15 	stw	r2,-16(fp)
      out = sp->tx_out;
   2ee48:	e0bff817 	ldw	r2,-32(fp)
   2ee4c:	10800d17 	ldw	r2,52(r2)
   2ee50:	e0bfff15 	stw	r2,-4(fp)

      if (in < out)
   2ee54:	e0fffc17 	ldw	r3,-16(fp)
   2ee58:	e0bfff17 	ldw	r2,-4(fp)
   2ee5c:	1880062e 	bgeu	r3,r2,2ee78 <altera_avalon_jtag_uart_write+0x6c>
        n = out - 1 - in;
   2ee60:	e0ffff17 	ldw	r3,-4(fp)
   2ee64:	e0bffc17 	ldw	r2,-16(fp)
   2ee68:	1885c83a 	sub	r2,r3,r2
   2ee6c:	10bfffc4 	addi	r2,r2,-1
   2ee70:	e0bffe15 	stw	r2,-8(fp)
   2ee74:	00000b06 	br	2eea4 <altera_avalon_jtag_uart_write+0x98>
      else if (out > 0)
   2ee78:	e0bfff17 	ldw	r2,-4(fp)
   2ee7c:	10000526 	beq	r2,zero,2ee94 <altera_avalon_jtag_uart_write+0x88>
        n = ALTERA_AVALON_JTAG_UART_BUF_LEN - in;
   2ee80:	00c20004 	movi	r3,2048
   2ee84:	e0bffc17 	ldw	r2,-16(fp)
   2ee88:	1885c83a 	sub	r2,r3,r2
   2ee8c:	e0bffe15 	stw	r2,-8(fp)
   2ee90:	00000406 	br	2eea4 <altera_avalon_jtag_uart_write+0x98>
      else
        n = ALTERA_AVALON_JTAG_UART_BUF_LEN - 1 - in;
   2ee94:	00c1ffc4 	movi	r3,2047
   2ee98:	e0bffc17 	ldw	r2,-16(fp)
   2ee9c:	1885c83a 	sub	r2,r3,r2
   2eea0:	e0bffe15 	stw	r2,-8(fp)

      if (n == 0)
   2eea4:	e0bffe17 	ldw	r2,-8(fp)
   2eea8:	10001e26 	beq	r2,zero,2ef24 <altera_avalon_jtag_uart_write+0x118>
        break;

      if (n > count)
   2eeac:	e0fff617 	ldw	r3,-40(fp)
   2eeb0:	e0bffe17 	ldw	r2,-8(fp)
   2eeb4:	1880022e 	bgeu	r3,r2,2eec0 <altera_avalon_jtag_uart_write+0xb4>
        n = count;
   2eeb8:	e0bff617 	ldw	r2,-40(fp)
   2eebc:	e0bffe15 	stw	r2,-8(fp)

      memcpy(sp->tx_buf + in, ptr, n);
   2eec0:	e0bff817 	ldw	r2,-32(fp)
   2eec4:	10c20e04 	addi	r3,r2,2104
   2eec8:	e0bffc17 	ldw	r2,-16(fp)
   2eecc:	1885883a 	add	r2,r3,r2
   2eed0:	e1bffe17 	ldw	r6,-8(fp)
   2eed4:	e17ff717 	ldw	r5,-36(fp)
   2eed8:	1009883a 	mov	r4,r2
   2eedc:	002674c0 	call	2674c <memcpy>
      ptr   += n;
   2eee0:	e0fff717 	ldw	r3,-36(fp)
   2eee4:	e0bffe17 	ldw	r2,-8(fp)
   2eee8:	1885883a 	add	r2,r3,r2
   2eeec:	e0bff715 	stw	r2,-36(fp)
      count -= n;
   2eef0:	e0fff617 	ldw	r3,-40(fp)
   2eef4:	e0bffe17 	ldw	r2,-8(fp)
   2eef8:	1885c83a 	sub	r2,r3,r2
   2eefc:	e0bff615 	stw	r2,-40(fp)

      sp->tx_in = (in + n) % ALTERA_AVALON_JTAG_UART_BUF_LEN;
   2ef00:	e0fffc17 	ldw	r3,-16(fp)
   2ef04:	e0bffe17 	ldw	r2,-8(fp)
   2ef08:	1885883a 	add	r2,r3,r2
   2ef0c:	10c1ffcc 	andi	r3,r2,2047
   2ef10:	e0bff817 	ldw	r2,-32(fp)
   2ef14:	10c00c15 	stw	r3,48(r2)
    while (count > 0)
   2ef18:	e0bff617 	ldw	r2,-40(fp)
   2ef1c:	00bfc716 	blt	zero,r2,2ee3c <altera_avalon_jtag_uart_write+0x30>
   2ef20:	00000106 	br	2ef28 <altera_avalon_jtag_uart_write+0x11c>
        break;
   2ef24:	0001883a 	nop
  NIOS2_READ_STATUS (context);
   2ef28:	0005303a 	rdctl	r2,status
   2ef2c:	e0bff915 	stw	r2,-28(fp)
  NIOS2_WRITE_STATUS (context & ~NIOS2_STATUS_PIE_MSK);
   2ef30:	e0fff917 	ldw	r3,-28(fp)
   2ef34:	00bfff84 	movi	r2,-2
   2ef38:	1884703a 	and	r2,r3,r2
   2ef3c:	1001703a 	wrctl	status,r2
  return context;
   2ef40:	e0bff917 	ldw	r2,-28(fp)
     * to enable interrupts if there is no space left in the FIFO
     *
     * For now kick the interrupt routine every time to make it transmit 
     * the data 
     */
    context = alt_irq_disable_all();
   2ef44:	e0bffb15 	stw	r2,-20(fp)
    sp->irq_enable |= ALTERA_AVALON_JTAG_UART_CONTROL_WE_MSK;
   2ef48:	e0bff817 	ldw	r2,-32(fp)
   2ef4c:	10800817 	ldw	r2,32(r2)
   2ef50:	10c00094 	ori	r3,r2,2
   2ef54:	e0bff817 	ldw	r2,-32(fp)
   2ef58:	10c00815 	stw	r3,32(r2)
    IOWR_ALTERA_AVALON_JTAG_UART_CONTROL(sp->base, sp->irq_enable);
   2ef5c:	e0bff817 	ldw	r2,-32(fp)
   2ef60:	10800017 	ldw	r2,0(r2)
   2ef64:	10800104 	addi	r2,r2,4
   2ef68:	1007883a 	mov	r3,r2
   2ef6c:	e0bff817 	ldw	r2,-32(fp)
   2ef70:	10800817 	ldw	r2,32(r2)
   2ef74:	18800035 	stwio	r2,0(r3)
   2ef78:	e0bffb17 	ldw	r2,-20(fp)
   2ef7c:	e0bffa15 	stw	r2,-24(fp)
  NIOS2_WRITE_STATUS (context);
   2ef80:	e0bffa17 	ldw	r2,-24(fp)
   2ef84:	1001703a 	wrctl	status,r2
}
   2ef88:	0001883a 	nop
    /* 
     * If there is any data left then either return now or block until 
     * some has been sent 
     */
    /* consider: test whether there is anything there while doing this and delay for at most 2s. */
    if (count > 0)
   2ef8c:	e0bff617 	ldw	r2,-40(fp)
   2ef90:	0080100e 	bge	zero,r2,2efd4 <altera_avalon_jtag_uart_write+0x1c8>
    {
      if (flags & O_NONBLOCK)
   2ef94:	e0bff517 	ldw	r2,-44(fp)
   2ef98:	1090000c 	andi	r2,r2,16384
   2ef9c:	1000101e 	bne	r2,zero,2efe0 <altera_avalon_jtag_uart_write+0x1d4>
      /*
       * No OS present: Always wait for data to be removed from buffer.  Once
       * the interrupt routine has removed some data then we will be able to
       * insert some more.
       */
      while (out == sp->tx_out && sp->host_inactive < sp->timeout)
   2efa0:	0001883a 	nop
   2efa4:	e0bff817 	ldw	r2,-32(fp)
   2efa8:	10800d17 	ldw	r2,52(r2)
   2efac:	e0ffff17 	ldw	r3,-4(fp)
   2efb0:	1880051e 	bne	r3,r2,2efc8 <altera_avalon_jtag_uart_write+0x1bc>
   2efb4:	e0bff817 	ldw	r2,-32(fp)
   2efb8:	10c00917 	ldw	r3,36(r2)
   2efbc:	e0bff817 	ldw	r2,-32(fp)
   2efc0:	10800117 	ldw	r2,4(r2)
   2efc4:	18bff736 	bltu	r3,r2,2efa4 <altera_avalon_jtag_uart_write+0x198>
        ;
#endif /* __ucosii__ */

      if  (sp->host_inactive)
   2efc8:	e0bff817 	ldw	r2,-32(fp)
   2efcc:	10800917 	ldw	r2,36(r2)
   2efd0:	1000051e 	bne	r2,zero,2efe8 <altera_avalon_jtag_uart_write+0x1dc>
         break;
    }
  }
  while (count > 0);
   2efd4:	e0bff617 	ldw	r2,-40(fp)
   2efd8:	00bfcf16 	blt	zero,r2,2ef18 <altera_avalon_jtag_uart_write+0x10c>
   2efdc:	00000306 	br	2efec <altera_avalon_jtag_uart_write+0x1e0>
        break;
   2efe0:	0001883a 	nop
   2efe4:	00000106 	br	2efec <altera_avalon_jtag_uart_write+0x1e0>
         break;
   2efe8:	0001883a 	nop
   * Now that access to the circular buffer is complete, release the write
   * semaphore so that other threads can access the buffer.
   */
  ALT_SEM_POST (sp->write_lock);

  if (ptr != start)
   2efec:	e0fff717 	ldw	r3,-36(fp)
   2eff0:	e0bffd17 	ldw	r2,-12(fp)
   2eff4:	18800426 	beq	r3,r2,2f008 <altera_avalon_jtag_uart_write+0x1fc>
    return ptr - start;
   2eff8:	e0fff717 	ldw	r3,-36(fp)
   2effc:	e0bffd17 	ldw	r2,-12(fp)
   2f000:	1885c83a 	sub	r2,r3,r2
   2f004:	00000606 	br	2f020 <altera_avalon_jtag_uart_write+0x214>
  else if (flags & O_NONBLOCK)
   2f008:	e0bff517 	ldw	r2,-44(fp)
   2f00c:	1090000c 	andi	r2,r2,16384
   2f010:	10000226 	beq	r2,zero,2f01c <altera_avalon_jtag_uart_write+0x210>
    return -EWOULDBLOCK;
   2f014:	00bffd44 	movi	r2,-11
   2f018:	00000106 	br	2f020 <altera_avalon_jtag_uart_write+0x214>
    sp->tx_out = sp->tx_in = 0;
    return ptr - start + count;
  }
#endif
  else
    return -EIO; /* Host not connected */
   2f01c:	00bffec4 	movi	r2,-5
}
   2f020:	e037883a 	mov	sp,fp
   2f024:	dfc00117 	ldw	ra,4(sp)
   2f028:	df000017 	ldw	fp,0(sp)
   2f02c:	dec00204 	addi	sp,sp,8
   2f030:	f800283a 	ret

0002f034 <alt_up_accelerometer_spi_open_dev>:

#include "altera_up_avalon_accelerometer_spi.h"
#include "altera_up_avalon_accelerometer_spi_regs.h"

alt_up_accelerometer_spi_dev* alt_up_accelerometer_spi_open_dev(const char* name)
{
   2f034:	defffc04 	addi	sp,sp,-16
   2f038:	dfc00315 	stw	ra,12(sp)
   2f03c:	df000215 	stw	fp,8(sp)
   2f040:	df000204 	addi	fp,sp,8
   2f044:	e13ffe15 	stw	r4,-8(fp)
  // find the device from the device list 
  // (see altera_hal/HAL/inc/priv/alt_file.h 
  // and altera_hal/HAL/src/alt_find_dev.c 
  // for details)
  alt_up_accelerometer_spi_dev *dev = (alt_up_accelerometer_spi_dev*)alt_find_dev(name, &alt_dev_list);
   2f048:	d1600604 	addi	r5,gp,-32744
   2f04c:	e13ffe17 	ldw	r4,-8(fp)
   2f050:	002f9d40 	call	2f9d4 <alt_find_dev>
   2f054:	e0bfff15 	stw	r2,-4(fp)

  return dev;
   2f058:	e0bfff17 	ldw	r2,-4(fp)
}
   2f05c:	e037883a 	mov	sp,fp
   2f060:	dfc00117 	ldw	ra,4(sp)
   2f064:	df000017 	ldw	fp,0(sp)
   2f068:	dec00204 	addi	sp,sp,8
   2f06c:	f800283a 	ret

0002f070 <alt_up_accelerometer_spi_read_address_register>:
 * @param addr -- a pointer to the location where the read address should be stored
 *
 * @return 0 for success 
 **/
int alt_up_accelerometer_spi_read_address_register(alt_up_accelerometer_spi_dev *accel_spi, alt_u8 *addr)
{
   2f070:	defffd04 	addi	sp,sp,-12
   2f074:	df000215 	stw	fp,8(sp)
   2f078:	df000204 	addi	fp,sp,8
   2f07c:	e13fff15 	stw	r4,-4(fp)
   2f080:	e17ffe15 	stw	r5,-8(fp)
	// reads data from the device Address register
	*(addr) = IORD_ALT_UP_ACCELEROMETER_SPI_ADDRESS(accel_spi->base); 
   2f084:	e0bfff17 	ldw	r2,-4(fp)
   2f088:	10800a17 	ldw	r2,40(r2)
   2f08c:	10800023 	ldbuio	r2,0(r2)
   2f090:	10803fcc 	andi	r2,r2,255
   2f094:	1007883a 	mov	r3,r2
   2f098:	e0bffe17 	ldw	r2,-8(fp)
   2f09c:	10c00005 	stb	r3,0(r2)

	return 0;
   2f0a0:	0005883a 	mov	r2,zero
}
   2f0a4:	e037883a 	mov	sp,fp
   2f0a8:	df000017 	ldw	fp,0(sp)
   2f0ac:	dec00104 	addi	sp,sp,4
   2f0b0:	f800283a 	ret

0002f0b4 <alt_up_accelerometer_spi_read>:
 * @param data -- a pointer to the location where the read data should be stored
 *
 * @return 0 for success
 **/
int alt_up_accelerometer_spi_read(alt_up_accelerometer_spi_dev *accel_spi, alt_u8 addr, alt_u8 *data)
{
   2f0b4:	defffc04 	addi	sp,sp,-16
   2f0b8:	df000315 	stw	fp,12(sp)
   2f0bc:	df000304 	addi	fp,sp,12
   2f0c0:	e13fff15 	stw	r4,-4(fp)
   2f0c4:	2805883a 	mov	r2,r5
   2f0c8:	e1bffd15 	stw	r6,-12(fp)
   2f0cc:	e0bffe05 	stb	r2,-8(fp)
	// set the register address in the Address register
	IOWR_ALT_UP_ACCELEROMETER_SPI_ADDRESS(accel_spi->base, addr & ALT_UP_ACCELEROMETER_SPI_ADDRESS_ADDR_MSK); 
   2f0d0:	e0bfff17 	ldw	r2,-4(fp)
   2f0d4:	10800a17 	ldw	r2,40(r2)
   2f0d8:	1007883a 	mov	r3,r2
   2f0dc:	e0bffe03 	ldbu	r2,-8(fp)
   2f0e0:	10800fcc 	andi	r2,r2,63
   2f0e4:	18800025 	stbio	r2,0(r3)

	// read data to the device Data register
	*(data) = IORD_ALT_UP_ACCELEROMETER_SPI_DATA(accel_spi->base) & ALT_UP_ACCELEROMETER_SPI_DATA_DATA_MSK;
   2f0e8:	e0bfff17 	ldw	r2,-4(fp)
   2f0ec:	10800a17 	ldw	r2,40(r2)
   2f0f0:	10800044 	addi	r2,r2,1
   2f0f4:	10800023 	ldbuio	r2,0(r2)
   2f0f8:	10803fcc 	andi	r2,r2,255
   2f0fc:	1007883a 	mov	r3,r2
   2f100:	e0bffd17 	ldw	r2,-12(fp)
   2f104:	10c00005 	stb	r3,0(r2)

	return 0;
   2f108:	0005883a 	mov	r2,zero
}
   2f10c:	e037883a 	mov	sp,fp
   2f110:	df000017 	ldw	fp,0(sp)
   2f114:	dec00104 	addi	sp,sp,4
   2f118:	f800283a 	ret

0002f11c <alt_up_accelerometer_spi_write>:
 * @param data -- the data to be written
 *
 * @return 0 for success
 **/
int alt_up_accelerometer_spi_write(alt_up_accelerometer_spi_dev *accel_spi, alt_u8 addr, alt_u8 data)
{
   2f11c:	defffc04 	addi	sp,sp,-16
   2f120:	df000315 	stw	fp,12(sp)
   2f124:	df000304 	addi	fp,sp,12
   2f128:	e13fff15 	stw	r4,-4(fp)
   2f12c:	2805883a 	mov	r2,r5
   2f130:	3007883a 	mov	r3,r6
   2f134:	e0bffe05 	stb	r2,-8(fp)
   2f138:	1805883a 	mov	r2,r3
   2f13c:	e0bffd05 	stb	r2,-12(fp)
	// set the register address in the Address register
	IOWR_ALT_UP_ACCELEROMETER_SPI_ADDRESS(accel_spi->base, addr & ALT_UP_ACCELEROMETER_SPI_ADDRESS_ADDR_MSK); 
   2f140:	e0bfff17 	ldw	r2,-4(fp)
   2f144:	10800a17 	ldw	r2,40(r2)
   2f148:	1007883a 	mov	r3,r2
   2f14c:	e0bffe03 	ldbu	r2,-8(fp)
   2f150:	10800fcc 	andi	r2,r2,63
   2f154:	18800025 	stbio	r2,0(r3)

	// write data to the device Data register
	IOWR_ALT_UP_ACCELEROMETER_SPI_DATA(accel_spi->base, data & ALT_UP_ACCELEROMETER_SPI_DATA_DATA_MSK); 
   2f158:	e0bfff17 	ldw	r2,-4(fp)
   2f15c:	10800a17 	ldw	r2,40(r2)
   2f160:	10800044 	addi	r2,r2,1
   2f164:	1007883a 	mov	r3,r2
   2f168:	e0bffd03 	ldbu	r2,-12(fp)
   2f16c:	18800025 	stbio	r2,0(r3)

	return 0;
   2f170:	0005883a 	mov	r2,zero
}
   2f174:	e037883a 	mov	sp,fp
   2f178:	df000017 	ldw	fp,0(sp)
   2f17c:	dec00104 	addi	sp,sp,4
   2f180:	f800283a 	ret

0002f184 <alt_up_accelerometer_spi_read_x_axis>:
 * @param x_axis -- a pointer to the location where the x axis data should be stored
 *
 * @return 0 for success or -1 for failure
 **/
int alt_up_accelerometer_spi_read_x_axis(alt_up_accelerometer_spi_dev *accel_spi, alt_32 *x_axis)
{
   2f184:	defffd04 	addi	sp,sp,-12
   2f188:	df000215 	stw	fp,8(sp)
   2f18c:	df000204 	addi	fp,sp,8
   2f190:	e13fff15 	stw	r4,-4(fp)
   2f194:	e17ffe15 	stw	r5,-8(fp)
	// set the register address in the Address register
	IOWR_ALT_UP_ACCELEROMETER_SPI_ADDRESS(accel_spi->base, ACCELEROMETER_SPI_X_AXIS_LOWER_BYTE & ALT_UP_ACCELEROMETER_SPI_ADDRESS_ADDR_MSK); 
   2f198:	e0bfff17 	ldw	r2,-4(fp)
   2f19c:	10800a17 	ldw	r2,40(r2)
   2f1a0:	1007883a 	mov	r3,r2
   2f1a4:	00800c84 	movi	r2,50
   2f1a8:	18800025 	stbio	r2,0(r3)

	// read data to the device Data register
	*(x_axis) = IORD_ALT_UP_ACCELEROMETER_SPI_DATA(accel_spi->base) & ALT_UP_ACCELEROMETER_SPI_DATA_DATA_MSK;
   2f1ac:	e0bfff17 	ldw	r2,-4(fp)
   2f1b0:	10800a17 	ldw	r2,40(r2)
   2f1b4:	10800044 	addi	r2,r2,1
   2f1b8:	10800023 	ldbuio	r2,0(r2)
   2f1bc:	10803fcc 	andi	r2,r2,255
   2f1c0:	10ffffcc 	andi	r3,r2,65535
   2f1c4:	e0bffe17 	ldw	r2,-8(fp)
   2f1c8:	10c00015 	stw	r3,0(r2)

	// set the register address in the Address register
	IOWR_ALT_UP_ACCELEROMETER_SPI_ADDRESS(accel_spi->base, ACCELEROMETER_SPI_X_AXIS_UPPER_BYTE & ALT_UP_ACCELEROMETER_SPI_ADDRESS_ADDR_MSK); 
   2f1cc:	e0bfff17 	ldw	r2,-4(fp)
   2f1d0:	10800a17 	ldw	r2,40(r2)
   2f1d4:	1007883a 	mov	r3,r2
   2f1d8:	00800cc4 	movi	r2,51
   2f1dc:	18800025 	stbio	r2,0(r3)

	// read data to the device Data register
	*(x_axis) += (IORD_ALT_UP_ACCELEROMETER_SPI_DATA(accel_spi->base) & ALT_UP_ACCELEROMETER_SPI_DATA_DATA_MSK) << 8;
   2f1e0:	e0bfff17 	ldw	r2,-4(fp)
   2f1e4:	10800a17 	ldw	r2,40(r2)
   2f1e8:	10800044 	addi	r2,r2,1
   2f1ec:	10800023 	ldbuio	r2,0(r2)
   2f1f0:	10803fcc 	andi	r2,r2,255
   2f1f4:	1006923a 	slli	r3,r2,8
   2f1f8:	00804034 	movhi	r2,256
   2f1fc:	10bfc004 	addi	r2,r2,-256
   2f200:	1884703a 	and	r2,r3,r2
   2f204:	e0fffe17 	ldw	r3,-8(fp)
   2f208:	18c00017 	ldw	r3,0(r3)
   2f20c:	10c5883a 	add	r2,r2,r3
   2f210:	1007883a 	mov	r3,r2
   2f214:	e0bffe17 	ldw	r2,-8(fp)
   2f218:	10c00015 	stw	r3,0(r2)

	if (*(x_axis) & 0x00008000)
   2f21c:	e0bffe17 	ldw	r2,-8(fp)
   2f220:	10800017 	ldw	r2,0(r2)
   2f224:	10a0000c 	andi	r2,r2,32768
   2f228:	10000626 	beq	r2,zero,2f244 <alt_up_accelerometer_spi_read_x_axis+0xc0>
	{
		*(x_axis) |= 0xFFFF0000;
   2f22c:	e0bffe17 	ldw	r2,-8(fp)
   2f230:	10800017 	ldw	r2,0(r2)
   2f234:	10bffff4 	orhi	r2,r2,65535
   2f238:	1007883a 	mov	r3,r2
   2f23c:	e0bffe17 	ldw	r2,-8(fp)
   2f240:	10c00015 	stw	r3,0(r2)
	}

	return 0;
   2f244:	0005883a 	mov	r2,zero
}
   2f248:	e037883a 	mov	sp,fp
   2f24c:	df000017 	ldw	fp,0(sp)
   2f250:	dec00104 	addi	sp,sp,4
   2f254:	f800283a 	ret

0002f258 <alt_up_accelerometer_spi_read_y_axis>:
 * @param y_axis -- a pointer to the location where the y axis data should be stored
 *
 * @return 0 for success or -1 for failure
 **/
int alt_up_accelerometer_spi_read_y_axis(alt_up_accelerometer_spi_dev *accel_spi, alt_32 *y_axis)
{
   2f258:	defffd04 	addi	sp,sp,-12
   2f25c:	df000215 	stw	fp,8(sp)
   2f260:	df000204 	addi	fp,sp,8
   2f264:	e13fff15 	stw	r4,-4(fp)
   2f268:	e17ffe15 	stw	r5,-8(fp)
	// set the register address in the Address register
	IOWR_ALT_UP_ACCELEROMETER_SPI_ADDRESS(accel_spi->base, ACCELEROMETER_SPI_Y_AXIS_LOWER_BYTE & ALT_UP_ACCELEROMETER_SPI_ADDRESS_ADDR_MSK); 
   2f26c:	e0bfff17 	ldw	r2,-4(fp)
   2f270:	10800a17 	ldw	r2,40(r2)
   2f274:	1007883a 	mov	r3,r2
   2f278:	00800d04 	movi	r2,52
   2f27c:	18800025 	stbio	r2,0(r3)

	// read data to the device Data register
	*(y_axis) = IORD_ALT_UP_ACCELEROMETER_SPI_DATA(accel_spi->base) & ALT_UP_ACCELEROMETER_SPI_DATA_DATA_MSK;
   2f280:	e0bfff17 	ldw	r2,-4(fp)
   2f284:	10800a17 	ldw	r2,40(r2)
   2f288:	10800044 	addi	r2,r2,1
   2f28c:	10800023 	ldbuio	r2,0(r2)
   2f290:	10803fcc 	andi	r2,r2,255
   2f294:	10ffffcc 	andi	r3,r2,65535
   2f298:	e0bffe17 	ldw	r2,-8(fp)
   2f29c:	10c00015 	stw	r3,0(r2)

	// set the register address in the Address register
	IOWR_ALT_UP_ACCELEROMETER_SPI_ADDRESS(accel_spi->base, ACCELEROMETER_SPI_Y_AXIS_UPPER_BYTE & ALT_UP_ACCELEROMETER_SPI_ADDRESS_ADDR_MSK); 
   2f2a0:	e0bfff17 	ldw	r2,-4(fp)
   2f2a4:	10800a17 	ldw	r2,40(r2)
   2f2a8:	1007883a 	mov	r3,r2
   2f2ac:	00800d44 	movi	r2,53
   2f2b0:	18800025 	stbio	r2,0(r3)

	// read data to the device Data register
	*(y_axis) += (IORD_ALT_UP_ACCELEROMETER_SPI_DATA(accel_spi->base) & ALT_UP_ACCELEROMETER_SPI_DATA_DATA_MSK) << 8;
   2f2b4:	e0bfff17 	ldw	r2,-4(fp)
   2f2b8:	10800a17 	ldw	r2,40(r2)
   2f2bc:	10800044 	addi	r2,r2,1
   2f2c0:	10800023 	ldbuio	r2,0(r2)
   2f2c4:	10803fcc 	andi	r2,r2,255
   2f2c8:	1006923a 	slli	r3,r2,8
   2f2cc:	00804034 	movhi	r2,256
   2f2d0:	10bfc004 	addi	r2,r2,-256
   2f2d4:	1884703a 	and	r2,r3,r2
   2f2d8:	e0fffe17 	ldw	r3,-8(fp)
   2f2dc:	18c00017 	ldw	r3,0(r3)
   2f2e0:	10c5883a 	add	r2,r2,r3
   2f2e4:	1007883a 	mov	r3,r2
   2f2e8:	e0bffe17 	ldw	r2,-8(fp)
   2f2ec:	10c00015 	stw	r3,0(r2)

	if (*(y_axis) & 0x00008000)
   2f2f0:	e0bffe17 	ldw	r2,-8(fp)
   2f2f4:	10800017 	ldw	r2,0(r2)
   2f2f8:	10a0000c 	andi	r2,r2,32768
   2f2fc:	10000626 	beq	r2,zero,2f318 <alt_up_accelerometer_spi_read_y_axis+0xc0>
	{
		*(y_axis) |= 0xFFFF0000;
   2f300:	e0bffe17 	ldw	r2,-8(fp)
   2f304:	10800017 	ldw	r2,0(r2)
   2f308:	10bffff4 	orhi	r2,r2,65535
   2f30c:	1007883a 	mov	r3,r2
   2f310:	e0bffe17 	ldw	r2,-8(fp)
   2f314:	10c00015 	stw	r3,0(r2)
	}

	return 0;
   2f318:	0005883a 	mov	r2,zero
}
   2f31c:	e037883a 	mov	sp,fp
   2f320:	df000017 	ldw	fp,0(sp)
   2f324:	dec00104 	addi	sp,sp,4
   2f328:	f800283a 	ret

0002f32c <alt_up_accelerometer_spi_read_z_axis>:
 * @param z_axis -- a pointer to the location where the z axis data should be stored
 *
 * @return 0 for success or -1 for failure
 **/
int alt_up_accelerometer_spi_read_z_axis(alt_up_accelerometer_spi_dev *accel_spi, alt_32 *z_axis)
{
   2f32c:	defffd04 	addi	sp,sp,-12
   2f330:	df000215 	stw	fp,8(sp)
   2f334:	df000204 	addi	fp,sp,8
   2f338:	e13fff15 	stw	r4,-4(fp)
   2f33c:	e17ffe15 	stw	r5,-8(fp)
	// set the register address in the Address register
	IOWR_ALT_UP_ACCELEROMETER_SPI_ADDRESS(accel_spi->base, ACCELEROMETER_SPI_Z_AXIS_LOWER_BYTE & ALT_UP_ACCELEROMETER_SPI_ADDRESS_ADDR_MSK); 
   2f340:	e0bfff17 	ldw	r2,-4(fp)
   2f344:	10800a17 	ldw	r2,40(r2)
   2f348:	1007883a 	mov	r3,r2
   2f34c:	00800d84 	movi	r2,54
   2f350:	18800025 	stbio	r2,0(r3)

	// read data to the device Data register
	*(z_axis) = IORD_ALT_UP_ACCELEROMETER_SPI_DATA(accel_spi->base) & ALT_UP_ACCELEROMETER_SPI_DATA_DATA_MSK;
   2f354:	e0bfff17 	ldw	r2,-4(fp)
   2f358:	10800a17 	ldw	r2,40(r2)
   2f35c:	10800044 	addi	r2,r2,1
   2f360:	10800023 	ldbuio	r2,0(r2)
   2f364:	10803fcc 	andi	r2,r2,255
   2f368:	10ffffcc 	andi	r3,r2,65535
   2f36c:	e0bffe17 	ldw	r2,-8(fp)
   2f370:	10c00015 	stw	r3,0(r2)

	// set the register address in the Address register
	IOWR_ALT_UP_ACCELEROMETER_SPI_ADDRESS(accel_spi->base, ACCELEROMETER_SPI_Z_AXIS_UPPER_BYTE & ALT_UP_ACCELEROMETER_SPI_ADDRESS_ADDR_MSK); 
   2f374:	e0bfff17 	ldw	r2,-4(fp)
   2f378:	10800a17 	ldw	r2,40(r2)
   2f37c:	1007883a 	mov	r3,r2
   2f380:	00800dc4 	movi	r2,55
   2f384:	18800025 	stbio	r2,0(r3)

	// read data to the device Data register
	*(z_axis) += (IORD_ALT_UP_ACCELEROMETER_SPI_DATA(accel_spi->base) & ALT_UP_ACCELEROMETER_SPI_DATA_DATA_MSK) << 8;
   2f388:	e0bfff17 	ldw	r2,-4(fp)
   2f38c:	10800a17 	ldw	r2,40(r2)
   2f390:	10800044 	addi	r2,r2,1
   2f394:	10800023 	ldbuio	r2,0(r2)
   2f398:	10803fcc 	andi	r2,r2,255
   2f39c:	1006923a 	slli	r3,r2,8
   2f3a0:	00804034 	movhi	r2,256
   2f3a4:	10bfc004 	addi	r2,r2,-256
   2f3a8:	1884703a 	and	r2,r3,r2
   2f3ac:	e0fffe17 	ldw	r3,-8(fp)
   2f3b0:	18c00017 	ldw	r3,0(r3)
   2f3b4:	10c5883a 	add	r2,r2,r3
   2f3b8:	1007883a 	mov	r3,r2
   2f3bc:	e0bffe17 	ldw	r2,-8(fp)
   2f3c0:	10c00015 	stw	r3,0(r2)

	if (*(z_axis) & 0x00008000)
   2f3c4:	e0bffe17 	ldw	r2,-8(fp)
   2f3c8:	10800017 	ldw	r2,0(r2)
   2f3cc:	10a0000c 	andi	r2,r2,32768
   2f3d0:	10000626 	beq	r2,zero,2f3ec <alt_up_accelerometer_spi_read_z_axis+0xc0>
	{
		*(z_axis) |= 0xFFFF0000;
   2f3d4:	e0bffe17 	ldw	r2,-8(fp)
   2f3d8:	10800017 	ldw	r2,0(r2)
   2f3dc:	10bffff4 	orhi	r2,r2,65535
   2f3e0:	1007883a 	mov	r3,r2
   2f3e4:	e0bffe17 	ldw	r2,-8(fp)
   2f3e8:	10c00015 	stw	r3,0(r2)
	}

	return 0;
   2f3ec:	0005883a 	mov	r2,zero
}
   2f3f0:	e037883a 	mov	sp,fp
   2f3f4:	df000017 	ldw	fp,0(sp)
   2f3f8:	dec00104 	addi	sp,sp,4
   2f3fc:	f800283a 	ret

0002f400 <alt_up_adc_open_dev>:
#define read_ch4(adc)  IORD_ALT_UP_ADC_CH_4(((adc)->base))
#define read_ch5(adc)  IORD_ALT_UP_ADC_CH_5(((adc)->base))
#define read_ch6(adc)  IORD_ALT_UP_ADC_CH_6(((adc)->base))
#define read_ch7(adc)  IORD_ALT_UP_ADC_CH_7(((adc)->base))

alt_up_adc_dev* alt_up_adc_open_dev (const char* name){
   2f400:	defffc04 	addi	sp,sp,-16
   2f404:	dfc00315 	stw	ra,12(sp)
   2f408:	df000215 	stw	fp,8(sp)
   2f40c:	df000204 	addi	fp,sp,8
   2f410:	e13ffe15 	stw	r4,-8(fp)

	alt_up_adc_dev* dev = (alt_up_adc_dev*) alt_find_dev(name, &alt_dev_list);
   2f414:	d1600604 	addi	r5,gp,-32744
   2f418:	e13ffe17 	ldw	r4,-8(fp)
   2f41c:	002f9d40 	call	2f9d4 <alt_find_dev>
   2f420:	e0bfff15 	stw	r2,-4(fp)
	
	return dev;
   2f424:	e0bfff17 	ldw	r2,-4(fp)
}
   2f428:	e037883a 	mov	sp,fp
   2f42c:	dfc00117 	ldw	ra,4(sp)
   2f430:	df000017 	ldw	fp,0(sp)
   2f434:	dec00204 	addi	sp,sp,8
   2f438:	f800283a 	ret

0002f43c <alt_up_adc_read>:

unsigned int alt_up_adc_read (alt_up_adc_dev * adc, unsigned channel){
   2f43c:	defffc04 	addi	sp,sp,-16
   2f440:	df000315 	stw	fp,12(sp)
   2f444:	df000304 	addi	fp,sp,12
   2f448:	e13ffe15 	stw	r4,-8(fp)
   2f44c:	e17ffd15 	stw	r5,-12(fp)

	unsigned int ch = channel % 8;
   2f450:	e0bffd17 	ldw	r2,-12(fp)
   2f454:	108001cc 	andi	r2,r2,7
   2f458:	e0bfff15 	stw	r2,-4(fp)
	
	switch (ch){
   2f45c:	e0bfff17 	ldw	r2,-4(fp)
   2f460:	10800228 	cmpgeui	r2,r2,8
   2f464:	1000351e 	bne	r2,zero,2f53c <alt_up_adc_read+0x100>
   2f468:	e0bfff17 	ldw	r2,-4(fp)
   2f46c:	100690ba 	slli	r3,r2,2
   2f470:	008000f4 	movhi	r2,3
   2f474:	1885883a 	add	r2,r3,r2
   2f478:	10bd2017 	ldw	r2,-2944(r2)
   2f47c:	1000683a 	jmp	r2
   2f480:	0002f4a0 	cmpeqi	zero,zero,3026
   2f484:	0002f4b0 	cmpltui	zero,zero,3026
   2f488:	0002f4c4 	movi	zero,3027
   2f48c:	0002f4d8 	cmpnei	zero,zero,3027
   2f490:	0002f4ec 	andhi	zero,zero,3027
   2f494:	0002f500 	call	2f50 <__reset-0x1d0b0>
   2f498:	0002f514 	movui	zero,3028
   2f49c:	0002f528 	cmpgeui	zero,zero,3028
		case 0:
			return read_ch0(adc);
   2f4a0:	e0bffe17 	ldw	r2,-8(fp)
   2f4a4:	10800a17 	ldw	r2,40(r2)
   2f4a8:	10800037 	ldwio	r2,0(r2)
   2f4ac:	00002406 	br	2f540 <alt_up_adc_read+0x104>
		case 1:
			return read_ch1(adc);
   2f4b0:	e0bffe17 	ldw	r2,-8(fp)
   2f4b4:	10800a17 	ldw	r2,40(r2)
   2f4b8:	10800104 	addi	r2,r2,4
   2f4bc:	10800037 	ldwio	r2,0(r2)
   2f4c0:	00001f06 	br	2f540 <alt_up_adc_read+0x104>
		case 2:
			return read_ch2(adc);
   2f4c4:	e0bffe17 	ldw	r2,-8(fp)
   2f4c8:	10800a17 	ldw	r2,40(r2)
   2f4cc:	10800204 	addi	r2,r2,8
   2f4d0:	10800037 	ldwio	r2,0(r2)
   2f4d4:	00001a06 	br	2f540 <alt_up_adc_read+0x104>
		case 3:
			return read_ch3(adc);
   2f4d8:	e0bffe17 	ldw	r2,-8(fp)
   2f4dc:	10800a17 	ldw	r2,40(r2)
   2f4e0:	10800304 	addi	r2,r2,12
   2f4e4:	10800037 	ldwio	r2,0(r2)
   2f4e8:	00001506 	br	2f540 <alt_up_adc_read+0x104>
		case 4:
			return read_ch4(adc);
   2f4ec:	e0bffe17 	ldw	r2,-8(fp)
   2f4f0:	10800a17 	ldw	r2,40(r2)
   2f4f4:	10800404 	addi	r2,r2,16
   2f4f8:	10800037 	ldwio	r2,0(r2)
   2f4fc:	00001006 	br	2f540 <alt_up_adc_read+0x104>
		case 5:
			return read_ch5(adc);
   2f500:	e0bffe17 	ldw	r2,-8(fp)
   2f504:	10800a17 	ldw	r2,40(r2)
   2f508:	10800504 	addi	r2,r2,20
   2f50c:	10800037 	ldwio	r2,0(r2)
   2f510:	00000b06 	br	2f540 <alt_up_adc_read+0x104>
		case 6:
			return read_ch6(adc);
   2f514:	e0bffe17 	ldw	r2,-8(fp)
   2f518:	10800a17 	ldw	r2,40(r2)
   2f51c:	10800604 	addi	r2,r2,24
   2f520:	10800037 	ldwio	r2,0(r2)
   2f524:	00000606 	br	2f540 <alt_up_adc_read+0x104>
		case 7:
			return read_ch7(adc);
   2f528:	e0bffe17 	ldw	r2,-8(fp)
   2f52c:	10800a17 	ldw	r2,40(r2)
   2f530:	10800704 	addi	r2,r2,28
   2f534:	10800037 	ldwio	r2,0(r2)
   2f538:	00000106 	br	2f540 <alt_up_adc_read+0x104>
		default:
			return 0;
   2f53c:	0005883a 	mov	r2,zero
	}
}
   2f540:	e037883a 	mov	sp,fp
   2f544:	df000017 	ldw	fp,0(sp)
   2f548:	dec00104 	addi	sp,sp,4
   2f54c:	f800283a 	ret

0002f550 <alt_alarm_start>:
 */ 

int alt_alarm_start (alt_alarm* alarm, alt_u32 nticks,
                     alt_u32 (*callback) (void* context),
                     void* context)
{
   2f550:	defff404 	addi	sp,sp,-48
   2f554:	df000b15 	stw	fp,44(sp)
   2f558:	df000b04 	addi	fp,sp,44
   2f55c:	e13ff815 	stw	r4,-32(fp)
   2f560:	e17ff715 	stw	r5,-36(fp)
   2f564:	e1bff615 	stw	r6,-40(fp)
   2f568:	e1fff515 	stw	r7,-44(fp)
  alt_irq_context irq_context;
  alt_u64 current_nticks = 0;
   2f56c:	e03ffe15 	stw	zero,-8(fp)
   2f570:	e03fff15 	stw	zero,-4(fp)
   2f574:	d0a72717 	ldw	r2,-25444(gp)
  
  if (alt_ticks_per_second ())
   2f578:	10004826 	beq	r2,zero,2f69c <alt_alarm_start+0x14c>
  {
    if (alarm)
   2f57c:	e0bff817 	ldw	r2,-32(fp)
   2f580:	10004426 	beq	r2,zero,2f694 <alt_alarm_start+0x144>
    {
      alarm->callback = callback;
   2f584:	e0bff817 	ldw	r2,-32(fp)
   2f588:	e0fff617 	ldw	r3,-40(fp)
   2f58c:	10c00415 	stw	r3,16(r2)
      alarm->context  = context;
   2f590:	e0bff817 	ldw	r2,-32(fp)
   2f594:	e0fff517 	ldw	r3,-44(fp)
   2f598:	10c00515 	stw	r3,20(r2)
  NIOS2_READ_STATUS (context);
   2f59c:	0005303a 	rdctl	r2,status
   2f5a0:	e0bff915 	stw	r2,-28(fp)
  NIOS2_WRITE_STATUS (context & ~NIOS2_STATUS_PIE_MSK);
   2f5a4:	e0fff917 	ldw	r3,-28(fp)
   2f5a8:	00bfff84 	movi	r2,-2
   2f5ac:	1884703a 	and	r2,r3,r2
   2f5b0:	1001703a 	wrctl	status,r2
  return context;
   2f5b4:	e0bff917 	ldw	r2,-28(fp)
 
      irq_context = alt_irq_disable_all ();
   2f5b8:	e0bffd15 	stw	r2,-12(fp)
 * alt_nticks() returns the elapsed number of system clock ticks since reset.
 */

static ALT_INLINE alt_u64 ALT_ALWAYS_INLINE alt_nticks (void)
{
  return _alt_nticks;
   2f5bc:	d0a72817 	ldw	r2,-25440(gp)
   2f5c0:	d0e72917 	ldw	r3,-25436(gp)
      
      current_nticks = alt_nticks();
   2f5c4:	e0bffe15 	stw	r2,-8(fp)
   2f5c8:	e0ffff15 	stw	r3,-4(fp)
      
      alarm->time = (alt_u64)nticks + current_nticks + 1; 
   2f5cc:	e0bff717 	ldw	r2,-36(fp)
   2f5d0:	1011883a 	mov	r8,r2
   2f5d4:	0013883a 	mov	r9,zero
   2f5d8:	e13ffe17 	ldw	r4,-8(fp)
   2f5dc:	e17fff17 	ldw	r5,-4(fp)
   2f5e0:	4105883a 	add	r2,r8,r4
   2f5e4:	120d803a 	cmpltu	r6,r2,r8
   2f5e8:	4947883a 	add	r3,r9,r5
   2f5ec:	30c9883a 	add	r4,r6,r3
   2f5f0:	2007883a 	mov	r3,r4
   2f5f4:	1009883a 	mov	r4,r2
   2f5f8:	180b883a 	mov	r5,r3
   2f5fc:	01800044 	movi	r6,1
   2f600:	000f883a 	mov	r7,zero
   2f604:	2185883a 	add	r2,r4,r6
   2f608:	1111803a 	cmpltu	r8,r2,r4
   2f60c:	29c7883a 	add	r3,r5,r7
   2f610:	40c9883a 	add	r4,r8,r3
   2f614:	2007883a 	mov	r3,r4
   2f618:	1009883a 	mov	r4,r2
   2f61c:	180b883a 	mov	r5,r3
   2f620:	e0bff817 	ldw	r2,-32(fp)
   2f624:	11000215 	stw	r4,8(r2)
   2f628:	11400315 	stw	r5,12(r2)
          
      alt_llist_insert (&alt_alarm_list, &alarm->llist);
   2f62c:	e0bff817 	ldw	r2,-32(fp)
   2f630:	d0e00c04 	addi	r3,gp,-32720
   2f634:	e0fffb15 	stw	r3,-20(fp)
   2f638:	e0bffa15 	stw	r2,-24(fp)
 */

static ALT_INLINE void ALT_ALWAYS_INLINE alt_llist_insert(alt_llist* list, 
                alt_llist* entry)
{
  entry->previous = list;
   2f63c:	e0bffa17 	ldw	r2,-24(fp)
   2f640:	e0fffb17 	ldw	r3,-20(fp)
   2f644:	10c00115 	stw	r3,4(r2)
  entry->next     = list->next;
   2f648:	e0bffb17 	ldw	r2,-20(fp)
   2f64c:	10c00017 	ldw	r3,0(r2)
   2f650:	e0bffa17 	ldw	r2,-24(fp)
   2f654:	10c00015 	stw	r3,0(r2)

  list->next->previous = entry;
   2f658:	e0bffb17 	ldw	r2,-20(fp)
   2f65c:	10800017 	ldw	r2,0(r2)
   2f660:	e0fffa17 	ldw	r3,-24(fp)
   2f664:	10c00115 	stw	r3,4(r2)
  list->next           = entry;
   2f668:	e0bffb17 	ldw	r2,-20(fp)
   2f66c:	e0fffa17 	ldw	r3,-24(fp)
   2f670:	10c00015 	stw	r3,0(r2)
}
   2f674:	0001883a 	nop
   2f678:	e0bffd17 	ldw	r2,-12(fp)
   2f67c:	e0bffc15 	stw	r2,-16(fp)
  NIOS2_WRITE_STATUS (context);
   2f680:	e0bffc17 	ldw	r2,-16(fp)
   2f684:	1001703a 	wrctl	status,r2
}
   2f688:	0001883a 	nop
      alt_irq_enable_all (irq_context);

      return 0;
   2f68c:	0005883a 	mov	r2,zero
   2f690:	00000306 	br	2f6a0 <alt_alarm_start+0x150>
    }
    else
    {
      return -EINVAL;
   2f694:	00bffa84 	movi	r2,-22
   2f698:	00000106 	br	2f6a0 <alt_alarm_start+0x150>
    }
  }
  else
  {
    return -ENOTSUP;
   2f69c:	00bfde84 	movi	r2,-134
  }
}
   2f6a0:	e037883a 	mov	sp,fp
   2f6a4:	df000017 	ldw	fp,0(sp)
   2f6a8:	dec00104 	addi	sp,sp,4
   2f6ac:	f800283a 	ret

0002f6b0 <alt_busy_sleep>:
#include "alt_types.h"

#include "priv/alt_busy_sleep.h"

unsigned int alt_busy_sleep (unsigned int us)
{
   2f6b0:	defffa04 	addi	sp,sp,-24
   2f6b4:	dfc00515 	stw	ra,20(sp)
   2f6b8:	df000415 	stw	fp,16(sp)
   2f6bc:	df000404 	addi	fp,sp,16
   2f6c0:	e13ffc15 	stw	r4,-16(fp)
  {
    cycles_per_loop = 9;
  }
  else  
  {
    cycles_per_loop = 3;
   2f6c4:	008000c4 	movi	r2,3
   2f6c8:	e0bffe15 	stw	r2,-8(fp)
  }
  

  big_loops = us / (INT_MAX/
  (ALT_CPU_FREQ/(cycles_per_loop * 1000000)));
   2f6cc:	e0fffe17 	ldw	r3,-8(fp)
   2f6d0:	008003f4 	movhi	r2,15
   2f6d4:	10909004 	addi	r2,r2,16960
   2f6d8:	1885383a 	mul	r2,r3,r2
   2f6dc:	100b883a 	mov	r5,r2
   2f6e0:	0100bef4 	movhi	r4,763
   2f6e4:	213c2004 	addi	r4,r4,-3968
   2f6e8:	00209ac0 	call	209ac <__udivsi3>
  big_loops = us / (INT_MAX/
   2f6ec:	100b883a 	mov	r5,r2
   2f6f0:	01200034 	movhi	r4,32768
   2f6f4:	213fffc4 	addi	r4,r4,-1
   2f6f8:	00209ac0 	call	209ac <__udivsi3>
   2f6fc:	100b883a 	mov	r5,r2
   2f700:	e13ffc17 	ldw	r4,-16(fp)
   2f704:	00209ac0 	call	209ac <__udivsi3>
   2f708:	e0bffd15 	stw	r2,-12(fp)

  if (big_loops)
   2f70c:	e0bffd17 	ldw	r2,-12(fp)
   2f710:	10002a26 	beq	r2,zero,2f7bc <alt_busy_sleep+0x10c>
  {
    for(i=0;i<big_loops;i++)
   2f714:	e03fff15 	stw	zero,-4(fp)
   2f718:	00001706 	br	2f778 <alt_busy_sleep+0xc8>
      /*
      * Do NOT Try to single step the asm statement below 
      * (single step will never return)
      * Step out of this function or set a breakpoint after the asm statements
      */
      __asm__ volatile (
   2f71c:	00a00034 	movhi	r2,32768
   2f720:	10bfffc4 	addi	r2,r2,-1
   2f724:	10bfffc4 	addi	r2,r2,-1
   2f728:	103ffe1e 	bne	r2,zero,2f724 <alt_busy_sleep+0x74>
        "\n\t.pushsection .debug_alt_sim_info"
        "\n\t.int 4, 0, 0b, 1b"
        "\n\t.popsection"
        :: "r" (INT_MAX));
      us -= (INT_MAX/(ALT_CPU_FREQ/
      (cycles_per_loop * 1000000)));
   2f72c:	e0fffe17 	ldw	r3,-8(fp)
   2f730:	008003f4 	movhi	r2,15
   2f734:	10909004 	addi	r2,r2,16960
   2f738:	1885383a 	mul	r2,r3,r2
      us -= (INT_MAX/(ALT_CPU_FREQ/
   2f73c:	100b883a 	mov	r5,r2
   2f740:	0100bef4 	movhi	r4,763
   2f744:	213c2004 	addi	r4,r4,-3968
   2f748:	00209ac0 	call	209ac <__udivsi3>
   2f74c:	100b883a 	mov	r5,r2
   2f750:	01200034 	movhi	r4,32768
   2f754:	213fffc4 	addi	r4,r4,-1
   2f758:	00209ac0 	call	209ac <__udivsi3>
   2f75c:	1007883a 	mov	r3,r2
   2f760:	e0bffc17 	ldw	r2,-16(fp)
   2f764:	10c5c83a 	sub	r2,r2,r3
   2f768:	e0bffc15 	stw	r2,-16(fp)
    for(i=0;i<big_loops;i++)
   2f76c:	e0bfff17 	ldw	r2,-4(fp)
   2f770:	10800044 	addi	r2,r2,1
   2f774:	e0bfff15 	stw	r2,-4(fp)
   2f778:	e0ffff17 	ldw	r3,-4(fp)
   2f77c:	e0bffd17 	ldw	r2,-12(fp)
   2f780:	18bfe616 	blt	r3,r2,2f71c <alt_busy_sleep+0x6c>
      "\n\tbne %0,zero,0b"
      "\n1:"
      "\n\t.pushsection .debug_alt_sim_info"
      "\n\t.int 4, 0, 0b, 1b"
      "\n\t.popsection"
      :: "r" (us*(ALT_CPU_FREQ/(cycles_per_loop * 1000000))));
   2f784:	e0fffe17 	ldw	r3,-8(fp)
   2f788:	008003f4 	movhi	r2,15
   2f78c:	10909004 	addi	r2,r2,16960
   2f790:	1885383a 	mul	r2,r3,r2
   2f794:	100b883a 	mov	r5,r2
   2f798:	0100bef4 	movhi	r4,763
   2f79c:	213c2004 	addi	r4,r4,-3968
   2f7a0:	00209ac0 	call	209ac <__udivsi3>
   2f7a4:	1007883a 	mov	r3,r2
   2f7a8:	e0bffc17 	ldw	r2,-16(fp)
   2f7ac:	1885383a 	mul	r2,r3,r2
    __asm__ volatile (
   2f7b0:	10bfffc4 	addi	r2,r2,-1
   2f7b4:	103ffe1e 	bne	r2,zero,2f7b0 <alt_busy_sleep+0x100>
   2f7b8:	00000d06 	br	2f7f0 <alt_busy_sleep+0x140>
      "\n\tbgt %0,zero,0b"
      "\n1:"
      "\n\t.pushsection .debug_alt_sim_info"
      "\n\t.int 4, 0, 0b, 1b"
      "\n\t.popsection"
      :: "r" (us*(ALT_CPU_FREQ/(cycles_per_loop * 1000000))));
   2f7bc:	e0fffe17 	ldw	r3,-8(fp)
   2f7c0:	008003f4 	movhi	r2,15
   2f7c4:	10909004 	addi	r2,r2,16960
   2f7c8:	1885383a 	mul	r2,r3,r2
   2f7cc:	100b883a 	mov	r5,r2
   2f7d0:	0100bef4 	movhi	r4,763
   2f7d4:	213c2004 	addi	r4,r4,-3968
   2f7d8:	00209ac0 	call	209ac <__udivsi3>
   2f7dc:	1007883a 	mov	r3,r2
   2f7e0:	e0bffc17 	ldw	r2,-16(fp)
   2f7e4:	1885383a 	mul	r2,r3,r2
    __asm__ volatile (
   2f7e8:	10bfffc4 	addi	r2,r2,-1
   2f7ec:	00bffe16 	blt	zero,r2,2f7e8 <alt_busy_sleep+0x138>
  }
#endif /* #ifndef ALT_SIM_OPTIMIZE */
  return 0;
   2f7f0:	0005883a 	mov	r2,zero
}
   2f7f4:	e037883a 	mov	sp,fp
   2f7f8:	dfc00117 	ldw	ra,4(sp)
   2f7fc:	df000017 	ldw	fp,0(sp)
   2f800:	dec00204 	addi	sp,sp,8
   2f804:	f800283a 	ret

0002f808 <alt_dcache_flush_all>:
/*
 * alt_dcache_flush_all() is called to flush the entire data cache.
 */

void alt_dcache_flush_all (void)
{
   2f808:	deffff04 	addi	sp,sp,-4
   2f80c:	df000015 	stw	fp,0(sp)
   2f810:	d839883a 	mov	fp,sp
  for (i = (char*) 0; i < (char*) NIOS2_DCACHE_SIZE; i+= NIOS2_DCACHE_LINE_SIZE)
  { 
    __asm__ volatile ("flushd (%0)" :: "r" (i));
  }
#endif /* NIOS2_DCACHE_SIZE > 0 */
}
   2f814:	0001883a 	nop
   2f818:	e037883a 	mov	sp,fp
   2f81c:	df000017 	ldw	fp,0(sp)
   2f820:	dec00104 	addi	sp,sp,4
   2f824:	f800283a 	ret

0002f828 <alt_get_errno>:
{
   2f828:	defffe04 	addi	sp,sp,-8
   2f82c:	dfc00115 	stw	ra,4(sp)
   2f830:	df000015 	stw	fp,0(sp)
   2f834:	d839883a 	mov	fp,sp
  return ((alt_errno) ? alt_errno() : &errno);
   2f838:	d0a00917 	ldw	r2,-32732(gp)
   2f83c:	10000326 	beq	r2,zero,2f84c <alt_get_errno+0x24>
   2f840:	d0a00917 	ldw	r2,-32732(gp)
   2f844:	103ee83a 	callr	r2
   2f848:	00000106 	br	2f850 <alt_get_errno+0x28>
   2f84c:	d0a72104 	addi	r2,gp,-25468
}
   2f850:	e037883a 	mov	sp,fp
   2f854:	dfc00117 	ldw	ra,4(sp)
   2f858:	df000017 	ldw	fp,0(sp)
   2f85c:	dec00204 	addi	sp,sp,8
   2f860:	f800283a 	ret

0002f864 <alt_dev_llist_insert>:
/*
 *
 */

int alt_dev_llist_insert (alt_dev_llist* dev, alt_llist* list)
{
   2f864:	defffa04 	addi	sp,sp,-24
   2f868:	dfc00515 	stw	ra,20(sp)
   2f86c:	df000415 	stw	fp,16(sp)
   2f870:	df000404 	addi	fp,sp,16
   2f874:	e13ffd15 	stw	r4,-12(fp)
   2f878:	e17ffc15 	stw	r5,-16(fp)
  /*
   * check that the device exists, and that it has a valid name.
   */

  if (!dev || !dev->name)
   2f87c:	e0bffd17 	ldw	r2,-12(fp)
   2f880:	10000326 	beq	r2,zero,2f890 <alt_dev_llist_insert+0x2c>
   2f884:	e0bffd17 	ldw	r2,-12(fp)
   2f888:	10800217 	ldw	r2,8(r2)
   2f88c:	1000061e 	bne	r2,zero,2f8a8 <alt_dev_llist_insert+0x44>
  {
    ALT_ERRNO = EINVAL;
   2f890:	002f8280 	call	2f828 <alt_get_errno>
   2f894:	1007883a 	mov	r3,r2
   2f898:	00800584 	movi	r2,22
   2f89c:	18800015 	stw	r2,0(r3)
    return -EINVAL;
   2f8a0:	00bffa84 	movi	r2,-22
   2f8a4:	00001406 	br	2f8f8 <alt_dev_llist_insert+0x94>
  
  /*
   * register the device.
   */
  
  alt_llist_insert(list, &dev->llist);
   2f8a8:	e0bffd17 	ldw	r2,-12(fp)
   2f8ac:	e0fffc17 	ldw	r3,-16(fp)
   2f8b0:	e0ffff15 	stw	r3,-4(fp)
   2f8b4:	e0bffe15 	stw	r2,-8(fp)
  entry->previous = list;
   2f8b8:	e0bffe17 	ldw	r2,-8(fp)
   2f8bc:	e0ffff17 	ldw	r3,-4(fp)
   2f8c0:	10c00115 	stw	r3,4(r2)
  entry->next     = list->next;
   2f8c4:	e0bfff17 	ldw	r2,-4(fp)
   2f8c8:	10c00017 	ldw	r3,0(r2)
   2f8cc:	e0bffe17 	ldw	r2,-8(fp)
   2f8d0:	10c00015 	stw	r3,0(r2)
  list->next->previous = entry;
   2f8d4:	e0bfff17 	ldw	r2,-4(fp)
   2f8d8:	10800017 	ldw	r2,0(r2)
   2f8dc:	e0fffe17 	ldw	r3,-8(fp)
   2f8e0:	10c00115 	stw	r3,4(r2)
  list->next           = entry;
   2f8e4:	e0bfff17 	ldw	r2,-4(fp)
   2f8e8:	e0fffe17 	ldw	r3,-8(fp)
   2f8ec:	10c00015 	stw	r3,0(r2)
}
   2f8f0:	0001883a 	nop

  return 0;  
   2f8f4:	0005883a 	mov	r2,zero
}
   2f8f8:	e037883a 	mov	sp,fp
   2f8fc:	dfc00117 	ldw	ra,4(sp)
   2f900:	df000017 	ldw	fp,0(sp)
   2f904:	dec00204 	addi	sp,sp,8
   2f908:	f800283a 	ret

0002f90c <_do_ctors>:
/*
 * Run the C++ static constructors.
 */

void _do_ctors(void)
{
   2f90c:	defffd04 	addi	sp,sp,-12
   2f910:	dfc00215 	stw	ra,8(sp)
   2f914:	df000115 	stw	fp,4(sp)
   2f918:	df000104 	addi	fp,sp,4
  constructor* ctor;

  for (ctor = &__CTOR_END__[-1]; ctor >= __CTOR_LIST__; ctor--)
   2f91c:	008000f4 	movhi	r2,3
   2f920:	10817d04 	addi	r2,r2,1524
   2f924:	e0bfff15 	stw	r2,-4(fp)
   2f928:	00000606 	br	2f944 <_do_ctors+0x38>
        (*ctor) (); 
   2f92c:	e0bfff17 	ldw	r2,-4(fp)
   2f930:	10800017 	ldw	r2,0(r2)
   2f934:	103ee83a 	callr	r2
  for (ctor = &__CTOR_END__[-1]; ctor >= __CTOR_LIST__; ctor--)
   2f938:	e0bfff17 	ldw	r2,-4(fp)
   2f93c:	10bfff04 	addi	r2,r2,-4
   2f940:	e0bfff15 	stw	r2,-4(fp)
   2f944:	e0ffff17 	ldw	r3,-4(fp)
   2f948:	008000f4 	movhi	r2,3
   2f94c:	10817e04 	addi	r2,r2,1528
   2f950:	18bff62e 	bgeu	r3,r2,2f92c <_do_ctors+0x20>
}
   2f954:	0001883a 	nop
   2f958:	0001883a 	nop
   2f95c:	e037883a 	mov	sp,fp
   2f960:	dfc00117 	ldw	ra,4(sp)
   2f964:	df000017 	ldw	fp,0(sp)
   2f968:	dec00204 	addi	sp,sp,8
   2f96c:	f800283a 	ret

0002f970 <_do_dtors>:
/*
 * Run the C++ static destructors.
 */

void _do_dtors(void)
{
   2f970:	defffd04 	addi	sp,sp,-12
   2f974:	dfc00215 	stw	ra,8(sp)
   2f978:	df000115 	stw	fp,4(sp)
   2f97c:	df000104 	addi	fp,sp,4
  destructor* dtor;

  for (dtor = &__DTOR_END__[-1]; dtor >= __DTOR_LIST__; dtor--)
   2f980:	008000f4 	movhi	r2,3
   2f984:	10817d04 	addi	r2,r2,1524
   2f988:	e0bfff15 	stw	r2,-4(fp)
   2f98c:	00000606 	br	2f9a8 <_do_dtors+0x38>
        (*dtor) (); 
   2f990:	e0bfff17 	ldw	r2,-4(fp)
   2f994:	10800017 	ldw	r2,0(r2)
   2f998:	103ee83a 	callr	r2
  for (dtor = &__DTOR_END__[-1]; dtor >= __DTOR_LIST__; dtor--)
   2f99c:	e0bfff17 	ldw	r2,-4(fp)
   2f9a0:	10bfff04 	addi	r2,r2,-4
   2f9a4:	e0bfff15 	stw	r2,-4(fp)
   2f9a8:	e0ffff17 	ldw	r3,-4(fp)
   2f9ac:	008000f4 	movhi	r2,3
   2f9b0:	10817e04 	addi	r2,r2,1528
   2f9b4:	18bff62e 	bgeu	r3,r2,2f990 <_do_dtors+0x20>
}
   2f9b8:	0001883a 	nop
   2f9bc:	0001883a 	nop
   2f9c0:	e037883a 	mov	sp,fp
   2f9c4:	dfc00117 	ldw	ra,4(sp)
   2f9c8:	df000017 	ldw	fp,0(sp)
   2f9cc:	dec00204 	addi	sp,sp,8
   2f9d0:	f800283a 	ret

0002f9d4 <alt_find_dev>:
 * "name" must be an exact match for the devices registered name for a match to
 * be found.
 */
 
alt_dev* alt_find_dev(const char* name, alt_llist* llist)
{
   2f9d4:	defffa04 	addi	sp,sp,-24
   2f9d8:	dfc00515 	stw	ra,20(sp)
   2f9dc:	df000415 	stw	fp,16(sp)
   2f9e0:	df000404 	addi	fp,sp,16
   2f9e4:	e13ffd15 	stw	r4,-12(fp)
   2f9e8:	e17ffc15 	stw	r5,-16(fp)
  alt_dev* next = (alt_dev*) llist->next;
   2f9ec:	e0bffc17 	ldw	r2,-16(fp)
   2f9f0:	10800017 	ldw	r2,0(r2)
   2f9f4:	e0bfff15 	stw	r2,-4(fp)
  alt_32 len;

  len  = strlen(name) + 1;
   2f9f8:	e13ffd17 	ldw	r4,-12(fp)
   2f9fc:	0020bb40 	call	20bb4 <strlen>
   2fa00:	10800044 	addi	r2,r2,1
   2fa04:	e0bffe15 	stw	r2,-8(fp)
  /*
   * Check each list entry in turn, until a match is found, or we reach the
   * end of the list (i.e. next winds up pointing back to the list head).
   */ 

  while (next != (alt_dev*) llist)
   2fa08:	00000d06 	br	2fa40 <alt_find_dev+0x6c>
    /* 
     * memcmp() is used here rather than strcmp() in order to reduce the size
     * of the executable.
     */

    if (!memcmp (next->name, name, len))
   2fa0c:	e0bfff17 	ldw	r2,-4(fp)
   2fa10:	10800217 	ldw	r2,8(r2)
   2fa14:	e0fffe17 	ldw	r3,-8(fp)
   2fa18:	180d883a 	mov	r6,r3
   2fa1c:	e17ffd17 	ldw	r5,-12(fp)
   2fa20:	1009883a 	mov	r4,r2
   2fa24:	00303d00 	call	303d0 <memcmp>
   2fa28:	1000021e 	bne	r2,zero,2fa34 <alt_find_dev+0x60>
    {
      /* match found */

      return next;
   2fa2c:	e0bfff17 	ldw	r2,-4(fp)
   2fa30:	00000706 	br	2fa50 <alt_find_dev+0x7c>
    }
    next = (alt_dev*) next->llist.next;
   2fa34:	e0bfff17 	ldw	r2,-4(fp)
   2fa38:	10800017 	ldw	r2,0(r2)
   2fa3c:	e0bfff15 	stw	r2,-4(fp)
  while (next != (alt_dev*) llist)
   2fa40:	e0ffff17 	ldw	r3,-4(fp)
   2fa44:	e0bffc17 	ldw	r2,-16(fp)
   2fa48:	18bff01e 	bne	r3,r2,2fa0c <alt_find_dev+0x38>
  }
  
  /* No match found */
  
  return NULL;
   2fa4c:	0005883a 	mov	r2,zero
}
   2fa50:	e037883a 	mov	sp,fp
   2fa54:	dfc00117 	ldw	ra,4(sp)
   2fa58:	df000017 	ldw	fp,0(sp)
   2fa5c:	dec00204 	addi	sp,sp,8
   2fa60:	f800283a 	ret

0002fa64 <alt_icache_flush_all>:
/*
 * alt_icache_flush_all() is called to flush the entire instruction cache.
 */

void alt_icache_flush_all (void)
{
   2fa64:	deffff04 	addi	sp,sp,-4
   2fa68:	df000015 	stw	fp,0(sp)
   2fa6c:	d839883a 	mov	fp,sp
#if NIOS2_ICACHE_SIZE > 0
  alt_icache_flush (0, NIOS2_ICACHE_SIZE);
#endif
}
   2fa70:	0001883a 	nop
   2fa74:	e037883a 	mov	sp,fp
   2fa78:	df000017 	ldw	fp,0(sp)
   2fa7c:	dec00104 	addi	sp,sp,4
   2fa80:	f800283a 	ret

0002fa84 <alt_open_fd>:
 * If the device can not be succesfully opened, then the input file descriptor
 * remains unchanged.
 */

static void alt_open_fd(alt_fd* fd, const char* name, int flags, int mode)
{
   2fa84:	defff904 	addi	sp,sp,-28
   2fa88:	dfc00615 	stw	ra,24(sp)
   2fa8c:	df000515 	stw	fp,20(sp)
   2fa90:	df000504 	addi	fp,sp,20
   2fa94:	e13ffe15 	stw	r4,-8(fp)
   2fa98:	e17ffd15 	stw	r5,-12(fp)
   2fa9c:	e1bffc15 	stw	r6,-16(fp)
   2faa0:	e1fffb15 	stw	r7,-20(fp)
  int old;

  old = open (name, flags, mode);
   2faa4:	e1bffb17 	ldw	r6,-20(fp)
   2faa8:	e17ffc17 	ldw	r5,-16(fp)
   2faac:	e13ffd17 	ldw	r4,-12(fp)
   2fab0:	002fe240 	call	2fe24 <open>
   2fab4:	e0bfff15 	stw	r2,-4(fp)

  if (old >= 0)
   2fab8:	e0bfff17 	ldw	r2,-4(fp)
   2fabc:	10001716 	blt	r2,zero,2fb1c <alt_open_fd+0x98>
  {
    fd->dev      = alt_fd_list[old].dev;
   2fac0:	e0bfff17 	ldw	r2,-4(fp)
   2fac4:	10c00324 	muli	r3,r2,12
   2fac8:	008000f4 	movhi	r2,3
   2facc:	1885883a 	add	r2,r3,r2
   2fad0:	10c5b317 	ldw	r3,5836(r2)
   2fad4:	e0bffe17 	ldw	r2,-8(fp)
   2fad8:	10c00015 	stw	r3,0(r2)
    fd->priv     = alt_fd_list[old].priv;
   2fadc:	e0bfff17 	ldw	r2,-4(fp)
   2fae0:	10c00324 	muli	r3,r2,12
   2fae4:	008000f4 	movhi	r2,3
   2fae8:	1885883a 	add	r2,r3,r2
   2faec:	10c5b417 	ldw	r3,5840(r2)
   2faf0:	e0bffe17 	ldw	r2,-8(fp)
   2faf4:	10c00115 	stw	r3,4(r2)
    fd->fd_flags = alt_fd_list[old].fd_flags;
   2faf8:	e0bfff17 	ldw	r2,-4(fp)
   2fafc:	10c00324 	muli	r3,r2,12
   2fb00:	008000f4 	movhi	r2,3
   2fb04:	1885883a 	add	r2,r3,r2
   2fb08:	10c5b517 	ldw	r3,5844(r2)
   2fb0c:	e0bffe17 	ldw	r2,-8(fp)
   2fb10:	10c00215 	stw	r3,8(r2)

    alt_release_fd (old);
   2fb14:	e13fff17 	ldw	r4,-4(fp)
   2fb18:	002e2700 	call	2e270 <alt_release_fd>
  }
} 
   2fb1c:	0001883a 	nop
   2fb20:	e037883a 	mov	sp,fp
   2fb24:	dfc00117 	ldw	ra,4(sp)
   2fb28:	df000017 	ldw	fp,0(sp)
   2fb2c:	dec00204 	addi	sp,sp,8
   2fb30:	f800283a 	ret

0002fb34 <alt_io_redirect>:
 */
 
void alt_io_redirect(const char* stdout_dev, 
                     const char* stdin_dev, 
                     const char* stderr_dev)
{
   2fb34:	defffb04 	addi	sp,sp,-20
   2fb38:	dfc00415 	stw	ra,16(sp)
   2fb3c:	df000315 	stw	fp,12(sp)
   2fb40:	df000304 	addi	fp,sp,12
   2fb44:	e13fff15 	stw	r4,-4(fp)
   2fb48:	e17ffe15 	stw	r5,-8(fp)
   2fb4c:	e1bffd15 	stw	r6,-12(fp)
  /* Redirect the channels */

  alt_open_fd (&alt_fd_list[STDOUT_FILENO], stdout_dev, O_WRONLY, 0777);
   2fb50:	01c07fc4 	movi	r7,511
   2fb54:	01800044 	movi	r6,1
   2fb58:	e17fff17 	ldw	r5,-4(fp)
   2fb5c:	010000f4 	movhi	r4,3
   2fb60:	2105b604 	addi	r4,r4,5848
   2fb64:	002fa840 	call	2fa84 <alt_open_fd>
  alt_open_fd (&alt_fd_list[STDIN_FILENO], stdin_dev, O_RDONLY, 0777);
   2fb68:	01c07fc4 	movi	r7,511
   2fb6c:	000d883a 	mov	r6,zero
   2fb70:	e17ffe17 	ldw	r5,-8(fp)
   2fb74:	010000f4 	movhi	r4,3
   2fb78:	2105b304 	addi	r4,r4,5836
   2fb7c:	002fa840 	call	2fa84 <alt_open_fd>
  alt_open_fd (&alt_fd_list[STDERR_FILENO], stderr_dev, O_WRONLY, 0777);
   2fb80:	01c07fc4 	movi	r7,511
   2fb84:	01800044 	movi	r6,1
   2fb88:	e17ffd17 	ldw	r5,-12(fp)
   2fb8c:	010000f4 	movhi	r4,3
   2fb90:	2105b904 	addi	r4,r4,5860
   2fb94:	002fa840 	call	2fa84 <alt_open_fd>
}  
   2fb98:	0001883a 	nop
   2fb9c:	e037883a 	mov	sp,fp
   2fba0:	dfc00117 	ldw	ra,4(sp)
   2fba4:	df000017 	ldw	fp,0(sp)
   2fba8:	dec00204 	addi	sp,sp,8
   2fbac:	f800283a 	ret

0002fbb0 <alt_irq_register>:
 */
 
int alt_irq_register (alt_u32 id, 
                      void* context, 
                      alt_isr_func handler)
{
   2fbb0:	defff004 	addi	sp,sp,-64
   2fbb4:	df000f15 	stw	fp,60(sp)
   2fbb8:	df000f04 	addi	fp,sp,60
   2fbbc:	e13ff315 	stw	r4,-52(fp)
   2fbc0:	e17ff215 	stw	r5,-56(fp)
   2fbc4:	e1bff115 	stw	r6,-60(fp)
  int rc = -EINVAL;  
   2fbc8:	00bffa84 	movi	r2,-22
   2fbcc:	e0bfff15 	stw	r2,-4(fp)
  alt_irq_context status;

  if (id < ALT_NIRQ)
   2fbd0:	e0bff317 	ldw	r2,-52(fp)
   2fbd4:	10800828 	cmpgeui	r2,r2,32
   2fbd8:	1000501e 	bne	r2,zero,2fd1c <alt_irq_register+0x16c>
  NIOS2_READ_STATUS (context);
   2fbdc:	0005303a 	rdctl	r2,status
   2fbe0:	e0bffd15 	stw	r2,-12(fp)
  NIOS2_WRITE_STATUS (context & ~NIOS2_STATUS_PIE_MSK);
   2fbe4:	e0fffd17 	ldw	r3,-12(fp)
   2fbe8:	00bfff84 	movi	r2,-2
   2fbec:	1884703a 	and	r2,r3,r2
   2fbf0:	1001703a 	wrctl	status,r2
  return context;
   2fbf4:	e0bffd17 	ldw	r2,-12(fp)
     * interrupts are disabled while the handler tables are updated to ensure
     * that an interrupt doesn't occur while the tables are in an inconsistant
     * state.
     */

    status = alt_irq_disable_all ();
   2fbf8:	e0bffe15 	stw	r2,-8(fp)

    alt_irq[id].handler = handler;
   2fbfc:	e0bff317 	ldw	r2,-52(fp)
   2fc00:	100890fa 	slli	r4,r2,3
   2fc04:	e0fff117 	ldw	r3,-60(fp)
   2fc08:	008000f4 	movhi	r2,3
   2fc0c:	2085883a 	add	r2,r4,r2
   2fc10:	10d17615 	stw	r3,17880(r2)
    alt_irq[id].context = context;
   2fc14:	e0bff317 	ldw	r2,-52(fp)
   2fc18:	100890fa 	slli	r4,r2,3
   2fc1c:	e0fff217 	ldw	r3,-56(fp)
   2fc20:	008000f4 	movhi	r2,3
   2fc24:	2085883a 	add	r2,r4,r2
   2fc28:	10d17715 	stw	r3,17884(r2)

    rc = (handler) ? alt_irq_enable (id): alt_irq_disable (id);
   2fc2c:	e0bff117 	ldw	r2,-60(fp)
   2fc30:	10001a26 	beq	r2,zero,2fc9c <alt_irq_register+0xec>
   2fc34:	e0bff317 	ldw	r2,-52(fp)
   2fc38:	e0bffc15 	stw	r2,-16(fp)
  NIOS2_READ_STATUS (context);
   2fc3c:	0005303a 	rdctl	r2,status
   2fc40:	e0bffb15 	stw	r2,-20(fp)
  NIOS2_WRITE_STATUS (context & ~NIOS2_STATUS_PIE_MSK);
   2fc44:	e0fffb17 	ldw	r3,-20(fp)
   2fc48:	00bfff84 	movi	r2,-2
   2fc4c:	1884703a 	and	r2,r3,r2
   2fc50:	1001703a 	wrctl	status,r2
  return context;
   2fc54:	e0bffb17 	ldw	r2,-20(fp)
static ALT_INLINE int ALT_ALWAYS_INLINE alt_irq_enable (alt_u32 id)
{
  alt_irq_context  status;
  extern volatile alt_u32 alt_irq_active;

  status = alt_irq_disable_all ();
   2fc58:	e0bffa15 	stw	r2,-24(fp)

  alt_irq_active |= (1 << id);
   2fc5c:	00c00044 	movi	r3,1
   2fc60:	e0bffc17 	ldw	r2,-16(fp)
   2fc64:	1884983a 	sll	r2,r3,r2
   2fc68:	1007883a 	mov	r3,r2
   2fc6c:	d0a72617 	ldw	r2,-25448(gp)
   2fc70:	1884b03a 	or	r2,r3,r2
   2fc74:	d0a72615 	stw	r2,-25448(gp)
  NIOS2_WRITE_IENABLE (alt_irq_active);
   2fc78:	d0a72617 	ldw	r2,-25448(gp)
   2fc7c:	100170fa 	wrctl	ienable,r2
   2fc80:	e0bffa17 	ldw	r2,-24(fp)
   2fc84:	e0bff915 	stw	r2,-28(fp)
  NIOS2_WRITE_STATUS (context);
   2fc88:	e0bff917 	ldw	r2,-28(fp)
   2fc8c:	1001703a 	wrctl	status,r2
}
   2fc90:	0001883a 	nop

  alt_irq_enable_all(status);

  return 0;
   2fc94:	0005883a 	mov	r2,zero
   2fc98:	00001a06 	br	2fd04 <alt_irq_register+0x154>
   2fc9c:	e0bff317 	ldw	r2,-52(fp)
   2fca0:	e0bff815 	stw	r2,-32(fp)
  NIOS2_READ_STATUS (context);
   2fca4:	0005303a 	rdctl	r2,status
   2fca8:	e0bff715 	stw	r2,-36(fp)
  NIOS2_WRITE_STATUS (context & ~NIOS2_STATUS_PIE_MSK);
   2fcac:	e0fff717 	ldw	r3,-36(fp)
   2fcb0:	00bfff84 	movi	r2,-2
   2fcb4:	1884703a 	and	r2,r3,r2
   2fcb8:	1001703a 	wrctl	status,r2
  return context;
   2fcbc:	e0bff717 	ldw	r2,-36(fp)
  status = alt_irq_disable_all ();
   2fcc0:	e0bff615 	stw	r2,-40(fp)
  alt_irq_active &= ~(1 << id);
   2fcc4:	00c00044 	movi	r3,1
   2fcc8:	e0bff817 	ldw	r2,-32(fp)
   2fccc:	1884983a 	sll	r2,r3,r2
   2fcd0:	0084303a 	nor	r2,zero,r2
   2fcd4:	1007883a 	mov	r3,r2
   2fcd8:	d0a72617 	ldw	r2,-25448(gp)
   2fcdc:	1884703a 	and	r2,r3,r2
   2fce0:	d0a72615 	stw	r2,-25448(gp)
  NIOS2_WRITE_IENABLE (alt_irq_active);
   2fce4:	d0a72617 	ldw	r2,-25448(gp)
   2fce8:	100170fa 	wrctl	ienable,r2
   2fcec:	e0bff617 	ldw	r2,-40(fp)
   2fcf0:	e0bff515 	stw	r2,-44(fp)
  NIOS2_WRITE_STATUS (context);
   2fcf4:	e0bff517 	ldw	r2,-44(fp)
   2fcf8:	1001703a 	wrctl	status,r2
}
   2fcfc:	0001883a 	nop
  return 0;
   2fd00:	0005883a 	mov	r2,zero
   2fd04:	e0bfff15 	stw	r2,-4(fp)
   2fd08:	e0bffe17 	ldw	r2,-8(fp)
   2fd0c:	e0bff415 	stw	r2,-48(fp)
  NIOS2_WRITE_STATUS (context);
   2fd10:	e0bff417 	ldw	r2,-48(fp)
   2fd14:	1001703a 	wrctl	status,r2
}
   2fd18:	0001883a 	nop

    alt_irq_enable_all(status);
  }
  return rc; 
   2fd1c:	e0bfff17 	ldw	r2,-4(fp)
}
   2fd20:	e037883a 	mov	sp,fp
   2fd24:	df000017 	ldw	fp,0(sp)
   2fd28:	dec00104 	addi	sp,sp,4
   2fd2c:	f800283a 	ret

0002fd30 <alt_get_errno>:
{
   2fd30:	defffe04 	addi	sp,sp,-8
   2fd34:	dfc00115 	stw	ra,4(sp)
   2fd38:	df000015 	stw	fp,0(sp)
   2fd3c:	d839883a 	mov	fp,sp
  return ((alt_errno) ? alt_errno() : &errno);
   2fd40:	d0a00917 	ldw	r2,-32732(gp)
   2fd44:	10000326 	beq	r2,zero,2fd54 <alt_get_errno+0x24>
   2fd48:	d0a00917 	ldw	r2,-32732(gp)
   2fd4c:	103ee83a 	callr	r2
   2fd50:	00000106 	br	2fd58 <alt_get_errno+0x28>
   2fd54:	d0a72104 	addi	r2,gp,-25468
}
   2fd58:	e037883a 	mov	sp,fp
   2fd5c:	dfc00117 	ldw	ra,4(sp)
   2fd60:	df000017 	ldw	fp,0(sp)
   2fd64:	dec00204 	addi	sp,sp,8
   2fd68:	f800283a 	ret

0002fd6c <alt_file_locked>:
 * performed for devices. Filesystems are required to handle the ioctl() call
 * themselves, and report the error from the filesystems open() function. 
 */ 

static int alt_file_locked (alt_fd* fd)
{
   2fd6c:	defffd04 	addi	sp,sp,-12
   2fd70:	df000215 	stw	fp,8(sp)
   2fd74:	df000204 	addi	fp,sp,8
   2fd78:	e13ffe15 	stw	r4,-8(fp)

  /*
   * Mark the file descriptor as belonging to a device.
   */

  fd->fd_flags |= ALT_FD_DEV;
   2fd7c:	e0bffe17 	ldw	r2,-8(fp)
   2fd80:	10800217 	ldw	r2,8(r2)
   2fd84:	10d00034 	orhi	r3,r2,16384
   2fd88:	e0bffe17 	ldw	r2,-8(fp)
   2fd8c:	10c00215 	stw	r3,8(r2)
  /*
   * Loop through all current file descriptors searching for one that's locked
   * for exclusive access. If a match is found, generate an error.
   */

  for (i = 0; i <= alt_max_fd; i++)
   2fd90:	e03fff15 	stw	zero,-4(fp)
   2fd94:	00001a06 	br	2fe00 <alt_file_locked+0x94>
  {
    if ((alt_fd_list[i].dev == fd->dev) &&
   2fd98:	e0bfff17 	ldw	r2,-4(fp)
   2fd9c:	10c00324 	muli	r3,r2,12
   2fda0:	008000f4 	movhi	r2,3
   2fda4:	1885883a 	add	r2,r3,r2
   2fda8:	10c5b317 	ldw	r3,5836(r2)
   2fdac:	e0bffe17 	ldw	r2,-8(fp)
   2fdb0:	10800017 	ldw	r2,0(r2)
   2fdb4:	18800f1e 	bne	r3,r2,2fdf4 <alt_file_locked+0x88>
        (alt_fd_list[i].fd_flags & ALT_FD_EXCL) &&
   2fdb8:	e0bfff17 	ldw	r2,-4(fp)
   2fdbc:	10c00324 	muli	r3,r2,12
   2fdc0:	008000f4 	movhi	r2,3
   2fdc4:	1885883a 	add	r2,r3,r2
   2fdc8:	1085b517 	ldw	r2,5844(r2)
    if ((alt_fd_list[i].dev == fd->dev) &&
   2fdcc:	1000090e 	bge	r2,zero,2fdf4 <alt_file_locked+0x88>
        (&alt_fd_list[i] != fd))
   2fdd0:	e0bfff17 	ldw	r2,-4(fp)
   2fdd4:	10c00324 	muli	r3,r2,12
   2fdd8:	008000f4 	movhi	r2,3
   2fddc:	1085b304 	addi	r2,r2,5836
   2fde0:	1885883a 	add	r2,r3,r2
        (alt_fd_list[i].fd_flags & ALT_FD_EXCL) &&
   2fde4:	e0fffe17 	ldw	r3,-8(fp)
   2fde8:	18800226 	beq	r3,r2,2fdf4 <alt_file_locked+0x88>
    {
      return -EACCES;
   2fdec:	00bffcc4 	movi	r2,-13
   2fdf0:	00000806 	br	2fe14 <alt_file_locked+0xa8>
  for (i = 0; i <= alt_max_fd; i++)
   2fdf4:	e0bfff17 	ldw	r2,-4(fp)
   2fdf8:	10800044 	addi	r2,r2,1
   2fdfc:	e0bfff15 	stw	r2,-4(fp)
   2fe00:	d0a00817 	ldw	r2,-32736(gp)
   2fe04:	1007883a 	mov	r3,r2
   2fe08:	e0bfff17 	ldw	r2,-4(fp)
   2fe0c:	18bfe22e 	bgeu	r3,r2,2fd98 <alt_file_locked+0x2c>
    }
  }
  
  /* The device is not locked */
 
  return 0;
   2fe10:	0005883a 	mov	r2,zero
}
   2fe14:	e037883a 	mov	sp,fp
   2fe18:	df000017 	ldw	fp,0(sp)
   2fe1c:	dec00104 	addi	sp,sp,4
   2fe20:	f800283a 	ret

0002fe24 <open>:
 *
 * ALT_OPEN is mapped onto the open() system call in alt_syscall.h
 */
 
int ALT_OPEN (const char* file, int flags, int mode)
{ 
   2fe24:	defff604 	addi	sp,sp,-40
   2fe28:	dfc00915 	stw	ra,36(sp)
   2fe2c:	df000815 	stw	fp,32(sp)
   2fe30:	df000804 	addi	fp,sp,32
   2fe34:	e13ffa15 	stw	r4,-24(fp)
   2fe38:	e17ff915 	stw	r5,-28(fp)
   2fe3c:	e1bff815 	stw	r6,-32(fp)
  alt_dev* dev;
  alt_fd*  fd;
  int index  = -1;
   2fe40:	00bfffc4 	movi	r2,-1
   2fe44:	e0bffe15 	stw	r2,-8(fp)
  int status = -ENODEV;
   2fe48:	00bffb44 	movi	r2,-19
   2fe4c:	e0bffd15 	stw	r2,-12(fp)
  int isafs = 0;
   2fe50:	e03ffc15 	stw	zero,-16(fp)
  /* 
   * Check the device list, to see if a device with a matching name is 
   * registered.
   */
  
  if (!(dev = alt_find_dev (file, &alt_dev_list)))
   2fe54:	d1600604 	addi	r5,gp,-32744
   2fe58:	e13ffa17 	ldw	r4,-24(fp)
   2fe5c:	002f9d40 	call	2f9d4 <alt_find_dev>
   2fe60:	e0bfff15 	stw	r2,-4(fp)
   2fe64:	e0bfff17 	ldw	r2,-4(fp)
   2fe68:	1000051e 	bne	r2,zero,2fe80 <open+0x5c>
  {
    /* No matching device, so try the filesystem list */

    dev   = alt_find_file (file);
   2fe6c:	e13ffa17 	ldw	r4,-24(fp)
   2fe70:	003016c0 	call	3016c <alt_find_file>
   2fe74:	e0bfff15 	stw	r2,-4(fp)
    isafs = 1;
   2fe78:	00800044 	movi	r2,1
   2fe7c:	e0bffc15 	stw	r2,-16(fp)

  /* 
   * If a matching device or filesystem is found, allocate a file descriptor. 
   */

  if (dev)
   2fe80:	e0bfff17 	ldw	r2,-4(fp)
   2fe84:	10002926 	beq	r2,zero,2ff2c <open+0x108>
  {
    if ((index = alt_get_fd (dev)) < 0)
   2fe88:	e13fff17 	ldw	r4,-4(fp)
   2fe8c:	00302740 	call	30274 <alt_get_fd>
   2fe90:	e0bffe15 	stw	r2,-8(fp)
   2fe94:	e0bffe17 	ldw	r2,-8(fp)
   2fe98:	1000030e 	bge	r2,zero,2fea8 <open+0x84>
    {
      status = index;
   2fe9c:	e0bffe17 	ldw	r2,-8(fp)
   2fea0:	e0bffd15 	stw	r2,-12(fp)
   2fea4:	00002306 	br	2ff34 <open+0x110>
    }
    else
    {
      fd = &alt_fd_list[index];
   2fea8:	e0bffe17 	ldw	r2,-8(fp)
   2feac:	10c00324 	muli	r3,r2,12
   2feb0:	008000f4 	movhi	r2,3
   2feb4:	1085b304 	addi	r2,r2,5836
   2feb8:	1885883a 	add	r2,r3,r2
   2febc:	e0bffb15 	stw	r2,-20(fp)
      fd->fd_flags = (flags & ~ALT_FD_FLAGS_MASK);
   2fec0:	e0fff917 	ldw	r3,-28(fp)
   2fec4:	00900034 	movhi	r2,16384
   2fec8:	10bfffc4 	addi	r2,r2,-1
   2fecc:	1886703a 	and	r3,r3,r2
   2fed0:	e0bffb17 	ldw	r2,-20(fp)
   2fed4:	10c00215 	stw	r3,8(r2)
      
      /* If this is a device, ensure it isn't already locked */

      if (isafs || ((status = alt_file_locked (fd)) >= 0))
   2fed8:	e0bffc17 	ldw	r2,-16(fp)
   2fedc:	1000051e 	bne	r2,zero,2fef4 <open+0xd0>
   2fee0:	e13ffb17 	ldw	r4,-20(fp)
   2fee4:	002fd6c0 	call	2fd6c <alt_file_locked>
   2fee8:	e0bffd15 	stw	r2,-12(fp)
   2feec:	e0bffd17 	ldw	r2,-12(fp)
   2fef0:	10001016 	blt	r2,zero,2ff34 <open+0x110>
        /* 
         * If the device or filesystem provides an open() callback function,
         * call it now to perform any device/filesystem specific operations.
         */
    
        status = (dev->open) ? dev->open(fd, file, flags, mode): 0;
   2fef4:	e0bfff17 	ldw	r2,-4(fp)
   2fef8:	10800317 	ldw	r2,12(r2)
   2fefc:	10000826 	beq	r2,zero,2ff20 <open+0xfc>
   2ff00:	e0bfff17 	ldw	r2,-4(fp)
   2ff04:	10800317 	ldw	r2,12(r2)
   2ff08:	e1fff817 	ldw	r7,-32(fp)
   2ff0c:	e1bff917 	ldw	r6,-28(fp)
   2ff10:	e17ffa17 	ldw	r5,-24(fp)
   2ff14:	e13ffb17 	ldw	r4,-20(fp)
   2ff18:	103ee83a 	callr	r2
   2ff1c:	00000106 	br	2ff24 <open+0x100>
   2ff20:	0005883a 	mov	r2,zero
   2ff24:	e0bffd15 	stw	r2,-12(fp)
   2ff28:	00000206 	br	2ff34 <open+0x110>
      }
    }
  }
  else
  {
    status = -ENODEV;
   2ff2c:	00bffb44 	movi	r2,-19
   2ff30:	e0bffd15 	stw	r2,-12(fp)
  }

  /* Allocation failed, so clean up and return an error */ 

  if (status < 0)
   2ff34:	e0bffd17 	ldw	r2,-12(fp)
   2ff38:	1000090e 	bge	r2,zero,2ff60 <open+0x13c>
  {
    alt_release_fd (index);  
   2ff3c:	e13ffe17 	ldw	r4,-8(fp)
   2ff40:	002e2700 	call	2e270 <alt_release_fd>
    ALT_ERRNO = -status;
   2ff44:	002fd300 	call	2fd30 <alt_get_errno>
   2ff48:	1007883a 	mov	r3,r2
   2ff4c:	e0bffd17 	ldw	r2,-12(fp)
   2ff50:	0085c83a 	sub	r2,zero,r2
   2ff54:	18800015 	stw	r2,0(r3)
    return -1;
   2ff58:	00bfffc4 	movi	r2,-1
   2ff5c:	00000106 	br	2ff64 <open+0x140>
  }
  
  /* return the reference upon success */

  return index;
   2ff60:	e0bffe17 	ldw	r2,-8(fp)
}
   2ff64:	e037883a 	mov	sp,fp
   2ff68:	dfc00117 	ldw	ra,4(sp)
   2ff6c:	df000017 	ldw	fp,0(sp)
   2ff70:	dec00204 	addi	sp,sp,8
   2ff74:	f800283a 	ret

0002ff78 <alt_alarm_stop>:
 * alarms. Alternatively an alarm can unregister itself by returning zero when 
 * the alarm executes.
 */

void alt_alarm_stop (alt_alarm* alarm)
{
   2ff78:	defffa04 	addi	sp,sp,-24
   2ff7c:	df000515 	stw	fp,20(sp)
   2ff80:	df000504 	addi	fp,sp,20
   2ff84:	e13ffb15 	stw	r4,-20(fp)
  NIOS2_READ_STATUS (context);
   2ff88:	0005303a 	rdctl	r2,status
   2ff8c:	e0bffc15 	stw	r2,-16(fp)
  NIOS2_WRITE_STATUS (context & ~NIOS2_STATUS_PIE_MSK);
   2ff90:	e0fffc17 	ldw	r3,-16(fp)
   2ff94:	00bfff84 	movi	r2,-2
   2ff98:	1884703a 	and	r2,r3,r2
   2ff9c:	1001703a 	wrctl	status,r2
  return context;
   2ffa0:	e0bffc17 	ldw	r2,-16(fp)
  alt_irq_context irq_context;

  irq_context = alt_irq_disable_all();
   2ffa4:	e0bfff15 	stw	r2,-4(fp)
  alt_llist_remove (&alarm->llist);
   2ffa8:	e0bffb17 	ldw	r2,-20(fp)
   2ffac:	e0bffd15 	stw	r2,-12(fp)
 * input argument is the element to remove.
 */
     
static ALT_INLINE void ALT_ALWAYS_INLINE alt_llist_remove(alt_llist* entry)
{
  entry->next->previous = entry->previous;
   2ffb0:	e0bffd17 	ldw	r2,-12(fp)
   2ffb4:	10800017 	ldw	r2,0(r2)
   2ffb8:	e0fffd17 	ldw	r3,-12(fp)
   2ffbc:	18c00117 	ldw	r3,4(r3)
   2ffc0:	10c00115 	stw	r3,4(r2)
  entry->previous->next = entry->next;
   2ffc4:	e0bffd17 	ldw	r2,-12(fp)
   2ffc8:	10800117 	ldw	r2,4(r2)
   2ffcc:	e0fffd17 	ldw	r3,-12(fp)
   2ffd0:	18c00017 	ldw	r3,0(r3)
   2ffd4:	10c00015 	stw	r3,0(r2)
  /* 
   * Set the entry to point to itself, so that any further calls to
   * alt_llist_remove() are harmless.
   */

  entry->previous = entry;
   2ffd8:	e0bffd17 	ldw	r2,-12(fp)
   2ffdc:	e0fffd17 	ldw	r3,-12(fp)
   2ffe0:	10c00115 	stw	r3,4(r2)
  entry->next     = entry;
   2ffe4:	e0bffd17 	ldw	r2,-12(fp)
   2ffe8:	e0fffd17 	ldw	r3,-12(fp)
   2ffec:	10c00015 	stw	r3,0(r2)
} 
   2fff0:	0001883a 	nop
   2fff4:	e0bfff17 	ldw	r2,-4(fp)
   2fff8:	e0bffe15 	stw	r2,-8(fp)
  NIOS2_WRITE_STATUS (context);
   2fffc:	e0bffe17 	ldw	r2,-8(fp)
   30000:	1001703a 	wrctl	status,r2
}
   30004:	0001883a 	nop
  alt_irq_enable_all (irq_context);
}
   30008:	0001883a 	nop
   3000c:	e037883a 	mov	sp,fp
   30010:	df000017 	ldw	fp,0(sp)
   30014:	dec00104 	addi	sp,sp,4
   30018:	f800283a 	ret

0003001c <alt_tick>:
 * 
 * alt_tick() is expected to run at interrupt level.
 */

void alt_tick (void)
{
   3001c:	defff904 	addi	sp,sp,-28
   30020:	dfc00615 	stw	ra,24(sp)
   30024:	df000515 	stw	fp,20(sp)
   30028:	dc400415 	stw	r17,16(sp)
   3002c:	dc000315 	stw	r16,12(sp)
   30030:	df000504 	addi	fp,sp,20
  alt_alarm* next;
  alt_alarm* alarm = (alt_alarm*) alt_alarm_list.next;
   30034:	d0a00c17 	ldw	r2,-32720(gp)
   30038:	e0bffd15 	stw	r2,-12(fp)

  alt_u32    next_callback;

  /* update the tick counter */

  _alt_nticks++;
   3003c:	d1272817 	ldw	r4,-25440(gp)
   30040:	d1672917 	ldw	r5,-25436(gp)
   30044:	01800044 	movi	r6,1
   30048:	000f883a 	mov	r7,zero
   3004c:	2185883a 	add	r2,r4,r6
   30050:	1111803a 	cmpltu	r8,r2,r4
   30054:	29c7883a 	add	r3,r5,r7
   30058:	40c9883a 	add	r4,r8,r3
   3005c:	2007883a 	mov	r3,r4
   30060:	1009883a 	mov	r4,r2
   30064:	180b883a 	mov	r5,r3
   30068:	d1272815 	stw	r4,-25440(gp)
   3006c:	d1672915 	stw	r5,-25436(gp)
 
  /* process the registered callbacks */

  while (alarm != (alt_alarm*) &alt_alarm_list)
   30070:	00002906 	br	30118 <alt_tick+0xfc>
  {
    next = (alt_alarm*) alarm->llist.next;
   30074:	e0bffd17 	ldw	r2,-12(fp)
   30078:	10800017 	ldw	r2,0(r2)
   3007c:	e0bffc15 	stw	r2,-16(fp)
    
    /* if the alarm period has expired, make the callback */    
    if (alarm->time <= _alt_nticks)
   30080:	e13ffd17 	ldw	r4,-12(fp)
   30084:	20800217 	ldw	r2,8(r4)
   30088:	20c00317 	ldw	r3,12(r4)
   3008c:	d1272817 	ldw	r4,-25440(gp)
   30090:	d1672917 	ldw	r5,-25436(gp)
   30094:	28c01e36 	bltu	r5,r3,30110 <alt_tick+0xf4>
   30098:	1940011e 	bne	r3,r5,300a0 <alt_tick+0x84>
   3009c:	20801c36 	bltu	r4,r2,30110 <alt_tick+0xf4>
    {
      next_callback = alarm->callback (alarm->context);
   300a0:	e0bffd17 	ldw	r2,-12(fp)
   300a4:	10800417 	ldw	r2,16(r2)
   300a8:	e0fffd17 	ldw	r3,-12(fp)
   300ac:	18c00517 	ldw	r3,20(r3)
   300b0:	1809883a 	mov	r4,r3
   300b4:	103ee83a 	callr	r2
   300b8:	e0bffb15 	stw	r2,-20(fp)

      /* deactivate the alarm if the return value is zero */

      if (next_callback == 0)
   300bc:	e0bffb17 	ldw	r2,-20(fp)
   300c0:	1000031e 	bne	r2,zero,300d0 <alt_tick+0xb4>
      {
        alt_alarm_stop (alarm);
   300c4:	e13ffd17 	ldw	r4,-12(fp)
   300c8:	002ff780 	call	2ff78 <alt_alarm_stop>
   300cc:	00001006 	br	30110 <alt_tick+0xf4>
      }
      else
      {
        alarm->time += next_callback;
   300d0:	e0bffd17 	ldw	r2,-12(fp)
   300d4:	11000217 	ldw	r4,8(r2)
   300d8:	11400317 	ldw	r5,12(r2)
   300dc:	e0bffb17 	ldw	r2,-20(fp)
   300e0:	1021883a 	mov	r16,r2
   300e4:	0023883a 	mov	r17,zero
   300e8:	2405883a 	add	r2,r4,r16
   300ec:	110d803a 	cmpltu	r6,r2,r4
   300f0:	2c47883a 	add	r3,r5,r17
   300f4:	30c9883a 	add	r4,r6,r3
   300f8:	2007883a 	mov	r3,r4
   300fc:	1009883a 	mov	r4,r2
   30100:	180b883a 	mov	r5,r3
   30104:	e0bffd17 	ldw	r2,-12(fp)
   30108:	11000215 	stw	r4,8(r2)
   3010c:	11400315 	stw	r5,12(r2)
      }
    }
    alarm = next;
   30110:	e0bffc17 	ldw	r2,-16(fp)
   30114:	e0bffd15 	stw	r2,-12(fp)
  while (alarm != (alt_alarm*) &alt_alarm_list)
   30118:	e0fffd17 	ldw	r3,-12(fp)
   3011c:	d0a00c04 	addi	r2,gp,-32720
   30120:	18bfd41e 	bne	r3,r2,30074 <alt_tick+0x58>

  /* 
   * Update the operating system specific timer facilities.
   */

  ALT_OS_TIME_TICK();
   30124:	0001883a 	nop
}
   30128:	0001883a 	nop
   3012c:	e6fffe04 	addi	sp,fp,-8
   30130:	dfc00317 	ldw	ra,12(sp)
   30134:	df000217 	ldw	fp,8(sp)
   30138:	dc400117 	ldw	r17,4(sp)
   3013c:	dc000017 	ldw	r16,0(sp)
   30140:	dec00404 	addi	sp,sp,16
   30144:	f800283a 	ret

00030148 <altera_nios2_gen2_irq_init>:
/*
 * To initialize the internal interrupt controller, just clear the IENABLE
 * register so that all possible IRQs are disabled.
 */
void altera_nios2_gen2_irq_init(void) 
{
   30148:	deffff04 	addi	sp,sp,-4
   3014c:	df000015 	stw	fp,0(sp)
   30150:	d839883a 	mov	fp,sp
    NIOS2_WRITE_IENABLE(0);
   30154:	000170fa 	wrctl	ienable,zero
}
   30158:	0001883a 	nop
   3015c:	e037883a 	mov	sp,fp
   30160:	df000017 	ldw	fp,0(sp)
   30164:	dec00104 	addi	sp,sp,4
   30168:	f800283a 	ret

0003016c <alt_find_file>:
 * either '/' or '\0' is the prefix of the filename. For example the filename:
 * "/myfilesystem/junk.txt" would match: "/myfilesystem", but not: "/myfile". 
 */
 
alt_dev* alt_find_file (const char* name)
{
   3016c:	defffb04 	addi	sp,sp,-20
   30170:	dfc00415 	stw	ra,16(sp)
   30174:	df000315 	stw	fp,12(sp)
   30178:	df000304 	addi	fp,sp,12
   3017c:	e13ffd15 	stw	r4,-12(fp)
  alt_dev* next = (alt_dev*) alt_fs_list.next;   
   30180:	d0a00417 	ldw	r2,-32752(gp)
   30184:	e0bfff15 	stw	r2,-4(fp)
  /*
   * Check each list entry in turn, until a match is found, or we reach the
   * end of the list (i.e. next winds up pointing back to the list head).
   */ 
 
  while (next != (alt_dev*) &alt_fs_list)
   30188:	00003106 	br	30250 <alt_find_file+0xe4>
  {
    len = strlen(next->name);
   3018c:	e0bfff17 	ldw	r2,-4(fp)
   30190:	10800217 	ldw	r2,8(r2)
   30194:	1009883a 	mov	r4,r2
   30198:	0020bb40 	call	20bb4 <strlen>
   3019c:	e0bffe15 	stw	r2,-8(fp)
    
    if (next->name[len-1] == '/')
   301a0:	e0bfff17 	ldw	r2,-4(fp)
   301a4:	10c00217 	ldw	r3,8(r2)
   301a8:	e0bffe17 	ldw	r2,-8(fp)
   301ac:	10bfffc4 	addi	r2,r2,-1
   301b0:	1885883a 	add	r2,r3,r2
   301b4:	10800003 	ldbu	r2,0(r2)
   301b8:	10803fcc 	andi	r2,r2,255
   301bc:	1080201c 	xori	r2,r2,128
   301c0:	10bfe004 	addi	r2,r2,-128
   301c4:	10800bd8 	cmpnei	r2,r2,47
   301c8:	1000031e 	bne	r2,zero,301d8 <alt_find_file+0x6c>
    {
      len -= 1;
   301cc:	e0bffe17 	ldw	r2,-8(fp)
   301d0:	10bfffc4 	addi	r2,r2,-1
   301d4:	e0bffe15 	stw	r2,-8(fp)
    }

    if (((name[len] == '/') || (name[len] == '\0')) && 
   301d8:	e0bffe17 	ldw	r2,-8(fp)
   301dc:	e0fffd17 	ldw	r3,-12(fp)
   301e0:	1885883a 	add	r2,r3,r2
   301e4:	10800003 	ldbu	r2,0(r2)
   301e8:	10803fcc 	andi	r2,r2,255
   301ec:	1080201c 	xori	r2,r2,128
   301f0:	10bfe004 	addi	r2,r2,-128
   301f4:	10800be0 	cmpeqi	r2,r2,47
   301f8:	1000081e 	bne	r2,zero,3021c <alt_find_file+0xb0>
   301fc:	e0bffe17 	ldw	r2,-8(fp)
   30200:	e0fffd17 	ldw	r3,-12(fp)
   30204:	1885883a 	add	r2,r3,r2
   30208:	10800003 	ldbu	r2,0(r2)
   3020c:	10803fcc 	andi	r2,r2,255
   30210:	1080201c 	xori	r2,r2,128
   30214:	10bfe004 	addi	r2,r2,-128
   30218:	10000a1e 	bne	r2,zero,30244 <alt_find_file+0xd8>
        !memcmp (next->name, name, len))
   3021c:	e0bfff17 	ldw	r2,-4(fp)
   30220:	10800217 	ldw	r2,8(r2)
   30224:	e0fffe17 	ldw	r3,-8(fp)
   30228:	180d883a 	mov	r6,r3
   3022c:	e17ffd17 	ldw	r5,-12(fp)
   30230:	1009883a 	mov	r4,r2
   30234:	00303d00 	call	303d0 <memcmp>
    if (((name[len] == '/') || (name[len] == '\0')) && 
   30238:	1000021e 	bne	r2,zero,30244 <alt_find_file+0xd8>
    {
      /* match found */

      return next;
   3023c:	e0bfff17 	ldw	r2,-4(fp)
   30240:	00000706 	br	30260 <alt_find_file+0xf4>
    }
    next = (alt_dev*) next->llist.next;
   30244:	e0bfff17 	ldw	r2,-4(fp)
   30248:	10800017 	ldw	r2,0(r2)
   3024c:	e0bfff15 	stw	r2,-4(fp)
  while (next != (alt_dev*) &alt_fs_list)
   30250:	e0ffff17 	ldw	r3,-4(fp)
   30254:	d0a00404 	addi	r2,gp,-32752
   30258:	18bfcc1e 	bne	r3,r2,3018c <alt_find_file+0x20>
  }
  
  /* No match found */
  
  return NULL;     
   3025c:	0005883a 	mov	r2,zero
}
   30260:	e037883a 	mov	sp,fp
   30264:	dfc00117 	ldw	ra,4(sp)
   30268:	df000017 	ldw	fp,0(sp)
   3026c:	dec00204 	addi	sp,sp,8
   30270:	f800283a 	ret

00030274 <alt_get_fd>:
 * the offset of the file descriptor within the file descriptor array). A
 * negative value indicates failure.
 */

int alt_get_fd (alt_dev* dev)
{
   30274:	defffc04 	addi	sp,sp,-16
   30278:	df000315 	stw	fp,12(sp)
   3027c:	df000304 	addi	fp,sp,12
   30280:	e13ffd15 	stw	r4,-12(fp)
  alt_32 i;
  int rc = -EMFILE;
   30284:	00bffa04 	movi	r2,-24
   30288:	e0bffe15 	stw	r2,-8(fp)
   * indicates the highest file descriptor ever allocated. This is used to
   * improve efficency when searching the file descriptor list, and 
   * therefore reduce contention on the alt_fd_list_lock semaphore. 
   */

  for (i = 0; i < ALT_MAX_FD; i++)
   3028c:	e03fff15 	stw	zero,-4(fp)
   30290:	00001706 	br	302f0 <alt_get_fd+0x7c>
  {
    if (!alt_fd_list[i].dev)
   30294:	e0bfff17 	ldw	r2,-4(fp)
   30298:	10c00324 	muli	r3,r2,12
   3029c:	008000f4 	movhi	r2,3
   302a0:	1885883a 	add	r2,r3,r2
   302a4:	1085b317 	ldw	r2,5836(r2)
   302a8:	10000e1e 	bne	r2,zero,302e4 <alt_get_fd+0x70>
    {
      alt_fd_list[i].dev = dev;
   302ac:	e0bfff17 	ldw	r2,-4(fp)
   302b0:	11000324 	muli	r4,r2,12
   302b4:	e0fffd17 	ldw	r3,-12(fp)
   302b8:	008000f4 	movhi	r2,3
   302bc:	2085883a 	add	r2,r4,r2
   302c0:	10c5b315 	stw	r3,5836(r2)
      if (i > alt_max_fd)
   302c4:	d0e00817 	ldw	r3,-32736(gp)
   302c8:	e0bfff17 	ldw	r2,-4(fp)
   302cc:	1880020e 	bge	r3,r2,302d8 <alt_get_fd+0x64>
      {
        alt_max_fd = i;
   302d0:	e0bfff17 	ldw	r2,-4(fp)
   302d4:	d0a00815 	stw	r2,-32736(gp)
      }
      rc = i;
   302d8:	e0bfff17 	ldw	r2,-4(fp)
   302dc:	e0bffe15 	stw	r2,-8(fp)
      goto alt_get_fd_exit;
   302e0:	00000706 	br	30300 <alt_get_fd+0x8c>
  for (i = 0; i < ALT_MAX_FD; i++)
   302e4:	e0bfff17 	ldw	r2,-4(fp)
   302e8:	10800044 	addi	r2,r2,1
   302ec:	e0bfff15 	stw	r2,-4(fp)
   302f0:	e0bfff17 	ldw	r2,-4(fp)
   302f4:	10800810 	cmplti	r2,r2,32
   302f8:	103fe61e 	bne	r2,zero,30294 <alt_get_fd+0x20>
    }
  }

 alt_get_fd_exit:
   302fc:	0001883a 	nop
   * file descriptor pool.
   */

  ALT_SEM_POST(alt_fd_list_lock);

  return rc;
   30300:	e0bffe17 	ldw	r2,-8(fp)
}
   30304:	e037883a 	mov	sp,fp
   30308:	df000017 	ldw	fp,0(sp)
   3030c:	dec00104 	addi	sp,sp,4
   30310:	f800283a 	ret

00030314 <alt_exception_cause_generated_bad_addr>:
 * Return: 1: BADADDR (bad_addr argument to handler) is valid
 *         0: BADADDR is not valid
 */
int 
alt_exception_cause_generated_bad_addr(alt_exception_cause cause)
{
   30314:	defffe04 	addi	sp,sp,-8
   30318:	df000115 	stw	fp,4(sp)
   3031c:	df000104 	addi	fp,sp,4
   30320:	e13fff15 	stw	r4,-4(fp)
  switch (cause) {
   30324:	e0bfff17 	ldw	r2,-4(fp)
   30328:	10bffe84 	addi	r2,r2,-6
   3032c:	10c00428 	cmpgeui	r3,r2,16
   30330:	18c03fcc 	andi	r3,r3,255
   30334:	18000f1e 	bne	r3,zero,30374 <alt_exception_cause_generated_bad_addr+0x60>
   30338:	00c00044 	movi	r3,1
   3033c:	1884983a 	sll	r2,r3,r2
   30340:	10e2c8cc 	andi	r3,r2,35619
   30344:	1806c03a 	cmpne	r3,r3,zero
   30348:	18c03fcc 	andi	r3,r3,255
   3034c:	1800051e 	bne	r3,zero,30364 <alt_exception_cause_generated_bad_addr+0x50>
   30350:	1084100c 	andi	r2,r2,4160
   30354:	1004c03a 	cmpne	r2,r2,zero
   30358:	10803fcc 	andi	r2,r2,255
   3035c:	1000031e 	bne	r2,zero,3036c <alt_exception_cause_generated_bad_addr+0x58>
   30360:	00000406 	br	30374 <alt_exception_cause_generated_bad_addr+0x60>
  case NIOS2_EXCEPTION_MISALIGNED_TARGET_PC:
  case NIOS2_EXCEPTION_TLB_READ_PERM_VIOLATION:
  case NIOS2_EXCEPTION_TLB_WRITE_PERM_VIOLATION:
  case NIOS2_EXCEPTION_MPU_DATA_REGION_VIOLATION:
  case NIOS2_EXCEPTION_ECC_DATA_ERR:
    return 1;
   30364:	00800044 	movi	r2,1
   30368:	00000306 	br	30378 <alt_exception_cause_generated_bad_addr+0x64>

  case NIOS2_EXCEPTION_TLB_MISS:
  case NIOS2_EXCEPTION_ECC_TLB_ERR:
    return 0;
   3036c:	0005883a 	mov	r2,zero
   30370:	00000106 	br	30378 <alt_exception_cause_generated_bad_addr+0x64>

  default:
    return 0;
   30374:	0005883a 	mov	r2,zero
  }
}
   30378:	e037883a 	mov	sp,fp
   3037c:	df000017 	ldw	fp,0(sp)
   30380:	dec00104 	addi	sp,sp,4
   30384:	f800283a 	ret

00030388 <atexit>:
   30388:	200b883a 	mov	r5,r4
   3038c:	000f883a 	mov	r7,zero
   30390:	000d883a 	mov	r6,zero
   30394:	0009883a 	mov	r4,zero
   30398:	00304481 	jmpi	30448 <__register_exitproc>

0003039c <exit>:
   3039c:	defffe04 	addi	sp,sp,-8
   303a0:	000b883a 	mov	r5,zero
   303a4:	dc000015 	stw	r16,0(sp)
   303a8:	dfc00115 	stw	ra,4(sp)
   303ac:	2021883a 	mov	r16,r4
   303b0:	00304d80 	call	304d8 <__call_exitprocs>
   303b4:	008000f4 	movhi	r2,3
   303b8:	110a4117 	ldw	r4,10500(r2)
   303bc:	20800f17 	ldw	r2,60(r4)
   303c0:	10000126 	beq	r2,zero,303c8 <exit+0x2c>
   303c4:	103ee83a 	callr	r2
   303c8:	8009883a 	mov	r4,r16
   303cc:	002db240 	call	2db24 <_exit>

000303d0 <memcmp>:
   303d0:	30800128 	cmpgeui	r2,r6,4
   303d4:	10000d26 	beq	r2,zero,3040c <memcmp+0x3c>
   303d8:	2144b03a 	or	r2,r4,r5
   303dc:	108000cc 	andi	r2,r2,3
   303e0:	10000726 	beq	r2,zero,30400 <memcmp+0x30>
   303e4:	30bfffc4 	addi	r2,r6,-1
   303e8:	00000a06 	br	30414 <memcmp+0x44>
   303ec:	31bfff04 	addi	r6,r6,-4
   303f0:	30800128 	cmpgeui	r2,r6,4
   303f4:	21000104 	addi	r4,r4,4
   303f8:	29400104 	addi	r5,r5,4
   303fc:	10000326 	beq	r2,zero,3040c <memcmp+0x3c>
   30400:	20c00017 	ldw	r3,0(r4)
   30404:	28800017 	ldw	r2,0(r5)
   30408:	18bff826 	beq	r3,r2,303ec <memcmp+0x1c>
   3040c:	30bfffc4 	addi	r2,r6,-1
   30410:	30000b26 	beq	r6,zero,30440 <memcmp+0x70>
   30414:	11800044 	addi	r6,r2,1
   30418:	218d883a 	add	r6,r4,r6
   3041c:	00000106 	br	30424 <memcmp+0x54>
   30420:	21800726 	beq	r4,r6,30440 <memcmp+0x70>
   30424:	20800003 	ldbu	r2,0(r4)
   30428:	28c00003 	ldbu	r3,0(r5)
   3042c:	21000044 	addi	r4,r4,1
   30430:	29400044 	addi	r5,r5,1
   30434:	10fffa26 	beq	r2,r3,30420 <memcmp+0x50>
   30438:	10c5c83a 	sub	r2,r2,r3
   3043c:	f800283a 	ret
   30440:	0005883a 	mov	r2,zero
   30444:	f800283a 	ret

00030448 <__register_exitproc>:
   30448:	008000f4 	movhi	r2,3
   3044c:	10ca4117 	ldw	r3,10500(r2)
   30450:	18805217 	ldw	r2,328(r3)
   30454:	10001726 	beq	r2,zero,304b4 <__register_exitproc+0x6c>
   30458:	10c00117 	ldw	r3,4(r2)
   3045c:	1a000808 	cmpgei	r8,r3,32
   30460:	40001b1e 	bne	r8,zero,304d0 <__register_exitproc+0x88>
   30464:	20000b26 	beq	r4,zero,30494 <__register_exitproc+0x4c>
   30468:	181090ba 	slli	r8,r3,2
   3046c:	02400044 	movi	r9,1
   30470:	48d2983a 	sll	r9,r9,r3
   30474:	1211883a 	add	r8,r2,r8
   30478:	41802215 	stw	r6,136(r8)
   3047c:	11806217 	ldw	r6,392(r2)
   30480:	21000098 	cmpnei	r4,r4,2
   30484:	324cb03a 	or	r6,r6,r9
   30488:	11806215 	stw	r6,392(r2)
   3048c:	41c04215 	stw	r7,264(r8)
   30490:	20000b26 	beq	r4,zero,304c0 <__register_exitproc+0x78>
   30494:	19000084 	addi	r4,r3,2
   30498:	200890ba 	slli	r4,r4,2
   3049c:	18c00044 	addi	r3,r3,1
   304a0:	10c00115 	stw	r3,4(r2)
   304a4:	1105883a 	add	r2,r2,r4
   304a8:	11400015 	stw	r5,0(r2)
   304ac:	0005883a 	mov	r2,zero
   304b0:	f800283a 	ret
   304b4:	18805304 	addi	r2,r3,332
   304b8:	18805215 	stw	r2,328(r3)
   304bc:	003fe606 	br	30458 <__register_exitproc+0x10>
   304c0:	11006317 	ldw	r4,396(r2)
   304c4:	2248b03a 	or	r4,r4,r9
   304c8:	11006315 	stw	r4,396(r2)
   304cc:	003ff106 	br	30494 <__register_exitproc+0x4c>
   304d0:	00bfffc4 	movi	r2,-1
   304d4:	f800283a 	ret

000304d8 <__call_exitprocs>:
   304d8:	defff704 	addi	sp,sp,-36
   304dc:	008000f4 	movhi	r2,3
   304e0:	dcc00315 	stw	r19,12(sp)
   304e4:	14ca4117 	ldw	r19,10500(r2)
   304e8:	dc800215 	stw	r18,8(sp)
   304ec:	dfc00815 	stw	ra,32(sp)
   304f0:	9c805217 	ldw	r18,328(r19)
   304f4:	ddc00715 	stw	r23,28(sp)
   304f8:	dd800615 	stw	r22,24(sp)
   304fc:	dd400515 	stw	r21,20(sp)
   30500:	dd000415 	stw	r20,16(sp)
   30504:	dc400115 	stw	r17,4(sp)
   30508:	dc000015 	stw	r16,0(sp)
   3050c:	90001026 	beq	r18,zero,30550 <__call_exitprocs+0x78>
   30510:	202b883a 	mov	r21,r4
   30514:	282d883a 	mov	r22,r5
   30518:	05000044 	movi	r20,1
   3051c:	94000117 	ldw	r16,4(r18)
   30520:	847fffc4 	addi	r17,r16,-1
   30524:	88000a16 	blt	r17,zero,30550 <__call_exitprocs+0x78>
   30528:	84000044 	addi	r16,r16,1
   3052c:	802090ba 	slli	r16,r16,2
   30530:	9421883a 	add	r16,r18,r16
   30534:	b0001126 	beq	r22,zero,3057c <__call_exitprocs+0xa4>
   30538:	80804017 	ldw	r2,256(r16)
   3053c:	15800f26 	beq	r2,r22,3057c <__call_exitprocs+0xa4>
   30540:	8c7fffc4 	addi	r17,r17,-1
   30544:	88bfffd8 	cmpnei	r2,r17,-1
   30548:	843fff04 	addi	r16,r16,-4
   3054c:	103ff91e 	bne	r2,zero,30534 <__call_exitprocs+0x5c>
   30550:	dfc00817 	ldw	ra,32(sp)
   30554:	ddc00717 	ldw	r23,28(sp)
   30558:	dd800617 	ldw	r22,24(sp)
   3055c:	dd400517 	ldw	r21,20(sp)
   30560:	dd000417 	ldw	r20,16(sp)
   30564:	dcc00317 	ldw	r19,12(sp)
   30568:	dc800217 	ldw	r18,8(sp)
   3056c:	dc400117 	ldw	r17,4(sp)
   30570:	dc000017 	ldw	r16,0(sp)
   30574:	dec00904 	addi	sp,sp,36
   30578:	f800283a 	ret
   3057c:	90800117 	ldw	r2,4(r18)
   30580:	81800017 	ldw	r6,0(r16)
   30584:	10bfffc4 	addi	r2,r2,-1
   30588:	14401726 	beq	r2,r17,305e8 <__call_exitprocs+0x110>
   3058c:	80000015 	stw	zero,0(r16)
   30590:	303feb26 	beq	r6,zero,30540 <__call_exitprocs+0x68>
   30594:	a446983a 	sll	r3,r20,r17
   30598:	90806217 	ldw	r2,392(r18)
   3059c:	95c00117 	ldw	r23,4(r18)
   305a0:	1884703a 	and	r2,r3,r2
   305a4:	1000081e 	bne	r2,zero,305c8 <__call_exitprocs+0xf0>
   305a8:	303ee83a 	callr	r6
   305ac:	90c00117 	ldw	r3,4(r18)
   305b0:	98805217 	ldw	r2,328(r19)
   305b4:	1dc0011e 	bne	r3,r23,305bc <__call_exitprocs+0xe4>
   305b8:	14bfe126 	beq	r2,r18,30540 <__call_exitprocs+0x68>
   305bc:	103fe426 	beq	r2,zero,30550 <__call_exitprocs+0x78>
   305c0:	1025883a 	mov	r18,r2
   305c4:	003fd506 	br	3051c <__call_exitprocs+0x44>
   305c8:	90806317 	ldw	r2,396(r18)
   305cc:	81002017 	ldw	r4,128(r16)
   305d0:	1886703a 	and	r3,r3,r2
   305d4:	1800061e 	bne	r3,zero,305f0 <__call_exitprocs+0x118>
   305d8:	200b883a 	mov	r5,r4
   305dc:	a809883a 	mov	r4,r21
   305e0:	303ee83a 	callr	r6
   305e4:	003ff106 	br	305ac <__call_exitprocs+0xd4>
   305e8:	94400115 	stw	r17,4(r18)
   305ec:	003fe806 	br	30590 <__call_exitprocs+0xb8>
   305f0:	303ee83a 	callr	r6
   305f4:	003fed06 	br	305ac <__call_exitprocs+0xd4>
